
freeRTOS-rtsm.elf:     file format elf32-littlearm


Disassembly of section .ro:

a0000000 <_reset>:
a0000000:	e59f2054 	ldr	r2, [pc, #84]	; a000005c <_setup_sctlr+0x14>
a0000004:	ee0c2f10 	mcr	15, 0, r2, cr12, cr0, {0}
a0000008:	e59fd050 	ldr	sp, [pc, #80]	; a0000060 <_setup_sctlr+0x18>
a000000c:	e321f012 	msr	CPSR_c, #18
a0000010:	e59fd04c 	ldr	sp, [pc, #76]	; a0000064 <_setup_sctlr+0x1c>
a0000014:	e321f013 	msr	CPSR_c, #19
a0000018:	eb000067 	bl	a00001bc <main>
a000001c:	eafffffe 	b	a000001c <_reset+0x1c>

a0000020 <_vector>:
a0000020:	eafffffe 	b	a0000020 <_vector>
a0000024:	eafffffe 	b	a0000024 <_vector+0x4>
a0000028:	ea000004 	b	a0000040 <_svc>
a000002c:	eafffffe 	b	a000002c <_vector+0xc>
a0000030:	eafffffe 	b	a0000030 <_vector+0x10>
a0000034:	eafffffe 	b	a0000034 <_vector+0x14>
a0000038:	ea000001 	b	a0000044 <_dabort>
a000003c:	eafffffe 	b	a000003c <_vector+0x1c>

a0000040 <_svc>:
a0000040:	ea002239 	b	a000892c <vPortSVCHandler>

a0000044 <_dabort>:
a0000044:	ea002241 	b	a0008950 <vPortInterruptContext>

a0000048 <_setup_sctlr>:
a0000048:	ee110f10 	mrc	15, 0, r0, cr1, cr0, {0}
a000004c:	e3800000 	orr	r0, r0, #0
a0000050:	ee010f10 	mcr	15, 0, r0, cr1, cr0, {0}
a0000054:	f57ff04f 	dsb	sy
a0000058:	f57ff06f 	isb	sy
a000005c:	a0000020 	andge	r0, r0, r0, lsr #32
a0000060:	a081bd58 	addge	fp, r1, r8, asr sp
a0000064:	a081cd58 	addge	ip, r1, r8, asr sp
a0000068:	e320f000 	nop	{0}
a000006c:	e320f000 	nop	{0}
a0000070:	e320f000 	nop	{0}
a0000074:	e320f000 	nop	{0}
a0000078:	e320f000 	nop	{0}
a000007c:	e320f000 	nop	{0}

a0000080 <debug>:
a0000080:	e52de004 	push	{lr}		; (str lr, [sp, #-4]!)
a0000084:	e24dd00c 	sub	sp, sp, #12
a0000088:	e58d0004 	str	r0, [sp, #4]
a000008c:	e58d1000 	str	r1, [sp]
a0000090:	e59f3104 	ldr	r3, [pc, #260]	; a000019c <debug+0x11c>
a0000094:	e08f3003 	add	r3, pc, r3
a0000098:	e1a00003 	mov	r0, r3
a000009c:	eb000825 	bl	a0002138 <em_printf>
a00000a0:	e59f30f8 	ldr	r3, [pc, #248]	; a00001a0 <debug+0x120>
a00000a4:	e08f3003 	add	r3, pc, r3
a00000a8:	e1a00003 	mov	r0, r3
a00000ac:	e59d1004 	ldr	r1, [sp, #4]
a00000b0:	eb000820 	bl	a0002138 <em_printf>
a00000b4:	e59d3000 	ldr	r3, [sp]
a00000b8:	e1a03103 	lsl	r3, r3, #2
a00000bc:	e59d2004 	ldr	r2, [sp, #4]
a00000c0:	e0823003 	add	r3, r2, r3
a00000c4:	e5933000 	ldr	r3, [r3]
a00000c8:	e59f20d4 	ldr	r2, [pc, #212]	; a00001a4 <debug+0x124>
a00000cc:	e08f2002 	add	r2, pc, r2
a00000d0:	e1a00002 	mov	r0, r2
a00000d4:	e1a01003 	mov	r1, r3
a00000d8:	eb000816 	bl	a0002138 <em_printf>
a00000dc:	e59d3000 	ldr	r3, [sp]
a00000e0:	e2833004 	add	r3, r3, #4
a00000e4:	e1a03103 	lsl	r3, r3, #2
a00000e8:	e59d2004 	ldr	r2, [sp, #4]
a00000ec:	e0823003 	add	r3, r2, r3
a00000f0:	e59f20b0 	ldr	r2, [pc, #176]	; a00001a8 <debug+0x128>
a00000f4:	e08f2002 	add	r2, pc, r2
a00000f8:	e1a00002 	mov	r0, r2
a00000fc:	e1a01003 	mov	r1, r3
a0000100:	eb00080c 	bl	a0002138 <em_printf>
a0000104:	e59d3000 	ldr	r3, [sp]
a0000108:	e2833004 	add	r3, r3, #4
a000010c:	e1a03103 	lsl	r3, r3, #2
a0000110:	e59d2004 	ldr	r2, [sp, #4]
a0000114:	e0823003 	add	r3, r2, r3
a0000118:	e5933000 	ldr	r3, [r3]
a000011c:	e59f2088 	ldr	r2, [pc, #136]	; a00001ac <debug+0x12c>
a0000120:	e08f2002 	add	r2, pc, r2
a0000124:	e1a00002 	mov	r0, r2
a0000128:	e1a01003 	mov	r1, r3
a000012c:	eb000801 	bl	a0002138 <em_printf>
a0000130:	e59d3000 	ldr	r3, [sp]
a0000134:	e2833008 	add	r3, r3, #8
a0000138:	e1a03103 	lsl	r3, r3, #2
a000013c:	e59d2004 	ldr	r2, [sp, #4]
a0000140:	e0823003 	add	r3, r2, r3
a0000144:	e59f2064 	ldr	r2, [pc, #100]	; a00001b0 <debug+0x130>
a0000148:	e08f2002 	add	r2, pc, r2
a000014c:	e1a00002 	mov	r0, r2
a0000150:	e1a01003 	mov	r1, r3
a0000154:	eb0007f7 	bl	a0002138 <em_printf>
a0000158:	e59d3000 	ldr	r3, [sp]
a000015c:	e2833008 	add	r3, r3, #8
a0000160:	e1a03103 	lsl	r3, r3, #2
a0000164:	e59d2004 	ldr	r2, [sp, #4]
a0000168:	e0823003 	add	r3, r2, r3
a000016c:	e5933000 	ldr	r3, [r3]
a0000170:	e59f203c 	ldr	r2, [pc, #60]	; a00001b4 <debug+0x134>
a0000174:	e08f2002 	add	r2, pc, r2
a0000178:	e1a00002 	mov	r0, r2
a000017c:	e1a01003 	mov	r1, r3
a0000180:	eb0007ec 	bl	a0002138 <em_printf>
a0000184:	e59f302c 	ldr	r3, [pc, #44]	; a00001b8 <debug+0x138>
a0000188:	e08f3003 	add	r3, pc, r3
a000018c:	e1a00003 	mov	r0, r3
a0000190:	eb0007e8 	bl	a0002138 <em_printf>
a0000194:	e28dd00c 	add	sp, sp, #12
a0000198:	e49df004 	pop	{pc}		; (ldr pc, [sp], #4)
a000019c:	000093f8 	strdeq	r9, [r0], -r8
a00001a0:	00009400 	andeq	r9, r0, r0, lsl #8
a00001a4:	000093e8 	andeq	r9, r0, r8, ror #7
a00001a8:	000093d0 	ldrdeq	r9, [r0], -r0
a00001ac:	000093b8 			; <UNDEFINED> instruction: 0x000093b8
a00001b0:	000093a0 	andeq	r9, r0, r0, lsr #7
a00001b4:	00009388 	andeq	r9, r0, r8, lsl #7
a00001b8:	00009304 	andeq	r9, r0, r4, lsl #6

a00001bc <main>:
a00001bc:	e52de004 	push	{lr}		; (str lr, [sp, #-4]!)
a00001c0:	e24dd074 	sub	sp, sp, #116	; 0x74
a00001c4:	e3a03000 	mov	r3, #0
a00001c8:	e58d306c 	str	r3, [sp, #108]	; 0x6c
a00001cc:	e59f3210 	ldr	r3, [pc, #528]	; a00003e4 <main+0x228>
a00001d0:	e08f3003 	add	r3, pc, r3
a00001d4:	e1a00003 	mov	r0, r3
a00001d8:	eb0007d6 	bl	a0002138 <em_printf>
a00001dc:	e59f3204 	ldr	r3, [pc, #516]	; a00003e8 <main+0x22c>
a00001e0:	e08f3003 	add	r3, pc, r3
a00001e4:	e1a00003 	mov	r0, r3
a00001e8:	eb0007d2 	bl	a0002138 <em_printf>
a00001ec:	e3a03cd1 	mov	r3, #53504	; 0xd100
a00001f0:	e3463000 	movt	r3, #24576	; 0x6000
a00001f4:	e58d3068 	str	r3, [sp, #104]	; 0x68
a00001f8:	e3a03cd2 	mov	r3, #53760	; 0xd200
a00001fc:	e3463000 	movt	r3, #24576	; 0x6000
a0000200:	e58d3064 	str	r3, [sp, #100]	; 0x64
a0000204:	e3a03cd3 	mov	r3, #54016	; 0xd300
a0000208:	e3463000 	movt	r3, #24576	; 0x6000
a000020c:	e58d3060 	str	r3, [sp, #96]	; 0x60
a0000210:	e3a03b35 	mov	r3, #54272	; 0xd400
a0000214:	e3463000 	movt	r3, #24576	; 0x6000
a0000218:	e58d305c 	str	r3, [sp, #92]	; 0x5c
a000021c:	e3a03cd5 	mov	r3, #54528	; 0xd500
a0000220:	e3463000 	movt	r3, #24576	; 0x6000
a0000224:	e58d3058 	str	r3, [sp, #88]	; 0x58
a0000228:	e3a03cd7 	mov	r3, #55040	; 0xd700
a000022c:	e3463000 	movt	r3, #24576	; 0x6000
a0000230:	e58d3054 	str	r3, [sp, #84]	; 0x54
a0000234:	e59d005c 	ldr	r0, [sp, #92]	; 0x5c
a0000238:	e3a01003 	mov	r1, #3
a000023c:	e3a02005 	mov	r2, #5
a0000240:	e3a03001 	mov	r3, #1
a0000244:	eb000682 	bl	a0001c54 <gpio_cfg_pin>
a0000248:	e59d005c 	ldr	r0, [sp, #92]	; 0x5c
a000024c:	e3a01003 	mov	r1, #3
a0000250:	ebffff8a 	bl	a0000080 <debug>
a0000254:	e59d0054 	ldr	r0, [sp, #84]	; 0x54
a0000258:	e3a01003 	mov	r1, #3
a000025c:	e3a02000 	mov	r2, #0
a0000260:	e3a03001 	mov	r3, #1
a0000264:	eb00067a 	bl	a0001c54 <gpio_cfg_pin>
a0000268:	e59d0054 	ldr	r0, [sp, #84]	; 0x54
a000026c:	e3a01003 	mov	r1, #3
a0000270:	ebffff82 	bl	a0000080 <debug>
a0000274:	e3a03000 	mov	r3, #0
a0000278:	e58d306c 	str	r3, [sp, #108]	; 0x6c
a000027c:	ea000007 	b	a00002a0 <main+0xe4>
a0000280:	e59d0058 	ldr	r0, [sp, #88]	; 0x58
a0000284:	e3a01000 	mov	r1, #0
a0000288:	e59d206c 	ldr	r2, [sp, #108]	; 0x6c
a000028c:	e3a03001 	mov	r3, #1
a0000290:	eb00066f 	bl	a0001c54 <gpio_cfg_pin>
a0000294:	e59d306c 	ldr	r3, [sp, #108]	; 0x6c
a0000298:	e2833001 	add	r3, r3, #1
a000029c:	e58d306c 	str	r3, [sp, #108]	; 0x6c
a00002a0:	e59d306c 	ldr	r3, [sp, #108]	; 0x6c
a00002a4:	e3530007 	cmp	r3, #7
a00002a8:	dafffff4 	ble	a0000280 <main+0xc4>
a00002ac:	e59d005c 	ldr	r0, [sp, #92]	; 0x5c
a00002b0:	e3a01003 	mov	r1, #3
a00002b4:	e3a02005 	mov	r2, #5
a00002b8:	e3a03000 	mov	r3, #0
a00002bc:	eb0006eb 	bl	a0001e70 <gpio_set_value>
a00002c0:	e3a03003 	mov	r3, #3
a00002c4:	e58d3000 	str	r3, [sp]
a00002c8:	e3a03000 	mov	r3, #0
a00002cc:	e58d3004 	str	r3, [sp, #4]
a00002d0:	e3a03000 	mov	r3, #0
a00002d4:	e58d3008 	str	r3, [sp, #8]
a00002d8:	e3a03000 	mov	r3, #0
a00002dc:	e58d300c 	str	r3, [sp, #12]
a00002e0:	e59f3104 	ldr	r3, [pc, #260]	; a00003ec <main+0x230>
a00002e4:	e08f3003 	add	r3, pc, r3
a00002e8:	e1a00003 	mov	r0, r3
a00002ec:	e59f30fc 	ldr	r3, [pc, #252]	; a00003f0 <main+0x234>
a00002f0:	e08f3003 	add	r3, pc, r3
a00002f4:	e1a01003 	mov	r1, r3
a00002f8:	e3a02b01 	mov	r2, #1024	; 0x400
a00002fc:	e3a03000 	mov	r3, #0
a0000300:	eb0015ce 	bl	a0005a40 <xTaskGenericCreate>
a0000304:	e3a03003 	mov	r3, #3
a0000308:	e58d3000 	str	r3, [sp]
a000030c:	e3a03000 	mov	r3, #0
a0000310:	e58d3004 	str	r3, [sp, #4]
a0000314:	e3a03000 	mov	r3, #0
a0000318:	e58d3008 	str	r3, [sp, #8]
a000031c:	e3a03000 	mov	r3, #0
a0000320:	e58d300c 	str	r3, [sp, #12]
a0000324:	e59f30c8 	ldr	r3, [pc, #200]	; a00003f4 <main+0x238>
a0000328:	e08f3003 	add	r3, pc, r3
a000032c:	e1a00003 	mov	r0, r3
a0000330:	e59f30c0 	ldr	r3, [pc, #192]	; a00003f8 <main+0x23c>
a0000334:	e08f3003 	add	r3, pc, r3
a0000338:	e1a01003 	mov	r1, r3
a000033c:	e3a02b01 	mov	r2, #1024	; 0x400
a0000340:	e3a03000 	mov	r3, #0
a0000344:	eb0015bd 	bl	a0005a40 <xTaskGenericCreate>
a0000348:	e3a03003 	mov	r3, #3
a000034c:	e58d3000 	str	r3, [sp]
a0000350:	e3a03000 	mov	r3, #0
a0000354:	e58d3004 	str	r3, [sp, #4]
a0000358:	e3a03000 	mov	r3, #0
a000035c:	e58d3008 	str	r3, [sp, #8]
a0000360:	e3a03000 	mov	r3, #0
a0000364:	e58d300c 	str	r3, [sp, #12]
a0000368:	e59f308c 	ldr	r3, [pc, #140]	; a00003fc <main+0x240>
a000036c:	e08f3003 	add	r3, pc, r3
a0000370:	e1a00003 	mov	r0, r3
a0000374:	e59f3084 	ldr	r3, [pc, #132]	; a0000400 <main+0x244>
a0000378:	e08f3003 	add	r3, pc, r3
a000037c:	e1a01003 	mov	r1, r3
a0000380:	e3a02b01 	mov	r2, #1024	; 0x400
a0000384:	e3a03000 	mov	r3, #0
a0000388:	eb0015ac 	bl	a0005a40 <xTaskGenericCreate>
a000038c:	e3a03003 	mov	r3, #3
a0000390:	e58d3000 	str	r3, [sp]
a0000394:	e3a03000 	mov	r3, #0
a0000398:	e58d3004 	str	r3, [sp, #4]
a000039c:	e3a03000 	mov	r3, #0
a00003a0:	e58d3008 	str	r3, [sp, #8]
a00003a4:	e3a03000 	mov	r3, #0
a00003a8:	e58d300c 	str	r3, [sp, #12]
a00003ac:	e59f3050 	ldr	r3, [pc, #80]	; a0000404 <main+0x248>
a00003b0:	e08f3003 	add	r3, pc, r3
a00003b4:	e1a00003 	mov	r0, r3
a00003b8:	e59f3048 	ldr	r3, [pc, #72]	; a0000408 <main+0x24c>
a00003bc:	e08f3003 	add	r3, pc, r3
a00003c0:	e1a01003 	mov	r1, r3
a00003c4:	e3a02b01 	mov	r2, #1024	; 0x400
a00003c8:	e3a03000 	mov	r3, #0
a00003cc:	eb00159b 	bl	a0005a40 <xTaskGenericCreate>
a00003d0:	eb001888 	bl	a00065f8 <vTaskStartScheduler>
a00003d4:	e3a03000 	mov	r3, #0
a00003d8:	e1a00003 	mov	r0, r3
a00003dc:	e28dd074 	add	sp, sp, #116	; 0x74
a00003e0:	e49df004 	pop	{pc}		; (ldr pc, [sp], #4)
a00003e4:	0000933c 	andeq	r9, r0, ip, lsr r3
a00003e8:	00009340 	andeq	r9, r0, r0, asr #6
a00003ec:	0000015c 	andeq	r0, r0, ip, asr r1
a00003f0:	00009240 	andeq	r9, r0, r0, asr #4
a00003f4:	000001f8 	strdeq	r0, [r0], -r8
a00003f8:	00009204 	andeq	r9, r0, r4, lsl #4
a00003fc:	00000210 	andeq	r0, r0, r0, lsl r2
a0000400:	000091c8 	andeq	r9, r0, r8, asr #3
a0000404:	00000228 	andeq	r0, r0, r8, lsr #4
a0000408:	0000918c 	andeq	r9, r0, ip, lsl #3

a000040c <vApplicationTickHook>:
a000040c:	e12fff1e 	bx	lr

a0000410 <vApplicationIdleHook>:
a0000410:	e12fff1e 	bx	lr

a0000414 <IdleCheck>:
a0000414:	e52de004 	push	{lr}		; (str lr, [sp, #-4]!)
a0000418:	e24dd014 	sub	sp, sp, #20
a000041c:	e58d0004 	str	r0, [sp, #4]
a0000420:	e3a03000 	mov	r3, #0
a0000424:	e58d300c 	str	r3, [sp, #12]
a0000428:	e3a03000 	mov	r3, #0
a000042c:	e58d300c 	str	r3, [sp, #12]
a0000430:	e3a00032 	mov	r0, #50	; 0x32
a0000434:	eb001691 	bl	a0005e80 <vTaskDelay>
a0000438:	e59d300c 	ldr	r3, [sp, #12]
a000043c:	e2833001 	add	r3, r3, #1
a0000440:	e58d300c 	str	r3, [sp, #12]
a0000444:	eafffff9 	b	a0000430 <IdleCheck+0x1c>

a0000448 <em_Check2>:
a0000448:	e52de004 	push	{lr}		; (str lr, [sp, #-4]!)
a000044c:	e24dd014 	sub	sp, sp, #20
a0000450:	e58d0004 	str	r0, [sp, #4]
a0000454:	e3a03000 	mov	r3, #0
a0000458:	e58d300c 	str	r3, [sp, #12]
a000045c:	e3a03b35 	mov	r3, #54272	; 0xd400
a0000460:	e3463000 	movt	r3, #24576	; 0x6000
a0000464:	e58d3008 	str	r3, [sp, #8]
a0000468:	e3a03000 	mov	r3, #0
a000046c:	e58d300c 	str	r3, [sp, #12]
a0000470:	e59d0008 	ldr	r0, [sp, #8]
a0000474:	e3a01003 	mov	r1, #3
a0000478:	e3a02005 	mov	r2, #5
a000047c:	e3a03001 	mov	r3, #1
a0000480:	eb0006b6 	bl	a0001f60 <qph_gpio_set_value>
a0000484:	e3a00014 	mov	r0, #20
a0000488:	eb00167c 	bl	a0005e80 <vTaskDelay>
a000048c:	e59d0008 	ldr	r0, [sp, #8]
a0000490:	e3a01003 	mov	r1, #3
a0000494:	e3a02005 	mov	r2, #5
a0000498:	e3a03000 	mov	r3, #0
a000049c:	eb0006af 	bl	a0001f60 <qph_gpio_set_value>
a00004a0:	e3a00014 	mov	r0, #20
a00004a4:	eb001675 	bl	a0005e80 <vTaskDelay>
a00004a8:	e59d300c 	ldr	r3, [sp, #12]
a00004ac:	e2833001 	add	r3, r3, #1
a00004b0:	e58d300c 	str	r3, [sp, #12]
a00004b4:	eaffffed 	b	a0000470 <em_Check2+0x28>

a00004b8 <em_Check3>:
a00004b8:	e52de004 	push	{lr}		; (str lr, [sp, #-4]!)
a00004bc:	e24dd014 	sub	sp, sp, #20
a00004c0:	e58d0004 	str	r0, [sp, #4]
a00004c4:	e3a03000 	mov	r3, #0
a00004c8:	e58d300c 	str	r3, [sp, #12]
a00004cc:	e3a03cd7 	mov	r3, #55040	; 0xd700
a00004d0:	e3463000 	movt	r3, #24576	; 0x6000
a00004d4:	e58d3008 	str	r3, [sp, #8]
a00004d8:	e3a03000 	mov	r3, #0
a00004dc:	e58d300c 	str	r3, [sp, #12]
a00004e0:	e59d0008 	ldr	r0, [sp, #8]
a00004e4:	e3a01003 	mov	r1, #3
a00004e8:	e3a02000 	mov	r2, #0
a00004ec:	e3a03001 	mov	r3, #1
a00004f0:	eb00069a 	bl	a0001f60 <qph_gpio_set_value>
a00004f4:	e3a00014 	mov	r0, #20
a00004f8:	eb001660 	bl	a0005e80 <vTaskDelay>
a00004fc:	e59d0008 	ldr	r0, [sp, #8]
a0000500:	e3a01003 	mov	r1, #3
a0000504:	e3a02000 	mov	r2, #0
a0000508:	e3a03000 	mov	r3, #0
a000050c:	eb000693 	bl	a0001f60 <qph_gpio_set_value>
a0000510:	e3a00014 	mov	r0, #20
a0000514:	eb001659 	bl	a0005e80 <vTaskDelay>
a0000518:	e59d300c 	ldr	r3, [sp, #12]
a000051c:	e2833001 	add	r3, r3, #1
a0000520:	e58d300c 	str	r3, [sp, #12]
a0000524:	eaffffed 	b	a00004e0 <em_Check3+0x28>

a0000528 <led0>:
a0000528:	e52de004 	push	{lr}		; (str lr, [sp, #-4]!)
a000052c:	e24dd014 	sub	sp, sp, #20
a0000530:	e58d0004 	str	r0, [sp, #4]
a0000534:	e3a03000 	mov	r3, #0
a0000538:	e58d300c 	str	r3, [sp, #12]
a000053c:	e3a03cd5 	mov	r3, #54528	; 0xd500
a0000540:	e3463000 	movt	r3, #24576	; 0x6000
a0000544:	e58d3008 	str	r3, [sp, #8]
a0000548:	e59d0008 	ldr	r0, [sp, #8]
a000054c:	e3a01000 	mov	r1, #0
a0000550:	e3a02000 	mov	r2, #0
a0000554:	e3a03001 	mov	r3, #1
a0000558:	eb000680 	bl	a0001f60 <qph_gpio_set_value>
a000055c:	e3a00014 	mov	r0, #20
a0000560:	eb001646 	bl	a0005e80 <vTaskDelay>
a0000564:	e59d0008 	ldr	r0, [sp, #8]
a0000568:	e3a01000 	mov	r1, #0
a000056c:	e3a02000 	mov	r2, #0
a0000570:	e3a03000 	mov	r3, #0
a0000574:	eb000679 	bl	a0001f60 <qph_gpio_set_value>
a0000578:	e3a00014 	mov	r0, #20
a000057c:	eb00163f 	bl	a0005e80 <vTaskDelay>
a0000580:	eafffff0 	b	a0000548 <led0+0x20>

a0000584 <led1>:
a0000584:	e52de004 	push	{lr}		; (str lr, [sp, #-4]!)
a0000588:	e24dd014 	sub	sp, sp, #20
a000058c:	e58d0004 	str	r0, [sp, #4]
a0000590:	e3a03000 	mov	r3, #0
a0000594:	e58d300c 	str	r3, [sp, #12]
a0000598:	e3a03cd5 	mov	r3, #54528	; 0xd500
a000059c:	e3463000 	movt	r3, #24576	; 0x6000
a00005a0:	e58d3008 	str	r3, [sp, #8]
a00005a4:	e59d0008 	ldr	r0, [sp, #8]
a00005a8:	e3a01000 	mov	r1, #0
a00005ac:	e3a02001 	mov	r2, #1
a00005b0:	e3a03001 	mov	r3, #1
a00005b4:	eb000669 	bl	a0001f60 <qph_gpio_set_value>
a00005b8:	e3a00019 	mov	r0, #25
a00005bc:	eb00162f 	bl	a0005e80 <vTaskDelay>
a00005c0:	e59d0008 	ldr	r0, [sp, #8]
a00005c4:	e3a01000 	mov	r1, #0
a00005c8:	e3a02001 	mov	r2, #1
a00005cc:	e3a03000 	mov	r3, #0
a00005d0:	eb000662 	bl	a0001f60 <qph_gpio_set_value>
a00005d4:	e3a00019 	mov	r0, #25
a00005d8:	eb001628 	bl	a0005e80 <vTaskDelay>
a00005dc:	eafffff0 	b	a00005a4 <led1+0x20>

a00005e0 <led2>:
a00005e0:	e52de004 	push	{lr}		; (str lr, [sp, #-4]!)
a00005e4:	e24dd014 	sub	sp, sp, #20
a00005e8:	e58d0004 	str	r0, [sp, #4]
a00005ec:	e3a03000 	mov	r3, #0
a00005f0:	e58d300c 	str	r3, [sp, #12]
a00005f4:	e3a03cd5 	mov	r3, #54528	; 0xd500
a00005f8:	e3463000 	movt	r3, #24576	; 0x6000
a00005fc:	e58d3008 	str	r3, [sp, #8]
a0000600:	e59d0008 	ldr	r0, [sp, #8]
a0000604:	e3a01000 	mov	r1, #0
a0000608:	e3a02002 	mov	r2, #2
a000060c:	e3a03001 	mov	r3, #1
a0000610:	eb000652 	bl	a0001f60 <qph_gpio_set_value>
a0000614:	e3a00096 	mov	r0, #150	; 0x96
a0000618:	eb001618 	bl	a0005e80 <vTaskDelay>
a000061c:	e59d0008 	ldr	r0, [sp, #8]
a0000620:	e3a01000 	mov	r1, #0
a0000624:	e3a02002 	mov	r2, #2
a0000628:	e3a03000 	mov	r3, #0
a000062c:	eb00064b 	bl	a0001f60 <qph_gpio_set_value>
a0000630:	e3a00096 	mov	r0, #150	; 0x96
a0000634:	eb001611 	bl	a0005e80 <vTaskDelay>
a0000638:	eafffff0 	b	a0000600 <led2+0x20>

a000063c <vCheckTask>:
a000063c:	e24dd008 	sub	sp, sp, #8
a0000640:	e58d0004 	str	r0, [sp, #4]
a0000644:	e28dd008 	add	sp, sp, #8
a0000648:	e12fff1e 	bx	lr

a000064c <prvSetupHardware>:
a000064c:	e92d4010 	push	{r4, lr}
a0000650:	e24dd050 	sub	sp, sp, #80	; 0x50
a0000654:	e59f4068 	ldr	r4, [pc, #104]	; a00006c4 <prvSetupHardware+0x78>
a0000658:	e08f4004 	add	r4, pc, r4
a000065c:	e3a03000 	mov	r3, #0
a0000660:	e58d304c 	str	r3, [sp, #76]	; 0x4c
a0000664:	eb0022b7 	bl	a0009148 <xPortSetInterruptMask>
a0000668:	e3a03000 	mov	r3, #0
a000066c:	e58d304c 	str	r3, [sp, #76]	; 0x4c
a0000670:	ea00000e 	b	a00006b0 <prvSetupHardware+0x64>
a0000674:	e59d304c 	ldr	r3, [sp, #76]	; 0x4c
a0000678:	e3a020a0 	mov	r2, #160	; 0xa0
a000067c:	e58d2000 	str	r2, [sp]
a0000680:	e3a02001 	mov	r2, #1
a0000684:	e58d2004 	str	r2, [sp, #4]
a0000688:	e59f2038 	ldr	r2, [pc, #56]	; a00006c8 <prvSetupHardware+0x7c>
a000068c:	e7942002 	ldr	r2, [r4, r2]
a0000690:	e1a00002 	mov	r0, r2
a0000694:	e1a01003 	mov	r1, r3
a0000698:	e59d204c 	ldr	r2, [sp, #76]	; 0x4c
a000069c:	e3a03001 	mov	r3, #1
a00006a0:	eb002196 	bl	a0008d00 <vPortInstallInterruptHandler>
a00006a4:	e59d304c 	ldr	r3, [sp, #76]	; 0x4c
a00006a8:	e2833001 	add	r3, r3, #1
a00006ac:	e58d304c 	str	r3, [sp, #76]	; 0x4c
a00006b0:	e59d304c 	ldr	r3, [sp, #76]	; 0x4c
a00006b4:	e353009f 	cmp	r3, #159	; 0x9f
a00006b8:	9affffed 	bls	a0000674 <prvSetupHardware+0x28>
a00006bc:	e28dd050 	add	sp, sp, #80	; 0x50
a00006c0:	e8bd8010 	pop	{r4, pc}
a00006c4:	00009048 	andeq	r9, r0, r8, asr #32
a00006c8:	00000020 	andeq	r0, r0, r0, lsr #32

a00006cc <vApplicationMallocFailedHook>:
a00006cc:	e1600070 	smc	0
a00006d0:	e12fff1e 	bx	lr

a00006d4 <write>:
a00006d4:	e24dd008 	sub	sp, sp, #8
a00006d8:	e58d0004 	str	r0, [sp, #4]
a00006dc:	e58d1000 	str	r1, [sp]
a00006e0:	e59d3004 	ldr	r3, [sp, #4]
a00006e4:	e59d2000 	ldr	r2, [sp]
a00006e8:	e5832000 	str	r2, [r3]
a00006ec:	e28dd008 	add	sp, sp, #8
a00006f0:	e12fff1e 	bx	lr

a00006f4 <read>:
a00006f4:	e24dd008 	sub	sp, sp, #8
a00006f8:	e58d0004 	str	r0, [sp, #4]
a00006fc:	e59d3004 	ldr	r3, [sp, #4]
a0000700:	e5933000 	ldr	r3, [r3]
a0000704:	e1a00003 	mov	r0, r3
a0000708:	e28dd008 	add	sp, sp, #8
a000070c:	e12fff1e 	bx	lr

a0000710 <gicd_enable_irq_forwarding>:
a0000710:	e92d4008 	push	{r3, lr}
a0000714:	e3a00a01 	mov	r0, #4096	; 0x1000
a0000718:	e3450004 	movt	r0, #20484	; 0x5004
a000071c:	e3a01001 	mov	r1, #1
a0000720:	ebffffeb 	bl	a00006d4 <write>
a0000724:	e8bd8008 	pop	{r3, pc}

a0000728 <gicd_disable_irq_forwarding>:
a0000728:	e92d4008 	push	{r3, lr}
a000072c:	e3a00a01 	mov	r0, #4096	; 0x1000
a0000730:	e3450004 	movt	r0, #20484	; 0x5004
a0000734:	e3a01000 	mov	r1, #0
a0000738:	ebffffe5 	bl	a00006d4 <write>
a000073c:	e8bd8008 	pop	{r3, pc}

a0000740 <write_GICD_CTLR>:
a0000740:	e52de004 	push	{lr}		; (str lr, [sp, #-4]!)
a0000744:	e24dd00c 	sub	sp, sp, #12
a0000748:	e58d0004 	str	r0, [sp, #4]
a000074c:	e59d3004 	ldr	r3, [sp, #4]
a0000750:	e3a00a01 	mov	r0, #4096	; 0x1000
a0000754:	e3450004 	movt	r0, #20484	; 0x5004
a0000758:	e1a01003 	mov	r1, r3
a000075c:	ebffffdc 	bl	a00006d4 <write>
a0000760:	e28dd00c 	add	sp, sp, #12
a0000764:	e49df004 	pop	{pc}		; (ldr pc, [sp], #4)

a0000768 <read_GICD_CTLR>:
a0000768:	e92d4008 	push	{r3, lr}
a000076c:	e3a00a01 	mov	r0, #4096	; 0x1000
a0000770:	e3450004 	movt	r0, #20484	; 0x5004
a0000774:	ebffffde 	bl	a00006f4 <read>
a0000778:	e1a03000 	mov	r3, r0
a000077c:	e1a00003 	mov	r0, r3
a0000780:	e8bd8008 	pop	{r3, pc}

a0000784 <write_GICD_TYPER>:
a0000784:	e52de004 	push	{lr}		; (str lr, [sp, #-4]!)
a0000788:	e24dd00c 	sub	sp, sp, #12
a000078c:	e58d0004 	str	r0, [sp, #4]
a0000790:	e59d3004 	ldr	r3, [sp, #4]
a0000794:	e3010004 	movw	r0, #4100	; 0x1004
a0000798:	e3450004 	movt	r0, #20484	; 0x5004
a000079c:	e1a01003 	mov	r1, r3
a00007a0:	ebffffcb 	bl	a00006d4 <write>
a00007a4:	e28dd00c 	add	sp, sp, #12
a00007a8:	e49df004 	pop	{pc}		; (ldr pc, [sp], #4)

a00007ac <read_GICD_TYPER>:
a00007ac:	e92d4008 	push	{r3, lr}
a00007b0:	e3010004 	movw	r0, #4100	; 0x1004
a00007b4:	e3450004 	movt	r0, #20484	; 0x5004
a00007b8:	ebffffcd 	bl	a00006f4 <read>
a00007bc:	e1a03000 	mov	r3, r0
a00007c0:	e1a00003 	mov	r0, r3
a00007c4:	e8bd8008 	pop	{r3, pc}

a00007c8 <write_GICD_IIDR>:
a00007c8:	e52de004 	push	{lr}		; (str lr, [sp, #-4]!)
a00007cc:	e24dd00c 	sub	sp, sp, #12
a00007d0:	e58d0004 	str	r0, [sp, #4]
a00007d4:	e59d3004 	ldr	r3, [sp, #4]
a00007d8:	e3010008 	movw	r0, #4104	; 0x1008
a00007dc:	e3450004 	movt	r0, #20484	; 0x5004
a00007e0:	e1a01003 	mov	r1, r3
a00007e4:	ebffffba 	bl	a00006d4 <write>
a00007e8:	e28dd00c 	add	sp, sp, #12
a00007ec:	e49df004 	pop	{pc}		; (ldr pc, [sp], #4)

a00007f0 <read_GICD_IIDR>:
a00007f0:	e92d4008 	push	{r3, lr}
a00007f4:	e3010008 	movw	r0, #4104	; 0x1008
a00007f8:	e3450004 	movt	r0, #20484	; 0x5004
a00007fc:	ebffffbc 	bl	a00006f4 <read>
a0000800:	e1a03000 	mov	r3, r0
a0000804:	e1a00003 	mov	r0, r3
a0000808:	e8bd8008 	pop	{r3, pc}

a000080c <gicd_set_enable_irq>:
a000080c:	e52de004 	push	{lr}		; (str lr, [sp, #-4]!)
a0000810:	e24dd01c 	sub	sp, sp, #28
a0000814:	e58d0004 	str	r0, [sp, #4]
a0000818:	e59d3004 	ldr	r3, [sp, #4]
a000081c:	e1a032c3 	asr	r3, r3, #5
a0000820:	e58d3014 	str	r3, [sp, #20]
a0000824:	e59d3004 	ldr	r3, [sp, #4]
a0000828:	e203301f 	and	r3, r3, #31
a000082c:	e58d3010 	str	r3, [sp, #16]
a0000830:	e3a02001 	mov	r2, #1
a0000834:	e59d3010 	ldr	r3, [sp, #16]
a0000838:	e1a03312 	lsl	r3, r2, r3
a000083c:	e58d300c 	str	r3, [sp, #12]
a0000840:	e59d2014 	ldr	r2, [sp, #20]
a0000844:	e3a03d11 	mov	r3, #1088	; 0x440
a0000848:	e3413401 	movt	r3, #5121	; 0x1401
a000084c:	e0823003 	add	r3, r2, r3
a0000850:	e1a03103 	lsl	r3, r3, #2
a0000854:	e1a02003 	mov	r2, r3
a0000858:	e59d300c 	ldr	r3, [sp, #12]
a000085c:	e1a00002 	mov	r0, r2
a0000860:	e1a01003 	mov	r1, r3
a0000864:	ebffff9a 	bl	a00006d4 <write>
a0000868:	e28dd01c 	add	sp, sp, #28
a000086c:	e49df004 	pop	{pc}		; (ldr pc, [sp], #4)

a0000870 <gicd_clr_enable_irq>:
a0000870:	e52de004 	push	{lr}		; (str lr, [sp, #-4]!)
a0000874:	e24dd01c 	sub	sp, sp, #28
a0000878:	e58d0004 	str	r0, [sp, #4]
a000087c:	e59d3004 	ldr	r3, [sp, #4]
a0000880:	e1a032c3 	asr	r3, r3, #5
a0000884:	e58d3014 	str	r3, [sp, #20]
a0000888:	e59d3004 	ldr	r3, [sp, #4]
a000088c:	e203301f 	and	r3, r3, #31
a0000890:	e58d3010 	str	r3, [sp, #16]
a0000894:	e3a02001 	mov	r2, #1
a0000898:	e59d3010 	ldr	r3, [sp, #16]
a000089c:	e1a03312 	lsl	r3, r2, r3
a00008a0:	e58d300c 	str	r3, [sp, #12]
a00008a4:	e59d2014 	ldr	r2, [sp, #20]
a00008a8:	e3a03e46 	mov	r3, #1120	; 0x460
a00008ac:	e3413401 	movt	r3, #5121	; 0x1401
a00008b0:	e0823003 	add	r3, r2, r3
a00008b4:	e1a03103 	lsl	r3, r3, #2
a00008b8:	e1a02003 	mov	r2, r3
a00008bc:	e59d300c 	ldr	r3, [sp, #12]
a00008c0:	e1a00002 	mov	r0, r2
a00008c4:	e1a01003 	mov	r1, r3
a00008c8:	ebffff81 	bl	a00006d4 <write>
a00008cc:	e28dd01c 	add	sp, sp, #28
a00008d0:	e49df004 	pop	{pc}		; (ldr pc, [sp], #4)

a00008d4 <write_GICD_ISENABLER>:
a00008d4:	e52de004 	push	{lr}		; (str lr, [sp, #-4]!)
a00008d8:	e24dd00c 	sub	sp, sp, #12
a00008dc:	e58d0004 	str	r0, [sp, #4]
a00008e0:	e58d1000 	str	r1, [sp]
a00008e4:	e59d2004 	ldr	r2, [sp, #4]
a00008e8:	e3a03d11 	mov	r3, #1088	; 0x440
a00008ec:	e3413401 	movt	r3, #5121	; 0x1401
a00008f0:	e0823003 	add	r3, r2, r3
a00008f4:	e1a03103 	lsl	r3, r3, #2
a00008f8:	e1a02003 	mov	r2, r3
a00008fc:	e59d3000 	ldr	r3, [sp]
a0000900:	e1a00002 	mov	r0, r2
a0000904:	e1a01003 	mov	r1, r3
a0000908:	ebffff71 	bl	a00006d4 <write>
a000090c:	e28dd00c 	add	sp, sp, #12
a0000910:	e49df004 	pop	{pc}		; (ldr pc, [sp], #4)

a0000914 <write_GICD_ICENABLER>:
a0000914:	e52de004 	push	{lr}		; (str lr, [sp, #-4]!)
a0000918:	e24dd00c 	sub	sp, sp, #12
a000091c:	e58d0004 	str	r0, [sp, #4]
a0000920:	e58d1000 	str	r1, [sp]
a0000924:	e59d2004 	ldr	r2, [sp, #4]
a0000928:	e3a03e46 	mov	r3, #1120	; 0x460
a000092c:	e3413401 	movt	r3, #5121	; 0x1401
a0000930:	e0823003 	add	r3, r2, r3
a0000934:	e1a03103 	lsl	r3, r3, #2
a0000938:	e1a02003 	mov	r2, r3
a000093c:	e59d3000 	ldr	r3, [sp]
a0000940:	e1a00002 	mov	r0, r2
a0000944:	e1a01003 	mov	r1, r3
a0000948:	ebffff61 	bl	a00006d4 <write>
a000094c:	e28dd00c 	add	sp, sp, #12
a0000950:	e49df004 	pop	{pc}		; (ldr pc, [sp], #4)

a0000954 <read_GICD_ISENABLER>:
a0000954:	e52de004 	push	{lr}		; (str lr, [sp, #-4]!)
a0000958:	e24dd00c 	sub	sp, sp, #12
a000095c:	e58d0004 	str	r0, [sp, #4]
a0000960:	e59d2004 	ldr	r2, [sp, #4]
a0000964:	e3a03d11 	mov	r3, #1088	; 0x440
a0000968:	e3413401 	movt	r3, #5121	; 0x1401
a000096c:	e0823003 	add	r3, r2, r3
a0000970:	e1a03103 	lsl	r3, r3, #2
a0000974:	e1a00003 	mov	r0, r3
a0000978:	ebffff5d 	bl	a00006f4 <read>
a000097c:	e1a03000 	mov	r3, r0
a0000980:	e1a00003 	mov	r0, r3
a0000984:	e28dd00c 	add	sp, sp, #12
a0000988:	e49df004 	pop	{pc}		; (ldr pc, [sp], #4)

a000098c <read_GICD_ICENABLER>:
a000098c:	e52de004 	push	{lr}		; (str lr, [sp, #-4]!)
a0000990:	e24dd00c 	sub	sp, sp, #12
a0000994:	e58d0004 	str	r0, [sp, #4]
a0000998:	e59d2004 	ldr	r2, [sp, #4]
a000099c:	e3a03e46 	mov	r3, #1120	; 0x460
a00009a0:	e3413401 	movt	r3, #5121	; 0x1401
a00009a4:	e0823003 	add	r3, r2, r3
a00009a8:	e1a03103 	lsl	r3, r3, #2
a00009ac:	e1a00003 	mov	r0, r3
a00009b0:	ebffff4f 	bl	a00006f4 <read>
a00009b4:	e1a03000 	mov	r3, r0
a00009b8:	e1a00003 	mov	r0, r3
a00009bc:	e28dd00c 	add	sp, sp, #12
a00009c0:	e49df004 	pop	{pc}		; (ldr pc, [sp], #4)

a00009c4 <gicd_set_pending_irq>:
a00009c4:	e52de004 	push	{lr}		; (str lr, [sp, #-4]!)
a00009c8:	e24dd01c 	sub	sp, sp, #28
a00009cc:	e58d0004 	str	r0, [sp, #4]
a00009d0:	e59d3004 	ldr	r3, [sp, #4]
a00009d4:	e1a032c3 	asr	r3, r3, #5
a00009d8:	e58d3014 	str	r3, [sp, #20]
a00009dc:	e59d3004 	ldr	r3, [sp, #4]
a00009e0:	e203301f 	and	r3, r3, #31
a00009e4:	e58d3010 	str	r3, [sp, #16]
a00009e8:	e59d2014 	ldr	r2, [sp, #20]
a00009ec:	e3a03d12 	mov	r3, #1152	; 0x480
a00009f0:	e3413401 	movt	r3, #5121	; 0x1401
a00009f4:	e0823003 	add	r3, r2, r3
a00009f8:	e1a03103 	lsl	r3, r3, #2
a00009fc:	e1a00003 	mov	r0, r3
a0000a00:	ebffff3b 	bl	a00006f4 <read>
a0000a04:	e58d000c 	str	r0, [sp, #12]
a0000a08:	e3a02001 	mov	r2, #1
a0000a0c:	e59d3010 	ldr	r3, [sp, #16]
a0000a10:	e1a03312 	lsl	r3, r2, r3
a0000a14:	e59d200c 	ldr	r2, [sp, #12]
a0000a18:	e1823003 	orr	r3, r2, r3
a0000a1c:	e58d300c 	str	r3, [sp, #12]
a0000a20:	e59d2014 	ldr	r2, [sp, #20]
a0000a24:	e3a03d12 	mov	r3, #1152	; 0x480
a0000a28:	e3413401 	movt	r3, #5121	; 0x1401
a0000a2c:	e0823003 	add	r3, r2, r3
a0000a30:	e1a03103 	lsl	r3, r3, #2
a0000a34:	e1a02003 	mov	r2, r3
a0000a38:	e59d300c 	ldr	r3, [sp, #12]
a0000a3c:	e1a00002 	mov	r0, r2
a0000a40:	e1a01003 	mov	r1, r3
a0000a44:	ebffff22 	bl	a00006d4 <write>
a0000a48:	e28dd01c 	add	sp, sp, #28
a0000a4c:	e49df004 	pop	{pc}		; (ldr pc, [sp], #4)

a0000a50 <gicd_clr_pending_irq>:
a0000a50:	e52de004 	push	{lr}		; (str lr, [sp, #-4]!)
a0000a54:	e24dd01c 	sub	sp, sp, #28
a0000a58:	e58d0004 	str	r0, [sp, #4]
a0000a5c:	e59d3004 	ldr	r3, [sp, #4]
a0000a60:	e1a032c3 	asr	r3, r3, #5
a0000a64:	e58d3014 	str	r3, [sp, #20]
a0000a68:	e59d3004 	ldr	r3, [sp, #4]
a0000a6c:	e203301f 	and	r3, r3, #31
a0000a70:	e58d3010 	str	r3, [sp, #16]
a0000a74:	e59d2014 	ldr	r2, [sp, #20]
a0000a78:	e3a03e4a 	mov	r3, #1184	; 0x4a0
a0000a7c:	e3413401 	movt	r3, #5121	; 0x1401
a0000a80:	e0823003 	add	r3, r2, r3
a0000a84:	e1a03103 	lsl	r3, r3, #2
a0000a88:	e1a00003 	mov	r0, r3
a0000a8c:	ebffff18 	bl	a00006f4 <read>
a0000a90:	e58d000c 	str	r0, [sp, #12]
a0000a94:	e3a02001 	mov	r2, #1
a0000a98:	e59d3010 	ldr	r3, [sp, #16]
a0000a9c:	e1a03312 	lsl	r3, r2, r3
a0000aa0:	e59d200c 	ldr	r2, [sp, #12]
a0000aa4:	e1823003 	orr	r3, r2, r3
a0000aa8:	e58d300c 	str	r3, [sp, #12]
a0000aac:	e59d2014 	ldr	r2, [sp, #20]
a0000ab0:	e3a03e4a 	mov	r3, #1184	; 0x4a0
a0000ab4:	e3413401 	movt	r3, #5121	; 0x1401
a0000ab8:	e0823003 	add	r3, r2, r3
a0000abc:	e1a03103 	lsl	r3, r3, #2
a0000ac0:	e1a02003 	mov	r2, r3
a0000ac4:	e59d300c 	ldr	r3, [sp, #12]
a0000ac8:	e1a00002 	mov	r0, r2
a0000acc:	e1a01003 	mov	r1, r3
a0000ad0:	ebfffeff 	bl	a00006d4 <write>
a0000ad4:	e28dd01c 	add	sp, sp, #28
a0000ad8:	e49df004 	pop	{pc}		; (ldr pc, [sp], #4)

a0000adc <write_GICD_ISPENDR>:
a0000adc:	e52de004 	push	{lr}		; (str lr, [sp, #-4]!)
a0000ae0:	e24dd00c 	sub	sp, sp, #12
a0000ae4:	e58d0004 	str	r0, [sp, #4]
a0000ae8:	e58d1000 	str	r1, [sp]
a0000aec:	e59d2004 	ldr	r2, [sp, #4]
a0000af0:	e3a03d12 	mov	r3, #1152	; 0x480
a0000af4:	e3413401 	movt	r3, #5121	; 0x1401
a0000af8:	e0823003 	add	r3, r2, r3
a0000afc:	e1a03103 	lsl	r3, r3, #2
a0000b00:	e1a02003 	mov	r2, r3
a0000b04:	e59d3000 	ldr	r3, [sp]
a0000b08:	e1a00002 	mov	r0, r2
a0000b0c:	e1a01003 	mov	r1, r3
a0000b10:	ebfffeef 	bl	a00006d4 <write>
a0000b14:	e28dd00c 	add	sp, sp, #12
a0000b18:	e49df004 	pop	{pc}		; (ldr pc, [sp], #4)

a0000b1c <write_GICD_ICPENDR>:
a0000b1c:	e52de004 	push	{lr}		; (str lr, [sp, #-4]!)
a0000b20:	e24dd00c 	sub	sp, sp, #12
a0000b24:	e58d0004 	str	r0, [sp, #4]
a0000b28:	e58d1000 	str	r1, [sp]
a0000b2c:	e59d2004 	ldr	r2, [sp, #4]
a0000b30:	e3a03e4a 	mov	r3, #1184	; 0x4a0
a0000b34:	e3413401 	movt	r3, #5121	; 0x1401
a0000b38:	e0823003 	add	r3, r2, r3
a0000b3c:	e1a03103 	lsl	r3, r3, #2
a0000b40:	e1a02003 	mov	r2, r3
a0000b44:	e59d3000 	ldr	r3, [sp]
a0000b48:	e1a00002 	mov	r0, r2
a0000b4c:	e1a01003 	mov	r1, r3
a0000b50:	ebfffedf 	bl	a00006d4 <write>
a0000b54:	e28dd00c 	add	sp, sp, #12
a0000b58:	e49df004 	pop	{pc}		; (ldr pc, [sp], #4)

a0000b5c <read_GICD_ISPENDR>:
a0000b5c:	e52de004 	push	{lr}		; (str lr, [sp, #-4]!)
a0000b60:	e24dd00c 	sub	sp, sp, #12
a0000b64:	e58d0004 	str	r0, [sp, #4]
a0000b68:	e59d2004 	ldr	r2, [sp, #4]
a0000b6c:	e3a03d12 	mov	r3, #1152	; 0x480
a0000b70:	e3413401 	movt	r3, #5121	; 0x1401
a0000b74:	e0823003 	add	r3, r2, r3
a0000b78:	e1a03103 	lsl	r3, r3, #2
a0000b7c:	e1a00003 	mov	r0, r3
a0000b80:	ebfffedb 	bl	a00006f4 <read>
a0000b84:	e1a03000 	mov	r3, r0
a0000b88:	e1a00003 	mov	r0, r3
a0000b8c:	e28dd00c 	add	sp, sp, #12
a0000b90:	e49df004 	pop	{pc}		; (ldr pc, [sp], #4)

a0000b94 <read_GICD_ICPENDR>:
a0000b94:	e52de004 	push	{lr}		; (str lr, [sp, #-4]!)
a0000b98:	e24dd00c 	sub	sp, sp, #12
a0000b9c:	e58d0004 	str	r0, [sp, #4]
a0000ba0:	e59d2004 	ldr	r2, [sp, #4]
a0000ba4:	e3a03e4a 	mov	r3, #1184	; 0x4a0
a0000ba8:	e3413401 	movt	r3, #5121	; 0x1401
a0000bac:	e0823003 	add	r3, r2, r3
a0000bb0:	e1a03103 	lsl	r3, r3, #2
a0000bb4:	e1a00003 	mov	r0, r3
a0000bb8:	ebfffecd 	bl	a00006f4 <read>
a0000bbc:	e1a03000 	mov	r3, r0
a0000bc0:	e1a00003 	mov	r0, r3
a0000bc4:	e28dd00c 	add	sp, sp, #12
a0000bc8:	e49df004 	pop	{pc}		; (ldr pc, [sp], #4)

a0000bcc <gicd_set_active_irq>:
a0000bcc:	e52de004 	push	{lr}		; (str lr, [sp, #-4]!)
a0000bd0:	e24dd01c 	sub	sp, sp, #28
a0000bd4:	e58d0004 	str	r0, [sp, #4]
a0000bd8:	e59d3004 	ldr	r3, [sp, #4]
a0000bdc:	e1a032c3 	asr	r3, r3, #5
a0000be0:	e58d3014 	str	r3, [sp, #20]
a0000be4:	e59d3004 	ldr	r3, [sp, #4]
a0000be8:	e203301f 	and	r3, r3, #31
a0000bec:	e58d3010 	str	r3, [sp, #16]
a0000bf0:	e59d2014 	ldr	r2, [sp, #20]
a0000bf4:	e3a03d13 	mov	r3, #1216	; 0x4c0
a0000bf8:	e3413401 	movt	r3, #5121	; 0x1401
a0000bfc:	e0823003 	add	r3, r2, r3
a0000c00:	e1a03103 	lsl	r3, r3, #2
a0000c04:	e1a00003 	mov	r0, r3
a0000c08:	ebfffeb9 	bl	a00006f4 <read>
a0000c0c:	e58d000c 	str	r0, [sp, #12]
a0000c10:	e3a02001 	mov	r2, #1
a0000c14:	e59d3010 	ldr	r3, [sp, #16]
a0000c18:	e1a03312 	lsl	r3, r2, r3
a0000c1c:	e59d200c 	ldr	r2, [sp, #12]
a0000c20:	e1823003 	orr	r3, r2, r3
a0000c24:	e58d300c 	str	r3, [sp, #12]
a0000c28:	e59d2014 	ldr	r2, [sp, #20]
a0000c2c:	e3a03d13 	mov	r3, #1216	; 0x4c0
a0000c30:	e3413401 	movt	r3, #5121	; 0x1401
a0000c34:	e0823003 	add	r3, r2, r3
a0000c38:	e1a03103 	lsl	r3, r3, #2
a0000c3c:	e1a02003 	mov	r2, r3
a0000c40:	e59d300c 	ldr	r3, [sp, #12]
a0000c44:	e1a00002 	mov	r0, r2
a0000c48:	e1a01003 	mov	r1, r3
a0000c4c:	ebfffea0 	bl	a00006d4 <write>
a0000c50:	e28dd01c 	add	sp, sp, #28
a0000c54:	e49df004 	pop	{pc}		; (ldr pc, [sp], #4)

a0000c58 <gicd_clr_active_irq>:
a0000c58:	e52de004 	push	{lr}		; (str lr, [sp, #-4]!)
a0000c5c:	e24dd01c 	sub	sp, sp, #28
a0000c60:	e58d0004 	str	r0, [sp, #4]
a0000c64:	e59d3004 	ldr	r3, [sp, #4]
a0000c68:	e1a032c3 	asr	r3, r3, #5
a0000c6c:	e58d3014 	str	r3, [sp, #20]
a0000c70:	e59d3004 	ldr	r3, [sp, #4]
a0000c74:	e203301f 	and	r3, r3, #31
a0000c78:	e58d3010 	str	r3, [sp, #16]
a0000c7c:	e59d2014 	ldr	r2, [sp, #20]
a0000c80:	e3a03e4e 	mov	r3, #1248	; 0x4e0
a0000c84:	e3413401 	movt	r3, #5121	; 0x1401
a0000c88:	e0823003 	add	r3, r2, r3
a0000c8c:	e1a03103 	lsl	r3, r3, #2
a0000c90:	e1a00003 	mov	r0, r3
a0000c94:	ebfffe96 	bl	a00006f4 <read>
a0000c98:	e58d000c 	str	r0, [sp, #12]
a0000c9c:	e3a02001 	mov	r2, #1
a0000ca0:	e59d3010 	ldr	r3, [sp, #16]
a0000ca4:	e1a03312 	lsl	r3, r2, r3
a0000ca8:	e59d200c 	ldr	r2, [sp, #12]
a0000cac:	e1823003 	orr	r3, r2, r3
a0000cb0:	e58d300c 	str	r3, [sp, #12]
a0000cb4:	e59d2014 	ldr	r2, [sp, #20]
a0000cb8:	e3a03e4e 	mov	r3, #1248	; 0x4e0
a0000cbc:	e3413401 	movt	r3, #5121	; 0x1401
a0000cc0:	e0823003 	add	r3, r2, r3
a0000cc4:	e1a03103 	lsl	r3, r3, #2
a0000cc8:	e1a02003 	mov	r2, r3
a0000ccc:	e59d300c 	ldr	r3, [sp, #12]
a0000cd0:	e1a00002 	mov	r0, r2
a0000cd4:	e1a01003 	mov	r1, r3
a0000cd8:	ebfffe7d 	bl	a00006d4 <write>
a0000cdc:	e28dd01c 	add	sp, sp, #28
a0000ce0:	e49df004 	pop	{pc}		; (ldr pc, [sp], #4)

a0000ce4 <write_GICD_ISACTIVER>:
a0000ce4:	e52de004 	push	{lr}		; (str lr, [sp, #-4]!)
a0000ce8:	e24dd00c 	sub	sp, sp, #12
a0000cec:	e58d0004 	str	r0, [sp, #4]
a0000cf0:	e58d1000 	str	r1, [sp]
a0000cf4:	e59d2004 	ldr	r2, [sp, #4]
a0000cf8:	e3a03d13 	mov	r3, #1216	; 0x4c0
a0000cfc:	e3413401 	movt	r3, #5121	; 0x1401
a0000d00:	e0823003 	add	r3, r2, r3
a0000d04:	e1a03103 	lsl	r3, r3, #2
a0000d08:	e1a02003 	mov	r2, r3
a0000d0c:	e59d3000 	ldr	r3, [sp]
a0000d10:	e1a00002 	mov	r0, r2
a0000d14:	e1a01003 	mov	r1, r3
a0000d18:	ebfffe6d 	bl	a00006d4 <write>
a0000d1c:	e28dd00c 	add	sp, sp, #12
a0000d20:	e49df004 	pop	{pc}		; (ldr pc, [sp], #4)

a0000d24 <write_GICD_ICACTIVER>:
a0000d24:	e52de004 	push	{lr}		; (str lr, [sp, #-4]!)
a0000d28:	e24dd00c 	sub	sp, sp, #12
a0000d2c:	e58d0004 	str	r0, [sp, #4]
a0000d30:	e58d1000 	str	r1, [sp]
a0000d34:	e59d2004 	ldr	r2, [sp, #4]
a0000d38:	e3a03e4e 	mov	r3, #1248	; 0x4e0
a0000d3c:	e3413401 	movt	r3, #5121	; 0x1401
a0000d40:	e0823003 	add	r3, r2, r3
a0000d44:	e1a03103 	lsl	r3, r3, #2
a0000d48:	e1a02003 	mov	r2, r3
a0000d4c:	e59d3000 	ldr	r3, [sp]
a0000d50:	e1a00002 	mov	r0, r2
a0000d54:	e1a01003 	mov	r1, r3
a0000d58:	ebfffe5d 	bl	a00006d4 <write>
a0000d5c:	e28dd00c 	add	sp, sp, #12
a0000d60:	e49df004 	pop	{pc}		; (ldr pc, [sp], #4)

a0000d64 <read_GICD_ISACTIVER>:
a0000d64:	e52de004 	push	{lr}		; (str lr, [sp, #-4]!)
a0000d68:	e24dd00c 	sub	sp, sp, #12
a0000d6c:	e58d0004 	str	r0, [sp, #4]
a0000d70:	e59d2004 	ldr	r2, [sp, #4]
a0000d74:	e3a03d13 	mov	r3, #1216	; 0x4c0
a0000d78:	e3413401 	movt	r3, #5121	; 0x1401
a0000d7c:	e0823003 	add	r3, r2, r3
a0000d80:	e1a03103 	lsl	r3, r3, #2
a0000d84:	e1a00003 	mov	r0, r3
a0000d88:	ebfffe59 	bl	a00006f4 <read>
a0000d8c:	e1a03000 	mov	r3, r0
a0000d90:	e1a00003 	mov	r0, r3
a0000d94:	e28dd00c 	add	sp, sp, #12
a0000d98:	e49df004 	pop	{pc}		; (ldr pc, [sp], #4)

a0000d9c <read_GICD_ICACTIVER>:
a0000d9c:	e52de004 	push	{lr}		; (str lr, [sp, #-4]!)
a0000da0:	e24dd00c 	sub	sp, sp, #12
a0000da4:	e58d0004 	str	r0, [sp, #4]
a0000da8:	e59d2004 	ldr	r2, [sp, #4]
a0000dac:	e3a03e4e 	mov	r3, #1248	; 0x4e0
a0000db0:	e3413401 	movt	r3, #5121	; 0x1401
a0000db4:	e0823003 	add	r3, r2, r3
a0000db8:	e1a03103 	lsl	r3, r3, #2
a0000dbc:	e1a00003 	mov	r0, r3
a0000dc0:	ebfffe4b 	bl	a00006f4 <read>
a0000dc4:	e1a03000 	mov	r3, r0
a0000dc8:	e1a00003 	mov	r0, r3
a0000dcc:	e28dd00c 	add	sp, sp, #12
a0000dd0:	e49df004 	pop	{pc}		; (ldr pc, [sp], #4)

a0000dd4 <gicd_set_priority_irq>:
a0000dd4:	e52de004 	push	{lr}		; (str lr, [sp, #-4]!)
a0000dd8:	e24dd01c 	sub	sp, sp, #28
a0000ddc:	e58d0004 	str	r0, [sp, #4]
a0000de0:	e58d1000 	str	r1, [sp]
a0000de4:	e59d3004 	ldr	r3, [sp, #4]
a0000de8:	e1a03143 	asr	r3, r3, #2
a0000dec:	e58d3014 	str	r3, [sp, #20]
a0000df0:	e59d3004 	ldr	r3, [sp, #4]
a0000df4:	e2033003 	and	r3, r3, #3
a0000df8:	e1a03183 	lsl	r3, r3, #3
a0000dfc:	e58d3010 	str	r3, [sp, #16]
a0000e00:	e59d2014 	ldr	r2, [sp, #20]
a0000e04:	e3a03c05 	mov	r3, #1280	; 0x500
a0000e08:	e3413401 	movt	r3, #5121	; 0x1401
a0000e0c:	e0823003 	add	r3, r2, r3
a0000e10:	e1a03103 	lsl	r3, r3, #2
a0000e14:	e1a00003 	mov	r0, r3
a0000e18:	ebfffe35 	bl	a00006f4 <read>
a0000e1c:	e58d000c 	str	r0, [sp, #12]
a0000e20:	e3a020ff 	mov	r2, #255	; 0xff
a0000e24:	e59d3010 	ldr	r3, [sp, #16]
a0000e28:	e1a03312 	lsl	r3, r2, r3
a0000e2c:	e58d3008 	str	r3, [sp, #8]
a0000e30:	e59d3008 	ldr	r3, [sp, #8]
a0000e34:	e1e03003 	mvn	r3, r3
a0000e38:	e59d200c 	ldr	r2, [sp, #12]
a0000e3c:	e0023003 	and	r3, r2, r3
a0000e40:	e58d300c 	str	r3, [sp, #12]
a0000e44:	e59d3000 	ldr	r3, [sp]
a0000e48:	e6ef2073 	uxtb	r2, r3
a0000e4c:	e59d3010 	ldr	r3, [sp, #16]
a0000e50:	e1a03312 	lsl	r3, r2, r3
a0000e54:	e59d200c 	ldr	r2, [sp, #12]
a0000e58:	e1823003 	orr	r3, r2, r3
a0000e5c:	e58d300c 	str	r3, [sp, #12]
a0000e60:	e59d2014 	ldr	r2, [sp, #20]
a0000e64:	e3a03c05 	mov	r3, #1280	; 0x500
a0000e68:	e3413401 	movt	r3, #5121	; 0x1401
a0000e6c:	e0823003 	add	r3, r2, r3
a0000e70:	e1a03103 	lsl	r3, r3, #2
a0000e74:	e1a02003 	mov	r2, r3
a0000e78:	e59d300c 	ldr	r3, [sp, #12]
a0000e7c:	e1a00002 	mov	r0, r2
a0000e80:	e1a01003 	mov	r1, r3
a0000e84:	ebfffe12 	bl	a00006d4 <write>
a0000e88:	e28dd01c 	add	sp, sp, #28
a0000e8c:	e49df004 	pop	{pc}		; (ldr pc, [sp], #4)

a0000e90 <write_GICD_IPRIORITYR>:
a0000e90:	e52de004 	push	{lr}		; (str lr, [sp, #-4]!)
a0000e94:	e24dd00c 	sub	sp, sp, #12
a0000e98:	e58d0004 	str	r0, [sp, #4]
a0000e9c:	e58d1000 	str	r1, [sp]
a0000ea0:	e59d2004 	ldr	r2, [sp, #4]
a0000ea4:	e3a03c05 	mov	r3, #1280	; 0x500
a0000ea8:	e3413401 	movt	r3, #5121	; 0x1401
a0000eac:	e0823003 	add	r3, r2, r3
a0000eb0:	e1a03103 	lsl	r3, r3, #2
a0000eb4:	e1a02003 	mov	r2, r3
a0000eb8:	e59d3000 	ldr	r3, [sp]
a0000ebc:	e1a00002 	mov	r0, r2
a0000ec0:	e1a01003 	mov	r1, r3
a0000ec4:	ebfffe02 	bl	a00006d4 <write>
a0000ec8:	e28dd00c 	add	sp, sp, #12
a0000ecc:	e49df004 	pop	{pc}		; (ldr pc, [sp], #4)

a0000ed0 <read_GICD_IPRIORITYR>:
a0000ed0:	e52de004 	push	{lr}		; (str lr, [sp, #-4]!)
a0000ed4:	e24dd00c 	sub	sp, sp, #12
a0000ed8:	e58d0004 	str	r0, [sp, #4]
a0000edc:	e59d2004 	ldr	r2, [sp, #4]
a0000ee0:	e3a03c05 	mov	r3, #1280	; 0x500
a0000ee4:	e3413401 	movt	r3, #5121	; 0x1401
a0000ee8:	e0823003 	add	r3, r2, r3
a0000eec:	e1a03103 	lsl	r3, r3, #2
a0000ef0:	e1a00003 	mov	r0, r3
a0000ef4:	ebfffdfe 	bl	a00006f4 <read>
a0000ef8:	e1a03000 	mov	r3, r0
a0000efc:	e1a00003 	mov	r0, r3
a0000f00:	e28dd00c 	add	sp, sp, #12
a0000f04:	e49df004 	pop	{pc}		; (ldr pc, [sp], #4)

a0000f08 <gicd_set_target_irq>:
a0000f08:	e52de004 	push	{lr}		; (str lr, [sp, #-4]!)
a0000f0c:	e24dd01c 	sub	sp, sp, #28
a0000f10:	e58d0004 	str	r0, [sp, #4]
a0000f14:	e58d1000 	str	r1, [sp]
a0000f18:	e59d3004 	ldr	r3, [sp, #4]
a0000f1c:	e1a03143 	asr	r3, r3, #2
a0000f20:	e58d3014 	str	r3, [sp, #20]
a0000f24:	e59d3004 	ldr	r3, [sp, #4]
a0000f28:	e2033003 	and	r3, r3, #3
a0000f2c:	e1a03183 	lsl	r3, r3, #3
a0000f30:	e58d3010 	str	r3, [sp, #16]
a0000f34:	e59d2014 	ldr	r2, [sp, #20]
a0000f38:	e3a03c06 	mov	r3, #1536	; 0x600
a0000f3c:	e3413401 	movt	r3, #5121	; 0x1401
a0000f40:	e0823003 	add	r3, r2, r3
a0000f44:	e1a03103 	lsl	r3, r3, #2
a0000f48:	e1a00003 	mov	r0, r3
a0000f4c:	ebfffde8 	bl	a00006f4 <read>
a0000f50:	e58d000c 	str	r0, [sp, #12]
a0000f54:	e3a02001 	mov	r2, #1
a0000f58:	e59d3000 	ldr	r3, [sp]
a0000f5c:	e1a02312 	lsl	r2, r2, r3
a0000f60:	e59d3010 	ldr	r3, [sp, #16]
a0000f64:	e1a03312 	lsl	r3, r2, r3
a0000f68:	e59d200c 	ldr	r2, [sp, #12]
a0000f6c:	e1823003 	orr	r3, r2, r3
a0000f70:	e58d300c 	str	r3, [sp, #12]
a0000f74:	e59d2014 	ldr	r2, [sp, #20]
a0000f78:	e3a03c06 	mov	r3, #1536	; 0x600
a0000f7c:	e3413401 	movt	r3, #5121	; 0x1401
a0000f80:	e0823003 	add	r3, r2, r3
a0000f84:	e1a03103 	lsl	r3, r3, #2
a0000f88:	e1a02003 	mov	r2, r3
a0000f8c:	e59d300c 	ldr	r3, [sp, #12]
a0000f90:	e1a00002 	mov	r0, r2
a0000f94:	e1a01003 	mov	r1, r3
a0000f98:	ebfffdcd 	bl	a00006d4 <write>
a0000f9c:	e28dd01c 	add	sp, sp, #28
a0000fa0:	e49df004 	pop	{pc}		; (ldr pc, [sp], #4)

a0000fa4 <gicd_clr_target_irq>:
a0000fa4:	e52de004 	push	{lr}		; (str lr, [sp, #-4]!)
a0000fa8:	e24dd01c 	sub	sp, sp, #28
a0000fac:	e58d0004 	str	r0, [sp, #4]
a0000fb0:	e58d1000 	str	r1, [sp]
a0000fb4:	e59d3004 	ldr	r3, [sp, #4]
a0000fb8:	e1a03143 	asr	r3, r3, #2
a0000fbc:	e58d3014 	str	r3, [sp, #20]
a0000fc0:	e59d3004 	ldr	r3, [sp, #4]
a0000fc4:	e2033003 	and	r3, r3, #3
a0000fc8:	e1a03183 	lsl	r3, r3, #3
a0000fcc:	e58d3010 	str	r3, [sp, #16]
a0000fd0:	e59d2014 	ldr	r2, [sp, #20]
a0000fd4:	e3a03c06 	mov	r3, #1536	; 0x600
a0000fd8:	e3413401 	movt	r3, #5121	; 0x1401
a0000fdc:	e0823003 	add	r3, r2, r3
a0000fe0:	e1a03103 	lsl	r3, r3, #2
a0000fe4:	e1a00003 	mov	r0, r3
a0000fe8:	ebfffdc1 	bl	a00006f4 <read>
a0000fec:	e58d000c 	str	r0, [sp, #12]
a0000ff0:	e3a02001 	mov	r2, #1
a0000ff4:	e59d3000 	ldr	r3, [sp]
a0000ff8:	e1a02312 	lsl	r2, r2, r3
a0000ffc:	e59d3010 	ldr	r3, [sp, #16]
a0001000:	e1a03312 	lsl	r3, r2, r3
a0001004:	e1e03003 	mvn	r3, r3
a0001008:	e59d200c 	ldr	r2, [sp, #12]
a000100c:	e0023003 	and	r3, r2, r3
a0001010:	e58d300c 	str	r3, [sp, #12]
a0001014:	e59d2014 	ldr	r2, [sp, #20]
a0001018:	e3a03c06 	mov	r3, #1536	; 0x600
a000101c:	e3413401 	movt	r3, #5121	; 0x1401
a0001020:	e0823003 	add	r3, r2, r3
a0001024:	e1a03103 	lsl	r3, r3, #2
a0001028:	e1a02003 	mov	r2, r3
a000102c:	e59d300c 	ldr	r3, [sp, #12]
a0001030:	e1a00002 	mov	r0, r2
a0001034:	e1a01003 	mov	r1, r3
a0001038:	ebfffda5 	bl	a00006d4 <write>
a000103c:	e28dd01c 	add	sp, sp, #28
a0001040:	e49df004 	pop	{pc}		; (ldr pc, [sp], #4)

a0001044 <write_GICD_ITARGETSR>:
a0001044:	e52de004 	push	{lr}		; (str lr, [sp, #-4]!)
a0001048:	e24dd00c 	sub	sp, sp, #12
a000104c:	e58d0004 	str	r0, [sp, #4]
a0001050:	e58d1000 	str	r1, [sp]
a0001054:	e59d2004 	ldr	r2, [sp, #4]
a0001058:	e3a03c06 	mov	r3, #1536	; 0x600
a000105c:	e3413401 	movt	r3, #5121	; 0x1401
a0001060:	e0823003 	add	r3, r2, r3
a0001064:	e1a03103 	lsl	r3, r3, #2
a0001068:	e1a02003 	mov	r2, r3
a000106c:	e59d3000 	ldr	r3, [sp]
a0001070:	e1a00002 	mov	r0, r2
a0001074:	e1a01003 	mov	r1, r3
a0001078:	ebfffd95 	bl	a00006d4 <write>
a000107c:	e28dd00c 	add	sp, sp, #12
a0001080:	e49df004 	pop	{pc}		; (ldr pc, [sp], #4)

a0001084 <read_GICD_ITARGETSR>:
a0001084:	e52de004 	push	{lr}		; (str lr, [sp, #-4]!)
a0001088:	e24dd00c 	sub	sp, sp, #12
a000108c:	e58d0004 	str	r0, [sp, #4]
a0001090:	e59d2004 	ldr	r2, [sp, #4]
a0001094:	e3a03c06 	mov	r3, #1536	; 0x600
a0001098:	e3413401 	movt	r3, #5121	; 0x1401
a000109c:	e0823003 	add	r3, r2, r3
a00010a0:	e1a03103 	lsl	r3, r3, #2
a00010a4:	e1a00003 	mov	r0, r3
a00010a8:	ebfffd91 	bl	a00006f4 <read>
a00010ac:	e1a03000 	mov	r3, r0
a00010b0:	e1a00003 	mov	r0, r3
a00010b4:	e28dd00c 	add	sp, sp, #12
a00010b8:	e49df004 	pop	{pc}		; (ldr pc, [sp], #4)

a00010bc <write_GICD_ICFGR>:
a00010bc:	e52de004 	push	{lr}		; (str lr, [sp, #-4]!)
a00010c0:	e24dd00c 	sub	sp, sp, #12
a00010c4:	e58d0004 	str	r0, [sp, #4]
a00010c8:	e58d1000 	str	r1, [sp]
a00010cc:	e59d2004 	ldr	r2, [sp, #4]
a00010d0:	e3a03c07 	mov	r3, #1792	; 0x700
a00010d4:	e3413401 	movt	r3, #5121	; 0x1401
a00010d8:	e0823003 	add	r3, r2, r3
a00010dc:	e1a03103 	lsl	r3, r3, #2
a00010e0:	e1a02003 	mov	r2, r3
a00010e4:	e59d3000 	ldr	r3, [sp]
a00010e8:	e1a00002 	mov	r0, r2
a00010ec:	e1a01003 	mov	r1, r3
a00010f0:	ebfffd77 	bl	a00006d4 <write>
a00010f4:	e28dd00c 	add	sp, sp, #12
a00010f8:	e49df004 	pop	{pc}		; (ldr pc, [sp], #4)

a00010fc <read_GICD_ICFGR>:
a00010fc:	e52de004 	push	{lr}		; (str lr, [sp, #-4]!)
a0001100:	e24dd00c 	sub	sp, sp, #12
a0001104:	e58d0004 	str	r0, [sp, #4]
a0001108:	e59d2004 	ldr	r2, [sp, #4]
a000110c:	e3a03c07 	mov	r3, #1792	; 0x700
a0001110:	e3413401 	movt	r3, #5121	; 0x1401
a0001114:	e0823003 	add	r3, r2, r3
a0001118:	e1a03103 	lsl	r3, r3, #2
a000111c:	e1a00003 	mov	r0, r3
a0001120:	ebfffd73 	bl	a00006f4 <read>
a0001124:	e1a03000 	mov	r3, r0
a0001128:	e1a00003 	mov	r0, r3
a000112c:	e28dd00c 	add	sp, sp, #12
a0001130:	e49df004 	pop	{pc}		; (ldr pc, [sp], #4)

a0001134 <gicd_send_sgi_to_cpu>:
a0001134:	e52de004 	push	{lr}		; (str lr, [sp, #-4]!)
a0001138:	e24dd014 	sub	sp, sp, #20
a000113c:	e58d0004 	str	r0, [sp, #4]
a0001140:	e58d1000 	str	r1, [sp]
a0001144:	e59d3004 	ldr	r3, [sp, #4]
a0001148:	e203200f 	and	r2, r3, #15
a000114c:	e3a01001 	mov	r1, #1
a0001150:	e59d3000 	ldr	r3, [sp]
a0001154:	e1a03311 	lsl	r3, r1, r3
a0001158:	e1a03803 	lsl	r3, r3, #16
a000115c:	e1823003 	orr	r3, r2, r3
a0001160:	e58d300c 	str	r3, [sp, #12]
a0001164:	e59d300c 	ldr	r3, [sp, #12]
a0001168:	e3a00c1f 	mov	r0, #7936	; 0x1f00
a000116c:	e3450004 	movt	r0, #20484	; 0x5004
a0001170:	e1a01003 	mov	r1, r3
a0001174:	ebfffd56 	bl	a00006d4 <write>
a0001178:	e28dd014 	add	sp, sp, #20
a000117c:	e49df004 	pop	{pc}		; (ldr pc, [sp], #4)

a0001180 <gicd_send_sgi_to_cpu_list>:
a0001180:	e52de004 	push	{lr}		; (str lr, [sp, #-4]!)
a0001184:	e24dd014 	sub	sp, sp, #20
a0001188:	e58d0004 	str	r0, [sp, #4]
a000118c:	e58d1000 	str	r1, [sp]
a0001190:	e59d3004 	ldr	r3, [sp, #4]
a0001194:	e203200f 	and	r2, r3, #15
a0001198:	e59d3000 	ldr	r3, [sp]
a000119c:	e6ef3073 	uxtb	r3, r3
a00011a0:	e1a03803 	lsl	r3, r3, #16
a00011a4:	e1823003 	orr	r3, r2, r3
a00011a8:	e58d300c 	str	r3, [sp, #12]
a00011ac:	e59d300c 	ldr	r3, [sp, #12]
a00011b0:	e3a00c1f 	mov	r0, #7936	; 0x1f00
a00011b4:	e3450004 	movt	r0, #20484	; 0x5004
a00011b8:	e1a01003 	mov	r1, r3
a00011bc:	ebfffd44 	bl	a00006d4 <write>
a00011c0:	e28dd014 	add	sp, sp, #20
a00011c4:	e49df004 	pop	{pc}		; (ldr pc, [sp], #4)

a00011c8 <write_GICD_SGIR>:
a00011c8:	e52de004 	push	{lr}		; (str lr, [sp, #-4]!)
a00011cc:	e24dd00c 	sub	sp, sp, #12
a00011d0:	e58d0004 	str	r0, [sp, #4]
a00011d4:	e59d3004 	ldr	r3, [sp, #4]
a00011d8:	e3a00c1f 	mov	r0, #7936	; 0x1f00
a00011dc:	e3450004 	movt	r0, #20484	; 0x5004
a00011e0:	e1a01003 	mov	r1, r3
a00011e4:	ebfffd3a 	bl	a00006d4 <write>
a00011e8:	e28dd00c 	add	sp, sp, #12
a00011ec:	e49df004 	pop	{pc}		; (ldr pc, [sp], #4)

a00011f0 <read_GICD_SGIR>:
a00011f0:	e92d4008 	push	{r3, lr}
a00011f4:	e3a00c1f 	mov	r0, #7936	; 0x1f00
a00011f8:	e3450004 	movt	r0, #20484	; 0x5004
a00011fc:	ebfffd3c 	bl	a00006f4 <read>
a0001200:	e1a03000 	mov	r3, r0
a0001204:	e1a00003 	mov	r0, r3
a0001208:	e8bd8008 	pop	{r3, pc}

a000120c <write_GICD_CPENDSGIR>:
a000120c:	e52de004 	push	{lr}		; (str lr, [sp, #-4]!)
a0001210:	e24dd00c 	sub	sp, sp, #12
a0001214:	e58d0004 	str	r0, [sp, #4]
a0001218:	e58d1000 	str	r1, [sp]
a000121c:	e59d2004 	ldr	r2, [sp, #4]
a0001220:	e30037c4 	movw	r3, #1988	; 0x7c4
a0001224:	e3413401 	movt	r3, #5121	; 0x1401
a0001228:	e0823003 	add	r3, r2, r3
a000122c:	e1a03103 	lsl	r3, r3, #2
a0001230:	e1a02003 	mov	r2, r3
a0001234:	e59d3000 	ldr	r3, [sp]
a0001238:	e1a00002 	mov	r0, r2
a000123c:	e1a01003 	mov	r1, r3
a0001240:	ebfffd23 	bl	a00006d4 <write>
a0001244:	e28dd00c 	add	sp, sp, #12
a0001248:	e49df004 	pop	{pc}		; (ldr pc, [sp], #4)

a000124c <write_GICD_SPENDSGIR>:
a000124c:	e52de004 	push	{lr}		; (str lr, [sp, #-4]!)
a0001250:	e24dd00c 	sub	sp, sp, #12
a0001254:	e58d0004 	str	r0, [sp, #4]
a0001258:	e58d1000 	str	r1, [sp]
a000125c:	e59d2004 	ldr	r2, [sp, #4]
a0001260:	e30037c8 	movw	r3, #1992	; 0x7c8
a0001264:	e3413401 	movt	r3, #5121	; 0x1401
a0001268:	e0823003 	add	r3, r2, r3
a000126c:	e1a03103 	lsl	r3, r3, #2
a0001270:	e1a02003 	mov	r2, r3
a0001274:	e59d3000 	ldr	r3, [sp]
a0001278:	e1a00002 	mov	r0, r2
a000127c:	e1a01003 	mov	r1, r3
a0001280:	ebfffd13 	bl	a00006d4 <write>
a0001284:	e28dd00c 	add	sp, sp, #12
a0001288:	e49df004 	pop	{pc}		; (ldr pc, [sp], #4)

a000128c <read_GICD_CPENDSGIR>:
a000128c:	e52de004 	push	{lr}		; (str lr, [sp, #-4]!)
a0001290:	e24dd00c 	sub	sp, sp, #12
a0001294:	e58d0004 	str	r0, [sp, #4]
a0001298:	e59d2004 	ldr	r2, [sp, #4]
a000129c:	e30037c4 	movw	r3, #1988	; 0x7c4
a00012a0:	e3413401 	movt	r3, #5121	; 0x1401
a00012a4:	e0823003 	add	r3, r2, r3
a00012a8:	e1a03103 	lsl	r3, r3, #2
a00012ac:	e1a00003 	mov	r0, r3
a00012b0:	ebfffd0f 	bl	a00006f4 <read>
a00012b4:	e1a03000 	mov	r3, r0
a00012b8:	e1a00003 	mov	r0, r3
a00012bc:	e28dd00c 	add	sp, sp, #12
a00012c0:	e49df004 	pop	{pc}		; (ldr pc, [sp], #4)

a00012c4 <read_GICD_SPENDSGIR>:
a00012c4:	e52de004 	push	{lr}		; (str lr, [sp, #-4]!)
a00012c8:	e24dd00c 	sub	sp, sp, #12
a00012cc:	e58d0004 	str	r0, [sp, #4]
a00012d0:	e59d2004 	ldr	r2, [sp, #4]
a00012d4:	e30037c8 	movw	r3, #1992	; 0x7c8
a00012d8:	e3413401 	movt	r3, #5121	; 0x1401
a00012dc:	e0823003 	add	r3, r2, r3
a00012e0:	e1a03103 	lsl	r3, r3, #2
a00012e4:	e1a00003 	mov	r0, r3
a00012e8:	ebfffd01 	bl	a00006f4 <read>
a00012ec:	e1a03000 	mov	r3, r0
a00012f0:	e1a00003 	mov	r0, r3
a00012f4:	e28dd00c 	add	sp, sp, #12
a00012f8:	e49df004 	pop	{pc}		; (ldr pc, [sp], #4)

a00012fc <read_GICC_CTLR>:
a00012fc:	e92d4008 	push	{r3, lr}
a0001300:	e3a00a02 	mov	r0, #8192	; 0x2000
a0001304:	e3450004 	movt	r0, #20484	; 0x5004
a0001308:	ebfffcf9 	bl	a00006f4 <read>
a000130c:	e1a03000 	mov	r3, r0
a0001310:	e1a00003 	mov	r0, r3
a0001314:	e8bd8008 	pop	{r3, pc}

a0001318 <write_GICC_CTLR>:
a0001318:	e52de004 	push	{lr}		; (str lr, [sp, #-4]!)
a000131c:	e24dd00c 	sub	sp, sp, #12
a0001320:	e58d0004 	str	r0, [sp, #4]
a0001324:	e59d3004 	ldr	r3, [sp, #4]
a0001328:	e3a00a02 	mov	r0, #8192	; 0x2000
a000132c:	e3450004 	movt	r0, #20484	; 0x5004
a0001330:	e1a01003 	mov	r1, r3
a0001334:	ebfffce6 	bl	a00006d4 <write>
a0001338:	e28dd00c 	add	sp, sp, #12
a000133c:	e49df004 	pop	{pc}		; (ldr pc, [sp], #4)

a0001340 <gicc_enable_cpu_interface>:
a0001340:	e52de004 	push	{lr}		; (str lr, [sp, #-4]!)
a0001344:	e24dd00c 	sub	sp, sp, #12
a0001348:	ebffffeb 	bl	a00012fc <read_GICC_CTLR>
a000134c:	e58d0004 	str	r0, [sp, #4]
a0001350:	e59d3004 	ldr	r3, [sp, #4]
a0001354:	e3833001 	orr	r3, r3, #1
a0001358:	e58d3004 	str	r3, [sp, #4]
a000135c:	e59d0004 	ldr	r0, [sp, #4]
a0001360:	ebffffec 	bl	a0001318 <write_GICC_CTLR>
a0001364:	e28dd00c 	add	sp, sp, #12
a0001368:	e49df004 	pop	{pc}		; (ldr pc, [sp], #4)

a000136c <gicc_disable_cpu_interface>:
a000136c:	e52de004 	push	{lr}		; (str lr, [sp, #-4]!)
a0001370:	e24dd00c 	sub	sp, sp, #12
a0001374:	ebffffe0 	bl	a00012fc <read_GICC_CTLR>
a0001378:	e58d0004 	str	r0, [sp, #4]
a000137c:	e59d3004 	ldr	r3, [sp, #4]
a0001380:	e3c33001 	bic	r3, r3, #1
a0001384:	e58d3004 	str	r3, [sp, #4]
a0001388:	e59d0004 	ldr	r0, [sp, #4]
a000138c:	ebffffe1 	bl	a0001318 <write_GICC_CTLR>
a0001390:	e28dd00c 	add	sp, sp, #12
a0001394:	e49df004 	pop	{pc}		; (ldr pc, [sp], #4)

a0001398 <gicc_eoi_mode>:
a0001398:	e52de004 	push	{lr}		; (str lr, [sp, #-4]!)
a000139c:	e24dd014 	sub	sp, sp, #20
a00013a0:	e1a03000 	mov	r3, r0
a00013a4:	e5cd3007 	strb	r3, [sp, #7]
a00013a8:	ebffffd3 	bl	a00012fc <read_GICC_CTLR>
a00013ac:	e58d000c 	str	r0, [sp, #12]
a00013b0:	e5dd3007 	ldrb	r3, [sp, #7]
a00013b4:	e3530001 	cmp	r3, #1
a00013b8:	1a000003 	bne	a00013cc <gicc_eoi_mode+0x34>
a00013bc:	e59d300c 	ldr	r3, [sp, #12]
a00013c0:	e3833c02 	orr	r3, r3, #512	; 0x200
a00013c4:	e58d300c 	str	r3, [sp, #12]
a00013c8:	ea000002 	b	a00013d8 <gicc_eoi_mode+0x40>
a00013cc:	e59d300c 	ldr	r3, [sp, #12]
a00013d0:	e3c33001 	bic	r3, r3, #1
a00013d4:	e58d300c 	str	r3, [sp, #12]
a00013d8:	e59d000c 	ldr	r0, [sp, #12]
a00013dc:	ebffffcd 	bl	a0001318 <write_GICC_CTLR>
a00013e0:	e28dd014 	add	sp, sp, #20
a00013e4:	e49df004 	pop	{pc}		; (ldr pc, [sp], #4)

a00013e8 <read_GICC_PMR>:
a00013e8:	e92d4008 	push	{r3, lr}
a00013ec:	e3020004 	movw	r0, #8196	; 0x2004
a00013f0:	e3450004 	movt	r0, #20484	; 0x5004
a00013f4:	ebfffcbe 	bl	a00006f4 <read>
a00013f8:	e1a03000 	mov	r3, r0
a00013fc:	e1a00003 	mov	r0, r3
a0001400:	e8bd8008 	pop	{r3, pc}

a0001404 <write_GICC_PMR>:
a0001404:	e52de004 	push	{lr}		; (str lr, [sp, #-4]!)
a0001408:	e24dd00c 	sub	sp, sp, #12
a000140c:	e58d0004 	str	r0, [sp, #4]
a0001410:	e59d3004 	ldr	r3, [sp, #4]
a0001414:	e3020004 	movw	r0, #8196	; 0x2004
a0001418:	e3450004 	movt	r0, #20484	; 0x5004
a000141c:	e1a01003 	mov	r1, r3
a0001420:	ebfffcab 	bl	a00006d4 <write>
a0001424:	e28dd00c 	add	sp, sp, #12
a0001428:	e49df004 	pop	{pc}		; (ldr pc, [sp], #4)

a000142c <gicc_set_priority_register>:
a000142c:	e52de004 	push	{lr}		; (str lr, [sp, #-4]!)
a0001430:	e24dd00c 	sub	sp, sp, #12
a0001434:	e58d0004 	str	r0, [sp, #4]
a0001438:	e59d3004 	ldr	r3, [sp, #4]
a000143c:	e6ef3073 	uxtb	r3, r3
a0001440:	e1a00003 	mov	r0, r3
a0001444:	ebffffee 	bl	a0001404 <write_GICC_PMR>
a0001448:	e28dd00c 	add	sp, sp, #12
a000144c:	e49df004 	pop	{pc}		; (ldr pc, [sp], #4)

a0001450 <read_GICC_BPR>:
a0001450:	e92d4008 	push	{r3, lr}
a0001454:	e3020008 	movw	r0, #8200	; 0x2008
a0001458:	e3450004 	movt	r0, #20484	; 0x5004
a000145c:	ebfffca4 	bl	a00006f4 <read>
a0001460:	e1a03000 	mov	r3, r0
a0001464:	e1a00003 	mov	r0, r3
a0001468:	e8bd8008 	pop	{r3, pc}

a000146c <write_GICC_BPR>:
a000146c:	e52de004 	push	{lr}		; (str lr, [sp, #-4]!)
a0001470:	e24dd00c 	sub	sp, sp, #12
a0001474:	e58d0004 	str	r0, [sp, #4]
a0001478:	e59d3004 	ldr	r3, [sp, #4]
a000147c:	e3020008 	movw	r0, #8200	; 0x2008
a0001480:	e3450004 	movt	r0, #20484	; 0x5004
a0001484:	e1a01003 	mov	r1, r3
a0001488:	ebfffc91 	bl	a00006d4 <write>
a000148c:	e28dd00c 	add	sp, sp, #12
a0001490:	e49df004 	pop	{pc}		; (ldr pc, [sp], #4)

a0001494 <gicc_set_binary_point_register>:
a0001494:	e52de004 	push	{lr}		; (str lr, [sp, #-4]!)
a0001498:	e24dd00c 	sub	sp, sp, #12
a000149c:	e58d0004 	str	r0, [sp, #4]
a00014a0:	e59d3004 	ldr	r3, [sp, #4]
a00014a4:	e2033007 	and	r3, r3, #7
a00014a8:	e1a00003 	mov	r0, r3
a00014ac:	ebffffee 	bl	a000146c <write_GICC_BPR>
a00014b0:	e28dd00c 	add	sp, sp, #12
a00014b4:	e49df004 	pop	{pc}		; (ldr pc, [sp], #4)

a00014b8 <read_GICC_IAR>:
a00014b8:	e92d4008 	push	{r3, lr}
a00014bc:	e302000c 	movw	r0, #8204	; 0x200c
a00014c0:	e3450004 	movt	r0, #20484	; 0x5004
a00014c4:	ebfffc8a 	bl	a00006f4 <read>
a00014c8:	e1a03000 	mov	r3, r0
a00014cc:	e1a00003 	mov	r0, r3
a00014d0:	e8bd8008 	pop	{r3, pc}

a00014d4 <gicc_ack_irq>:
a00014d4:	e52de004 	push	{lr}		; (str lr, [sp, #-4]!)
a00014d8:	e24dd014 	sub	sp, sp, #20
a00014dc:	e58d0004 	str	r0, [sp, #4]
a00014e0:	e302000c 	movw	r0, #8204	; 0x200c
a00014e4:	e3450004 	movt	r0, #20484	; 0x5004
a00014e8:	ebfffc81 	bl	a00006f4 <read>
a00014ec:	e58d000c 	str	r0, [sp, #12]
a00014f0:	e59d300c 	ldr	r3, [sp, #12]
a00014f4:	e1a03523 	lsr	r3, r3, #10
a00014f8:	e2032007 	and	r2, r3, #7
a00014fc:	e59d3004 	ldr	r3, [sp, #4]
a0001500:	e5832000 	str	r2, [r3]
a0001504:	e59d300c 	ldr	r3, [sp, #12]
a0001508:	e7e93053 	ubfx	r3, r3, #0, #10
a000150c:	e1a00003 	mov	r0, r3
a0001510:	e28dd014 	add	sp, sp, #20
a0001514:	e49df004 	pop	{pc}		; (ldr pc, [sp], #4)

a0001518 <write_GICC_EOIR>:
a0001518:	e52de004 	push	{lr}		; (str lr, [sp, #-4]!)
a000151c:	e24dd00c 	sub	sp, sp, #12
a0001520:	e58d0004 	str	r0, [sp, #4]
a0001524:	e59d3004 	ldr	r3, [sp, #4]
a0001528:	e3020010 	movw	r0, #8208	; 0x2010
a000152c:	e3450004 	movt	r0, #20484	; 0x5004
a0001530:	e1a01003 	mov	r1, r3
a0001534:	ebfffc66 	bl	a00006d4 <write>
a0001538:	e28dd00c 	add	sp, sp, #12
a000153c:	e49df004 	pop	{pc}		; (ldr pc, [sp], #4)

a0001540 <gicc_eoied_irq>:
a0001540:	e52de004 	push	{lr}		; (str lr, [sp, #-4]!)
a0001544:	e24dd014 	sub	sp, sp, #20
a0001548:	e58d0004 	str	r0, [sp, #4]
a000154c:	e58d1000 	str	r1, [sp]
a0001550:	e59d3004 	ldr	r3, [sp, #4]
a0001554:	e7e93053 	ubfx	r3, r3, #0, #10
a0001558:	e58d300c 	str	r3, [sp, #12]
a000155c:	e59d3004 	ldr	r3, [sp, #4]
a0001560:	e353000f 	cmp	r3, #15
a0001564:	ca000005 	bgt	a0001580 <gicc_eoied_irq+0x40>
a0001568:	e59d3000 	ldr	r3, [sp]
a000156c:	e2033007 	and	r3, r3, #7
a0001570:	e1a03503 	lsl	r3, r3, #10
a0001574:	e59d200c 	ldr	r2, [sp, #12]
a0001578:	e1823003 	orr	r3, r2, r3
a000157c:	e58d300c 	str	r3, [sp, #12]
a0001580:	e59d000c 	ldr	r0, [sp, #12]
a0001584:	ebffffe3 	bl	a0001518 <write_GICC_EOIR>
a0001588:	e28dd014 	add	sp, sp, #20
a000158c:	e49df004 	pop	{pc}		; (ldr pc, [sp], #4)

a0001590 <read_GICC_RPR>:
a0001590:	e92d4008 	push	{r3, lr}
a0001594:	e3020014 	movw	r0, #8212	; 0x2014
a0001598:	e3450004 	movt	r0, #20484	; 0x5004
a000159c:	ebfffc54 	bl	a00006f4 <read>
a00015a0:	e1a03000 	mov	r3, r0
a00015a4:	e1a00003 	mov	r0, r3
a00015a8:	e8bd8008 	pop	{r3, pc}

a00015ac <gicc_running_priority>:
a00015ac:	e92d4008 	push	{r3, lr}
a00015b0:	ebfffff6 	bl	a0001590 <read_GICC_RPR>
a00015b4:	e1a03000 	mov	r3, r0
a00015b8:	e6ef3073 	uxtb	r3, r3
a00015bc:	e1a00003 	mov	r0, r3
a00015c0:	e8bd8008 	pop	{r3, pc}

a00015c4 <read_GICC_HPPIR>:
a00015c4:	e92d4008 	push	{r3, lr}
a00015c8:	e3020018 	movw	r0, #8216	; 0x2018
a00015cc:	e3450004 	movt	r0, #20484	; 0x5004
a00015d0:	ebfffc47 	bl	a00006f4 <read>
a00015d4:	e1a03000 	mov	r3, r0
a00015d8:	e1a00003 	mov	r0, r3
a00015dc:	e8bd8008 	pop	{r3, pc}

a00015e0 <gicc_highest_prio_irq>:
a00015e0:	e52de004 	push	{lr}		; (str lr, [sp, #-4]!)
a00015e4:	e24dd014 	sub	sp, sp, #20
a00015e8:	e58d0004 	str	r0, [sp, #4]
a00015ec:	ebfffff4 	bl	a00015c4 <read_GICC_HPPIR>
a00015f0:	e58d000c 	str	r0, [sp, #12]
a00015f4:	e59d300c 	ldr	r3, [sp, #12]
a00015f8:	e1a03523 	lsr	r3, r3, #10
a00015fc:	e2032007 	and	r2, r3, #7
a0001600:	e59d3004 	ldr	r3, [sp, #4]
a0001604:	e5832000 	str	r2, [r3]
a0001608:	e59d300c 	ldr	r3, [sp, #12]
a000160c:	e7e93053 	ubfx	r3, r3, #0, #10
a0001610:	e1a00003 	mov	r0, r3
a0001614:	e28dd014 	add	sp, sp, #20
a0001618:	e49df004 	pop	{pc}		; (ldr pc, [sp], #4)

a000161c <write_GICC_APR>:
a000161c:	e52de004 	push	{lr}		; (str lr, [sp, #-4]!)
a0001620:	e24dd00c 	sub	sp, sp, #12
a0001624:	e58d0004 	str	r0, [sp, #4]
a0001628:	e58d1000 	str	r1, [sp]
a000162c:	e59d2004 	ldr	r2, [sp, #4]
a0001630:	e3003834 	movw	r3, #2100	; 0x834
a0001634:	e3413401 	movt	r3, #5121	; 0x1401
a0001638:	e0823003 	add	r3, r2, r3
a000163c:	e1a03103 	lsl	r3, r3, #2
a0001640:	e1a02003 	mov	r2, r3
a0001644:	e59d3000 	ldr	r3, [sp]
a0001648:	e1a00002 	mov	r0, r2
a000164c:	e1a01003 	mov	r1, r3
a0001650:	ebfffc1f 	bl	a00006d4 <write>
a0001654:	e28dd00c 	add	sp, sp, #12
a0001658:	e49df004 	pop	{pc}		; (ldr pc, [sp], #4)

a000165c <read_GICC_APR>:
a000165c:	e52de004 	push	{lr}		; (str lr, [sp, #-4]!)
a0001660:	e24dd00c 	sub	sp, sp, #12
a0001664:	e58d0004 	str	r0, [sp, #4]
a0001668:	e59d2004 	ldr	r2, [sp, #4]
a000166c:	e3003834 	movw	r3, #2100	; 0x834
a0001670:	e3413401 	movt	r3, #5121	; 0x1401
a0001674:	e0823003 	add	r3, r2, r3
a0001678:	e1a03103 	lsl	r3, r3, #2
a000167c:	e1a00003 	mov	r0, r3
a0001680:	ebfffc1b 	bl	a00006f4 <read>
a0001684:	e1a03000 	mov	r3, r0
a0001688:	e1a00003 	mov	r0, r3
a000168c:	e28dd00c 	add	sp, sp, #12
a0001690:	e49df004 	pop	{pc}		; (ldr pc, [sp], #4)

a0001694 <write_GICC_NSAPR>:
a0001694:	e52de004 	push	{lr}		; (str lr, [sp, #-4]!)
a0001698:	e24dd00c 	sub	sp, sp, #12
a000169c:	e58d0004 	str	r0, [sp, #4]
a00016a0:	e58d1000 	str	r1, [sp]
a00016a4:	e59d2004 	ldr	r2, [sp, #4]
a00016a8:	e3003838 	movw	r3, #2104	; 0x838
a00016ac:	e3413401 	movt	r3, #5121	; 0x1401
a00016b0:	e0823003 	add	r3, r2, r3
a00016b4:	e1a03103 	lsl	r3, r3, #2
a00016b8:	e1a02003 	mov	r2, r3
a00016bc:	e59d3000 	ldr	r3, [sp]
a00016c0:	e1a00002 	mov	r0, r2
a00016c4:	e1a01003 	mov	r1, r3
a00016c8:	ebfffc01 	bl	a00006d4 <write>
a00016cc:	e28dd00c 	add	sp, sp, #12
a00016d0:	e49df004 	pop	{pc}		; (ldr pc, [sp], #4)

a00016d4 <read_GICC_NSAPR>:
a00016d4:	e52de004 	push	{lr}		; (str lr, [sp, #-4]!)
a00016d8:	e24dd00c 	sub	sp, sp, #12
a00016dc:	e58d0004 	str	r0, [sp, #4]
a00016e0:	e59d2004 	ldr	r2, [sp, #4]
a00016e4:	e3003838 	movw	r3, #2104	; 0x838
a00016e8:	e3413401 	movt	r3, #5121	; 0x1401
a00016ec:	e0823003 	add	r3, r2, r3
a00016f0:	e1a03103 	lsl	r3, r3, #2
a00016f4:	e1a00003 	mov	r0, r3
a00016f8:	ebfffbfd 	bl	a00006f4 <read>
a00016fc:	e1a03000 	mov	r3, r0
a0001700:	e1a00003 	mov	r0, r3
a0001704:	e28dd00c 	add	sp, sp, #12
a0001708:	e49df004 	pop	{pc}		; (ldr pc, [sp], #4)

a000170c <read_GICC_IIDR>:
a000170c:	e92d4008 	push	{r3, lr}
a0001710:	e30200fc 	movw	r0, #8444	; 0x20fc
a0001714:	e3450004 	movt	r0, #20484	; 0x5004
a0001718:	ebfffbf5 	bl	a00006f4 <read>
a000171c:	e1a03000 	mov	r3, r0
a0001720:	e1a00003 	mov	r0, r3
a0001724:	e8bd8008 	pop	{r3, pc}

a0001728 <write_GICC_DIR>:
a0001728:	e52de004 	push	{lr}		; (str lr, [sp, #-4]!)
a000172c:	e24dd00c 	sub	sp, sp, #12
a0001730:	e58d0004 	str	r0, [sp, #4]
a0001734:	e59d3004 	ldr	r3, [sp, #4]
a0001738:	e3a00a03 	mov	r0, #12288	; 0x3000
a000173c:	e3450004 	movt	r0, #20484	; 0x5004
a0001740:	e1a01003 	mov	r1, r3
a0001744:	ebfffbe2 	bl	a00006d4 <write>
a0001748:	e28dd00c 	add	sp, sp, #12
a000174c:	e49df004 	pop	{pc}		; (ldr pc, [sp], #4)

a0001750 <gicc_deactivate_irq>:
a0001750:	e52de004 	push	{lr}		; (str lr, [sp, #-4]!)
a0001754:	e24dd014 	sub	sp, sp, #20
a0001758:	e58d0004 	str	r0, [sp, #4]
a000175c:	e58d1000 	str	r1, [sp]
a0001760:	e59d3004 	ldr	r3, [sp, #4]
a0001764:	e7e93053 	ubfx	r3, r3, #0, #10
a0001768:	e58d300c 	str	r3, [sp, #12]
a000176c:	e59d3004 	ldr	r3, [sp, #4]
a0001770:	e353000f 	cmp	r3, #15
a0001774:	ca000005 	bgt	a0001790 <gicc_deactivate_irq+0x40>
a0001778:	e59d3000 	ldr	r3, [sp]
a000177c:	e2033007 	and	r3, r3, #7
a0001780:	e1a03503 	lsl	r3, r3, #10
a0001784:	e59d200c 	ldr	r2, [sp, #12]
a0001788:	e1823003 	orr	r3, r2, r3
a000178c:	e58d300c 	str	r3, [sp, #12]
a0001790:	e59d000c 	ldr	r0, [sp, #12]
a0001794:	ebffffe3 	bl	a0001728 <write_GICC_DIR>
a0001798:	e28dd014 	add	sp, sp, #20
a000179c:	e49df004 	pop	{pc}		; (ldr pc, [sp], #4)

a00017a0 <get_CNTFRQ>:
a00017a0:	e24dd008 	sub	sp, sp, #8
a00017a4:	ee1e3f10 	mrc	15, 0, r3, cr14, cr0, {0}
a00017a8:	e58d3004 	str	r3, [sp, #4]
a00017ac:	e59d3004 	ldr	r3, [sp, #4]
a00017b0:	e1a00003 	mov	r0, r3
a00017b4:	e28dd008 	add	sp, sp, #8
a00017b8:	e12fff1e 	bx	lr

a00017bc <get_CNTPCT>:
a00017bc:	e92d0030 	push	{r4, r5}
a00017c0:	e24dd008 	sub	sp, sp, #8
a00017c4:	ec510f0e 	mrrc	15, 0, r0, r1, cr14
a00017c8:	e58d0004 	str	r0, [sp, #4]
a00017cc:	e58d1000 	str	r1, [sp]
a00017d0:	e59d1004 	ldr	r1, [sp, #4]
a00017d4:	e1a00001 	mov	r0, r1
a00017d8:	e3a01000 	mov	r1, #0
a00017dc:	e59dc000 	ldr	ip, [sp]
a00017e0:	e1a0400c 	mov	r4, ip
a00017e4:	e3a05000 	mov	r5, #0
a00017e8:	e1a03004 	mov	r3, r4
a00017ec:	e3a02000 	mov	r2, #0
a00017f0:	e0922000 	adds	r2, r2, r0
a00017f4:	e0a33001 	adc	r3, r3, r1
a00017f8:	e1a00002 	mov	r0, r2
a00017fc:	e1a01003 	mov	r1, r3
a0001800:	e28dd008 	add	sp, sp, #8
a0001804:	e8bd0030 	pop	{r4, r5}
a0001808:	e12fff1e 	bx	lr

a000180c <get_CNTV_CTL>:
a000180c:	e24dd008 	sub	sp, sp, #8
a0001810:	ee1e3f33 	mrc	15, 0, r3, cr14, cr3, {1}
a0001814:	e58d3004 	str	r3, [sp, #4]
a0001818:	e59d3004 	ldr	r3, [sp, #4]
a000181c:	e1a00003 	mov	r0, r3
a0001820:	e28dd008 	add	sp, sp, #8
a0001824:	e12fff1e 	bx	lr

a0001828 <set_CNTV_CTL>:
a0001828:	e24dd008 	sub	sp, sp, #8
a000182c:	e58d0004 	str	r0, [sp, #4]
a0001830:	e59d3004 	ldr	r3, [sp, #4]
a0001834:	ee0e3f33 	mcr	15, 0, r3, cr14, cr3, {1}
a0001838:	e28dd008 	add	sp, sp, #8
a000183c:	e12fff1e 	bx	lr

a0001840 <em_get_CNTV_CTL>:
a0001840:	e24dd008 	sub	sp, sp, #8
a0001844:	ee1e3f33 	mrc	15, 0, r3, cr14, cr3, {1}
a0001848:	e58d3004 	str	r3, [sp, #4]
a000184c:	e59d3004 	ldr	r3, [sp, #4]
a0001850:	e1a00003 	mov	r0, r3
a0001854:	e28dd008 	add	sp, sp, #8
a0001858:	e12fff1e 	bx	lr

a000185c <em_set_CNTV_CTL>:
a000185c:	e24dd008 	sub	sp, sp, #8
a0001860:	e58d0004 	str	r0, [sp, #4]
a0001864:	e59d3004 	ldr	r3, [sp, #4]
a0001868:	ee0e3f33 	mcr	15, 0, r3, cr14, cr3, {1}
a000186c:	e28dd008 	add	sp, sp, #8
a0001870:	e12fff1e 	bx	lr

a0001874 <get_CNTVCT>:
a0001874:	e92d0030 	push	{r4, r5}
a0001878:	e24dd008 	sub	sp, sp, #8
a000187c:	ec510f1e 	mrrc	15, 1, r0, r1, cr14
a0001880:	e58d0004 	str	r0, [sp, #4]
a0001884:	e58d1000 	str	r1, [sp]
a0001888:	e59d1004 	ldr	r1, [sp, #4]
a000188c:	e1a00001 	mov	r0, r1
a0001890:	e3a01000 	mov	r1, #0
a0001894:	e59dc000 	ldr	ip, [sp]
a0001898:	e1a0400c 	mov	r4, ip
a000189c:	e3a05000 	mov	r5, #0
a00018a0:	e1a03004 	mov	r3, r4
a00018a4:	e3a02000 	mov	r2, #0
a00018a8:	e0922000 	adds	r2, r2, r0
a00018ac:	e0a33001 	adc	r3, r3, r1
a00018b0:	e1a00002 	mov	r0, r2
a00018b4:	e1a01003 	mov	r1, r3
a00018b8:	e28dd008 	add	sp, sp, #8
a00018bc:	e8bd0030 	pop	{r4, r5}
a00018c0:	e12fff1e 	bx	lr

a00018c4 <set_CNTV_CVAL>:
a00018c4:	e92d0030 	push	{r4, r5}
a00018c8:	e24dd008 	sub	sp, sp, #8
a00018cc:	e1cd00f0 	strd	r0, [sp]
a00018d0:	e1cd40d0 	ldrd	r4, [sp]
a00018d4:	e3e00000 	mvn	r0, #0
a00018d8:	e3a01000 	mov	r1, #0
a00018dc:	e0000004 	and	r0, r0, r4
a00018e0:	e0011005 	and	r1, r1, r5
a00018e4:	e1cd40d0 	ldrd	r4, [sp]
a00018e8:	e1a02005 	mov	r2, r5
a00018ec:	e3a03000 	mov	r3, #0
a00018f0:	ec420f3e 	mcrr	15, 3, r0, r2, cr14
a00018f4:	e28dd008 	add	sp, sp, #8
a00018f8:	e8bd0030 	pop	{r4, r5}
a00018fc:	e12fff1e 	bx	lr

a0001900 <get_MPIDR>:
a0001900:	e24dd008 	sub	sp, sp, #8
a0001904:	ee103fb0 	mrc	15, 0, r3, cr0, cr0, {5}
a0001908:	e58d3004 	str	r3, [sp, #4]
a000190c:	e59d3004 	ldr	r3, [sp, #4]
a0001910:	e1a00003 	mov	r0, r3
a0001914:	e28dd008 	add	sp, sp, #8
a0001918:	e12fff1e 	bx	lr

a000191c <get_cpuid>:
a000191c:	e92d4008 	push	{r3, lr}
a0001920:	ebfffff6 	bl	a0001900 <get_MPIDR>
a0001924:	e1a03000 	mov	r3, r0
a0001928:	e6ef3073 	uxtb	r3, r3
a000192c:	e1a00003 	mov	r0, r3
a0001930:	e8bd8008 	pop	{r3, pc}

a0001934 <gt_get_clock_freq>:
a0001934:	e92d4008 	push	{r3, lr}
a0001938:	ebffff98 	bl	a00017a0 <get_CNTFRQ>
a000193c:	e1a03000 	mov	r3, r0
a0001940:	e1a00003 	mov	r0, r3
a0001944:	e8bd8008 	pop	{r3, pc}

a0001948 <gt_get_virtual_count>:
a0001948:	e92d4008 	push	{r3, lr}
a000194c:	ebffffc8 	bl	a0001874 <get_CNTVCT>
a0001950:	e1a02000 	mov	r2, r0
a0001954:	e1a03001 	mov	r3, r1
a0001958:	e1a00002 	mov	r0, r2
a000195c:	e1a01003 	mov	r1, r3
a0001960:	e8bd8008 	pop	{r3, pc}

a0001964 <gt_get_physical_count>:
a0001964:	e92d4008 	push	{r3, lr}
a0001968:	ebffff93 	bl	a00017bc <get_CNTPCT>
a000196c:	e1a02000 	mov	r2, r0
a0001970:	e1a03001 	mov	r3, r1
a0001974:	e1a00002 	mov	r0, r2
a0001978:	e1a01003 	mov	r1, r3
a000197c:	e8bd8008 	pop	{r3, pc}

a0001980 <gt_disable_virtual_timer>:
a0001980:	e52de004 	push	{lr}		; (str lr, [sp, #-4]!)
a0001984:	e24dd00c 	sub	sp, sp, #12
a0001988:	ebffff9f 	bl	a000180c <get_CNTV_CTL>
a000198c:	e58d0004 	str	r0, [sp, #4]
a0001990:	e59d3004 	ldr	r3, [sp, #4]
a0001994:	e3c33001 	bic	r3, r3, #1
a0001998:	e58d3004 	str	r3, [sp, #4]
a000199c:	e59d0004 	ldr	r0, [sp, #4]
a00019a0:	ebffffa0 	bl	a0001828 <set_CNTV_CTL>
a00019a4:	e28dd00c 	add	sp, sp, #12
a00019a8:	e49df004 	pop	{pc}		; (ldr pc, [sp], #4)

a00019ac <gt_enable_virtual_timer>:
a00019ac:	e52de004 	push	{lr}		; (str lr, [sp, #-4]!)
a00019b0:	e24dd00c 	sub	sp, sp, #12
a00019b4:	ebffffa1 	bl	a0001840 <em_get_CNTV_CTL>
a00019b8:	e58d0004 	str	r0, [sp, #4]
a00019bc:	e59d3004 	ldr	r3, [sp, #4]
a00019c0:	e3833001 	orr	r3, r3, #1
a00019c4:	e58d3004 	str	r3, [sp, #4]
a00019c8:	e59d0004 	ldr	r0, [sp, #4]
a00019cc:	ebffffa2 	bl	a000185c <em_set_CNTV_CTL>
a00019d0:	e28dd00c 	add	sp, sp, #12
a00019d4:	e49df004 	pop	{pc}		; (ldr pc, [sp], #4)

a00019d8 <gt_is_virtual_timer_irq_asserted>:
a00019d8:	e92d4008 	push	{r3, lr}
a00019dc:	ebffff8a 	bl	a000180c <get_CNTV_CTL>
a00019e0:	e1a03000 	mov	r3, r0
a00019e4:	e1a03123 	lsr	r3, r3, #2
a00019e8:	e2033001 	and	r3, r3, #1
a00019ec:	e1a00003 	mov	r0, r3
a00019f0:	e8bd8008 	pop	{r3, pc}

a00019f4 <gt_mask_virtual_timer>:
a00019f4:	e52de004 	push	{lr}		; (str lr, [sp, #-4]!)
a00019f8:	e24dd00c 	sub	sp, sp, #12
a00019fc:	ebffff82 	bl	a000180c <get_CNTV_CTL>
a0001a00:	e58d0004 	str	r0, [sp, #4]
a0001a04:	e59d3004 	ldr	r3, [sp, #4]
a0001a08:	e3833002 	orr	r3, r3, #2
a0001a0c:	e58d3004 	str	r3, [sp, #4]
a0001a10:	e59d0004 	ldr	r0, [sp, #4]
a0001a14:	ebffff83 	bl	a0001828 <set_CNTV_CTL>
a0001a18:	e28dd00c 	add	sp, sp, #12
a0001a1c:	e49df004 	pop	{pc}		; (ldr pc, [sp], #4)

a0001a20 <gt_unmask_virtual_timer>:
a0001a20:	e52de004 	push	{lr}		; (str lr, [sp, #-4]!)
a0001a24:	e24dd00c 	sub	sp, sp, #12
a0001a28:	ebffff84 	bl	a0001840 <em_get_CNTV_CTL>
a0001a2c:	e58d0004 	str	r0, [sp, #4]
a0001a30:	e59d3004 	ldr	r3, [sp, #4]
a0001a34:	e3c33002 	bic	r3, r3, #2
a0001a38:	e58d3004 	str	r3, [sp, #4]
a0001a3c:	e59d0004 	ldr	r0, [sp, #4]
a0001a40:	ebffff85 	bl	a000185c <em_set_CNTV_CTL>
a0001a44:	e28dd00c 	add	sp, sp, #12
a0001a48:	e49df004 	pop	{pc}		; (ldr pc, [sp], #4)

a0001a4c <gt_set_virtual_timer_deadline>:
a0001a4c:	e52de004 	push	{lr}		; (str lr, [sp, #-4]!)
a0001a50:	e24dd014 	sub	sp, sp, #20
a0001a54:	e1cd00f0 	strd	r0, [sp]
a0001a58:	ebffffba 	bl	a0001948 <gt_get_virtual_count>
a0001a5c:	e1cd00f8 	strd	r0, [sp, #8]
a0001a60:	e1cd00d8 	ldrd	r0, [sp, #8]
a0001a64:	e1cd20d0 	ldrd	r2, [sp]
a0001a68:	e0922000 	adds	r2, r2, r0
a0001a6c:	e0a33001 	adc	r3, r3, r1
a0001a70:	e1a00002 	mov	r0, r2
a0001a74:	e1a01003 	mov	r1, r3
a0001a78:	ebffff91 	bl	a00018c4 <set_CNTV_CVAL>
a0001a7c:	e28dd014 	add	sp, sp, #20
a0001a80:	e49df004 	pop	{pc}		; (ldr pc, [sp], #4)

a0001a84 <gt_get_cntv_ctl>:
a0001a84:	e92d4008 	push	{r3, lr}
a0001a88:	ebffff5f 	bl	a000180c <get_CNTV_CTL>
a0001a8c:	e1a03000 	mov	r3, r0
a0001a90:	e1a00003 	mov	r0, r3
a0001a94:	e8bd8008 	pop	{r3, pc}

a0001a98 <serial_err_check>:
a0001a98:	e24dd008 	sub	sp, sp, #8
a0001a9c:	e58d0004 	str	r0, [sp, #4]
a0001aa0:	e3a03000 	mov	r3, #0
a0001aa4:	e1a00003 	mov	r0, r3
a0001aa8:	e28dd008 	add	sp, sp, #8
a0001aac:	e12fff1e 	bx	lr

a0001ab0 <uart_tx_char>:
a0001ab0:	e24dd008 	sub	sp, sp, #8
a0001ab4:	e1a03000 	mov	r3, r0
a0001ab8:	e5cd3007 	strb	r3, [sp, #7]
a0001abc:	e59f307c 	ldr	r3, [pc, #124]	; a0001b40 <uart_tx_char+0x90>
a0001ac0:	e08f3003 	add	r3, pc, r3
a0001ac4:	e3a02c63 	mov	r2, #25344	; 0x6300
a0001ac8:	e3472000 	movt	r2, #28672	; 0x7000
a0001acc:	e1a01002 	mov	r1, r2
a0001ad0:	e59f206c 	ldr	r2, [pc, #108]	; a0001b44 <uart_tx_char+0x94>
a0001ad4:	e7932002 	ldr	r2, [r3, r2]
a0001ad8:	e5821000 	str	r1, [r2]
a0001adc:	e1a00000 	nop			; (mov r0, r0)
a0001ae0:	e59f205c 	ldr	r2, [pc, #92]	; a0001b44 <uart_tx_char+0x94>
a0001ae4:	e7932002 	ldr	r2, [r3, r2]
a0001ae8:	e5922000 	ldr	r2, [r2]
a0001aec:	e2822014 	add	r2, r2, #20
a0001af0:	e5d22000 	ldrb	r2, [r2]
a0001af4:	e6ef2072 	uxtb	r2, r2
a0001af8:	e2022020 	and	r2, r2, #32
a0001afc:	e3520000 	cmp	r2, #0
a0001b00:	0afffff6 	beq	a0001ae0 <uart_tx_char+0x30>
a0001b04:	e59f2038 	ldr	r2, [pc, #56]	; a0001b44 <uart_tx_char+0x94>
a0001b08:	e7932002 	ldr	r2, [r3, r2]
a0001b0c:	e5922000 	ldr	r2, [r2]
a0001b10:	e5dd1007 	ldrb	r1, [sp, #7]
a0001b14:	e5c21000 	strb	r1, [r2]
a0001b18:	e5dd2007 	ldrb	r2, [sp, #7]
a0001b1c:	e352000a 	cmp	r2, #10
a0001b20:	1a000004 	bne	a0001b38 <uart_tx_char+0x88>
a0001b24:	e59f2018 	ldr	r2, [pc, #24]	; a0001b44 <uart_tx_char+0x94>
a0001b28:	e7933002 	ldr	r3, [r3, r2]
a0001b2c:	e5933000 	ldr	r3, [r3]
a0001b30:	e3a0200d 	mov	r2, #13
a0001b34:	e5c32000 	strb	r2, [r3]
a0001b38:	e28dd008 	add	sp, sp, #8
a0001b3c:	e12fff1e 	bx	lr
a0001b40:	00007be0 	andeq	r7, r0, r0, ror #23
a0001b44:	0000001c 	andeq	r0, r0, ip, lsl r0

a0001b48 <uart_out_char_check_CR>:
a0001b48:	e52de004 	push	{lr}		; (str lr, [sp, #-4]!)
a0001b4c:	e24dd00c 	sub	sp, sp, #12
a0001b50:	e1a03000 	mov	r3, r0
a0001b54:	e5cd3007 	strb	r3, [sp, #7]
a0001b58:	e5dd3007 	ldrb	r3, [sp, #7]
a0001b5c:	e1a00003 	mov	r0, r3
a0001b60:	ebffffd2 	bl	a0001ab0 <uart_tx_char>
a0001b64:	e5dd3007 	ldrb	r3, [sp, #7]
a0001b68:	e353000a 	cmp	r3, #10
a0001b6c:	1a000001 	bne	a0001b78 <uart_out_char_check_CR+0x30>
a0001b70:	e3a0000d 	mov	r0, #13
a0001b74:	ebffffcd 	bl	a0001ab0 <uart_tx_char>
a0001b78:	e28dd00c 	add	sp, sp, #12
a0001b7c:	e49df004 	pop	{pc}		; (ldr pc, [sp], #4)

a0001b80 <uart_out_str>:
a0001b80:	e52de004 	push	{lr}		; (str lr, [sp, #-4]!)
a0001b84:	e24dd014 	sub	sp, sp, #20
a0001b88:	e58d0004 	str	r0, [sp, #4]
a0001b8c:	e58d1000 	str	r1, [sp]
a0001b90:	e3a03000 	mov	r3, #0
a0001b94:	e58d300c 	str	r3, [sp, #12]
a0001b98:	ea000008 	b	a0001bc0 <uart_out_str+0x40>
a0001b9c:	e59d300c 	ldr	r3, [sp, #12]
a0001ba0:	e59d2004 	ldr	r2, [sp, #4]
a0001ba4:	e0823003 	add	r3, r2, r3
a0001ba8:	e5d33000 	ldrb	r3, [r3]
a0001bac:	e1a00003 	mov	r0, r3
a0001bb0:	ebffffbe 	bl	a0001ab0 <uart_tx_char>
a0001bb4:	e59d300c 	ldr	r3, [sp, #12]
a0001bb8:	e2833001 	add	r3, r3, #1
a0001bbc:	e58d300c 	str	r3, [sp, #12]
a0001bc0:	e59d200c 	ldr	r2, [sp, #12]
a0001bc4:	e59d3000 	ldr	r3, [sp]
a0001bc8:	e1520003 	cmp	r2, r3
a0001bcc:	bafffff2 	blt	a0001b9c <uart_out_str+0x1c>
a0001bd0:	e59d300c 	ldr	r3, [sp, #12]
a0001bd4:	e1a00003 	mov	r0, r3
a0001bd8:	e28dd014 	add	sp, sp, #20
a0001bdc:	e49df004 	pop	{pc}		; (ldr pc, [sp], #4)

a0001be0 <uart_out_str_check_CR>:
a0001be0:	e52de004 	push	{lr}		; (str lr, [sp, #-4]!)
a0001be4:	e24dd014 	sub	sp, sp, #20
a0001be8:	e58d0004 	str	r0, [sp, #4]
a0001bec:	e58d1000 	str	r1, [sp]
a0001bf0:	e3a03000 	mov	r3, #0
a0001bf4:	e58d300c 	str	r3, [sp, #12]
a0001bf8:	ea000008 	b	a0001c20 <uart_out_str_check_CR+0x40>
a0001bfc:	e59d300c 	ldr	r3, [sp, #12]
a0001c00:	e59d2004 	ldr	r2, [sp, #4]
a0001c04:	e0823003 	add	r3, r2, r3
a0001c08:	e5d33000 	ldrb	r3, [r3]
a0001c0c:	e1a00003 	mov	r0, r3
a0001c10:	ebffffcc 	bl	a0001b48 <uart_out_char_check_CR>
a0001c14:	e59d300c 	ldr	r3, [sp, #12]
a0001c18:	e2833001 	add	r3, r3, #1
a0001c1c:	e58d300c 	str	r3, [sp, #12]
a0001c20:	e59d200c 	ldr	r2, [sp, #12]
a0001c24:	e59d3000 	ldr	r3, [sp]
a0001c28:	e1520003 	cmp	r2, r3
a0001c2c:	bafffff2 	blt	a0001bfc <uart_out_str_check_CR+0x1c>
a0001c30:	e59d300c 	ldr	r3, [sp, #12]
a0001c34:	e1a00003 	mov	r0, r3
a0001c38:	e28dd014 	add	sp, sp, #20
a0001c3c:	e49df004 	pop	{pc}		; (ldr pc, [sp], #4)

a0001c40 <uart_rx_char>:
a0001c40:	e3a03000 	mov	r3, #0
a0001c44:	e1a00003 	mov	r0, r3
a0001c48:	e12fff1e 	bx	lr

a0001c4c <uart_init>:
a0001c4c:	e1a00000 	nop			; (mov r0, r0)
a0001c50:	e12fff1e 	bx	lr

a0001c54 <gpio_cfg_pin>:
a0001c54:	e52de004 	push	{lr}		; (str lr, [sp, #-4]!)
a0001c58:	e24dd01c 	sub	sp, sp, #28
a0001c5c:	e58d000c 	str	r0, [sp, #12]
a0001c60:	e58d1008 	str	r1, [sp, #8]
a0001c64:	e58d2004 	str	r2, [sp, #4]
a0001c68:	e58d3000 	str	r3, [sp]
a0001c6c:	e59d300c 	ldr	r3, [sp, #12]
a0001c70:	e59d2008 	ldr	r2, [sp, #8]
a0001c74:	e7932102 	ldr	r2, [r3, r2, lsl #2]
a0001c78:	e3a01001 	mov	r1, #1
a0001c7c:	e59d3004 	ldr	r3, [sp, #4]
a0001c80:	e1a03311 	lsl	r3, r1, r3
a0001c84:	e1a03403 	lsl	r3, r3, #8
a0001c88:	e1e03003 	mvn	r3, r3
a0001c8c:	e0021003 	and	r1, r2, r3
a0001c90:	e59d300c 	ldr	r3, [sp, #12]
a0001c94:	e59d2008 	ldr	r2, [sp, #8]
a0001c98:	e7831102 	str	r1, [r3, r2, lsl #2]
a0001c9c:	e59d300c 	ldr	r3, [sp, #12]
a0001ca0:	e59d2008 	ldr	r2, [sp, #8]
a0001ca4:	e7932102 	ldr	r2, [r3, r2, lsl #2]
a0001ca8:	e3a01001 	mov	r1, #1
a0001cac:	e59d3004 	ldr	r3, [sp, #4]
a0001cb0:	e1a03311 	lsl	r3, r1, r3
a0001cb4:	e1821003 	orr	r1, r2, r3
a0001cb8:	e59d300c 	ldr	r3, [sp, #12]
a0001cbc:	e59d2008 	ldr	r2, [sp, #8]
a0001cc0:	e7831102 	str	r1, [r3, r2, lsl #2]
a0001cc4:	e59d300c 	ldr	r3, [sp, #12]
a0001cc8:	e59d2008 	ldr	r2, [sp, #8]
a0001ccc:	e2822004 	add	r2, r2, #4
a0001cd0:	e7933102 	ldr	r3, [r3, r2, lsl #2]
a0001cd4:	e58d3014 	str	r3, [sp, #20]
a0001cd8:	e59d2000 	ldr	r2, [sp]
a0001cdc:	e59d3004 	ldr	r3, [sp, #4]
a0001ce0:	e1a03312 	lsl	r3, r2, r3
a0001ce4:	e59d2014 	ldr	r2, [sp, #20]
a0001ce8:	e1823003 	orr	r3, r2, r3
a0001cec:	e58d3014 	str	r3, [sp, #20]
a0001cf0:	e59d3008 	ldr	r3, [sp, #8]
a0001cf4:	e2833004 	add	r3, r3, #4
a0001cf8:	e1a03103 	lsl	r3, r3, #2
a0001cfc:	e59d200c 	ldr	r2, [sp, #12]
a0001d00:	e0823003 	add	r3, r2, r3
a0001d04:	e59d2014 	ldr	r2, [sp, #20]
a0001d08:	e5832000 	str	r2, [r3]
a0001d0c:	e59d000c 	ldr	r0, [sp, #12]
a0001d10:	e59d1008 	ldr	r1, [sp, #8]
a0001d14:	e59d2004 	ldr	r2, [sp, #4]
a0001d18:	e3a03000 	mov	r3, #0
a0001d1c:	eb000053 	bl	a0001e70 <gpio_set_value>
a0001d20:	e28dd01c 	add	sp, sp, #28
a0001d24:	e49df004 	pop	{pc}		; (ldr pc, [sp], #4)

a0001d28 <gpio_msk_pin>:
a0001d28:	e24dd018 	sub	sp, sp, #24
a0001d2c:	e58d000c 	str	r0, [sp, #12]
a0001d30:	e58d1008 	str	r1, [sp, #8]
a0001d34:	e58d2004 	str	r2, [sp, #4]
a0001d38:	e58d3000 	str	r3, [sp]
a0001d3c:	e59d300c 	ldr	r3, [sp, #12]
a0001d40:	e59d2008 	ldr	r2, [sp, #8]
a0001d44:	e2822020 	add	r2, r2, #32
a0001d48:	e7933102 	ldr	r3, [r3, r2, lsl #2]
a0001d4c:	e58d3014 	str	r3, [sp, #20]
a0001d50:	e3a02001 	mov	r2, #1
a0001d54:	e59d3004 	ldr	r3, [sp, #4]
a0001d58:	e1a03312 	lsl	r3, r2, r3
a0001d5c:	e1a03403 	lsl	r3, r3, #8
a0001d60:	e59d2014 	ldr	r2, [sp, #20]
a0001d64:	e1823003 	orr	r3, r2, r3
a0001d68:	e58d3014 	str	r3, [sp, #20]
a0001d6c:	e3a02001 	mov	r2, #1
a0001d70:	e59d3004 	ldr	r3, [sp, #4]
a0001d74:	e1a03312 	lsl	r3, r2, r3
a0001d78:	e59d2014 	ldr	r2, [sp, #20]
a0001d7c:	e1823003 	orr	r3, r2, r3
a0001d80:	e58d3014 	str	r3, [sp, #20]
a0001d84:	e59d3008 	ldr	r3, [sp, #8]
a0001d88:	e2833020 	add	r3, r3, #32
a0001d8c:	e1a03103 	lsl	r3, r3, #2
a0001d90:	e59d200c 	ldr	r2, [sp, #12]
a0001d94:	e0823003 	add	r3, r2, r3
a0001d98:	e59d2014 	ldr	r2, [sp, #20]
a0001d9c:	e5832000 	str	r2, [r3]
a0001da0:	e59d300c 	ldr	r3, [sp, #12]
a0001da4:	e59d2008 	ldr	r2, [sp, #8]
a0001da8:	e2822024 	add	r2, r2, #36	; 0x24
a0001dac:	e7933102 	ldr	r3, [r3, r2, lsl #2]
a0001db0:	e58d3014 	str	r3, [sp, #20]
a0001db4:	e3a02001 	mov	r2, #1
a0001db8:	e59d3004 	ldr	r3, [sp, #4]
a0001dbc:	e1a03312 	lsl	r3, r2, r3
a0001dc0:	e1a03403 	lsl	r3, r3, #8
a0001dc4:	e59d2014 	ldr	r2, [sp, #20]
a0001dc8:	e1823003 	orr	r3, r2, r3
a0001dcc:	e58d3014 	str	r3, [sp, #20]
a0001dd0:	e3a02001 	mov	r2, #1
a0001dd4:	e59d3004 	ldr	r3, [sp, #4]
a0001dd8:	e1a03312 	lsl	r3, r2, r3
a0001ddc:	e59d2014 	ldr	r2, [sp, #20]
a0001de0:	e1823003 	orr	r3, r2, r3
a0001de4:	e58d3014 	str	r3, [sp, #20]
a0001de8:	e59d3008 	ldr	r3, [sp, #8]
a0001dec:	e2833024 	add	r3, r3, #36	; 0x24
a0001df0:	e1a03103 	lsl	r3, r3, #2
a0001df4:	e59d200c 	ldr	r2, [sp, #12]
a0001df8:	e0823003 	add	r3, r2, r3
a0001dfc:	e59d2014 	ldr	r2, [sp, #20]
a0001e00:	e5832000 	str	r2, [r3]
a0001e04:	e59d300c 	ldr	r3, [sp, #12]
a0001e08:	e59d2008 	ldr	r2, [sp, #8]
a0001e0c:	e2822028 	add	r2, r2, #40	; 0x28
a0001e10:	e7933102 	ldr	r3, [r3, r2, lsl #2]
a0001e14:	e58d3014 	str	r3, [sp, #20]
a0001e18:	e3a02001 	mov	r2, #1
a0001e1c:	e59d3004 	ldr	r3, [sp, #4]
a0001e20:	e1a03312 	lsl	r3, r2, r3
a0001e24:	e1a03403 	lsl	r3, r3, #8
a0001e28:	e59d2014 	ldr	r2, [sp, #20]
a0001e2c:	e1823003 	orr	r3, r2, r3
a0001e30:	e58d3014 	str	r3, [sp, #20]
a0001e34:	e3a02001 	mov	r2, #1
a0001e38:	e59d3004 	ldr	r3, [sp, #4]
a0001e3c:	e1a03312 	lsl	r3, r2, r3
a0001e40:	e59d2014 	ldr	r2, [sp, #20]
a0001e44:	e1823003 	orr	r3, r2, r3
a0001e48:	e58d3014 	str	r3, [sp, #20]
a0001e4c:	e59d3008 	ldr	r3, [sp, #8]
a0001e50:	e2833028 	add	r3, r3, #40	; 0x28
a0001e54:	e1a03103 	lsl	r3, r3, #2
a0001e58:	e59d200c 	ldr	r2, [sp, #12]
a0001e5c:	e0823003 	add	r3, r2, r3
a0001e60:	e59d2014 	ldr	r2, [sp, #20]
a0001e64:	e5832000 	str	r2, [r3]
a0001e68:	e28dd018 	add	sp, sp, #24
a0001e6c:	e12fff1e 	bx	lr

a0001e70 <gpio_set_value>:
a0001e70:	e24dd018 	sub	sp, sp, #24
a0001e74:	e58d000c 	str	r0, [sp, #12]
a0001e78:	e58d1008 	str	r1, [sp, #8]
a0001e7c:	e58d2004 	str	r2, [sp, #4]
a0001e80:	e58d3000 	str	r3, [sp]
a0001e84:	e59d300c 	ldr	r3, [sp, #12]
a0001e88:	e59d2008 	ldr	r2, [sp, #8]
a0001e8c:	e2822008 	add	r2, r2, #8
a0001e90:	e7933102 	ldr	r3, [r3, r2, lsl #2]
a0001e94:	e58d3014 	str	r3, [sp, #20]
a0001e98:	e3a02001 	mov	r2, #1
a0001e9c:	e59d3004 	ldr	r3, [sp, #4]
a0001ea0:	e1a03312 	lsl	r3, r2, r3
a0001ea4:	e1e03003 	mvn	r3, r3
a0001ea8:	e59d2014 	ldr	r2, [sp, #20]
a0001eac:	e0023003 	and	r3, r2, r3
a0001eb0:	e58d3014 	str	r3, [sp, #20]
a0001eb4:	e59d3000 	ldr	r3, [sp]
a0001eb8:	e3530000 	cmp	r3, #0
a0001ebc:	0a000005 	beq	a0001ed8 <gpio_set_value+0x68>
a0001ec0:	e3a02001 	mov	r2, #1
a0001ec4:	e59d3004 	ldr	r3, [sp, #4]
a0001ec8:	e1a03312 	lsl	r3, r2, r3
a0001ecc:	e59d2014 	ldr	r2, [sp, #20]
a0001ed0:	e1823003 	orr	r3, r2, r3
a0001ed4:	e58d3014 	str	r3, [sp, #20]
a0001ed8:	e59d3008 	ldr	r3, [sp, #8]
a0001edc:	e2833008 	add	r3, r3, #8
a0001ee0:	e1a03103 	lsl	r3, r3, #2
a0001ee4:	e59d200c 	ldr	r2, [sp, #12]
a0001ee8:	e0823003 	add	r3, r2, r3
a0001eec:	e59d2014 	ldr	r2, [sp, #20]
a0001ef0:	e5832000 	str	r2, [r3]
a0001ef4:	e28dd018 	add	sp, sp, #24
a0001ef8:	e12fff1e 	bx	lr

a0001efc <gpio_get_value>:
a0001efc:	e24dd018 	sub	sp, sp, #24
a0001f00:	e58d000c 	str	r0, [sp, #12]
a0001f04:	e58d1008 	str	r1, [sp, #8]
a0001f08:	e58d2004 	str	r2, [sp, #4]
a0001f0c:	e3a03000 	mov	r3, #0
a0001f10:	e58d3014 	str	r3, [sp, #20]
a0001f14:	e59d300c 	ldr	r3, [sp, #12]
a0001f18:	e59d2008 	ldr	r2, [sp, #8]
a0001f1c:	e282200c 	add	r2, r2, #12
a0001f20:	e7933102 	ldr	r3, [r3, r2, lsl #2]
a0001f24:	e58d3014 	str	r3, [sp, #20]
a0001f28:	e3a02001 	mov	r2, #1
a0001f2c:	e59d3004 	ldr	r3, [sp, #4]
a0001f30:	e1a03312 	lsl	r3, r2, r3
a0001f34:	e59d2014 	ldr	r2, [sp, #20]
a0001f38:	e0023003 	and	r3, r2, r3
a0001f3c:	e58d3014 	str	r3, [sp, #20]
a0001f40:	e59d3014 	ldr	r3, [sp, #20]
a0001f44:	e3530000 	cmp	r3, #0
a0001f48:	03a03000 	moveq	r3, #0
a0001f4c:	13a03001 	movne	r3, #1
a0001f50:	e6ef3073 	uxtb	r3, r3
a0001f54:	e1a00003 	mov	r0, r3
a0001f58:	e28dd018 	add	sp, sp, #24
a0001f5c:	e12fff1e 	bx	lr

a0001f60 <qph_gpio_set_value>:
a0001f60:	e24dd018 	sub	sp, sp, #24
a0001f64:	e58d000c 	str	r0, [sp, #12]
a0001f68:	e58d1008 	str	r1, [sp, #8]
a0001f6c:	e58d2004 	str	r2, [sp, #4]
a0001f70:	e58d3000 	str	r3, [sp]
a0001f74:	e59d300c 	ldr	r3, [sp, #12]
a0001f78:	e59d2008 	ldr	r2, [sp, #8]
a0001f7c:	e7932102 	ldr	r2, [r3, r2, lsl #2]
a0001f80:	e3a01001 	mov	r1, #1
a0001f84:	e59d3004 	ldr	r3, [sp, #4]
a0001f88:	e1a03311 	lsl	r3, r1, r3
a0001f8c:	e1a03403 	lsl	r3, r3, #8
a0001f90:	e1e03003 	mvn	r3, r3
a0001f94:	e0021003 	and	r1, r2, r3
a0001f98:	e59d300c 	ldr	r3, [sp, #12]
a0001f9c:	e59d2008 	ldr	r2, [sp, #8]
a0001fa0:	e7831102 	str	r1, [r3, r2, lsl #2]
a0001fa4:	e59d300c 	ldr	r3, [sp, #12]
a0001fa8:	e59d2008 	ldr	r2, [sp, #8]
a0001fac:	e7932102 	ldr	r2, [r3, r2, lsl #2]
a0001fb0:	e3a01001 	mov	r1, #1
a0001fb4:	e59d3004 	ldr	r3, [sp, #4]
a0001fb8:	e1a03311 	lsl	r3, r1, r3
a0001fbc:	e1821003 	orr	r1, r2, r3
a0001fc0:	e59d300c 	ldr	r3, [sp, #12]
a0001fc4:	e59d2008 	ldr	r2, [sp, #8]
a0001fc8:	e7831102 	str	r1, [r3, r2, lsl #2]
a0001fcc:	e59d300c 	ldr	r3, [sp, #12]
a0001fd0:	e59d2008 	ldr	r2, [sp, #8]
a0001fd4:	e2822004 	add	r2, r2, #4
a0001fd8:	e7932102 	ldr	r2, [r3, r2, lsl #2]
a0001fdc:	e3a01001 	mov	r1, #1
a0001fe0:	e59d3004 	ldr	r3, [sp, #4]
a0001fe4:	e1a03311 	lsl	r3, r1, r3
a0001fe8:	e1821003 	orr	r1, r2, r3
a0001fec:	e59d300c 	ldr	r3, [sp, #12]
a0001ff0:	e59d2008 	ldr	r2, [sp, #8]
a0001ff4:	e2822004 	add	r2, r2, #4
a0001ff8:	e7831102 	str	r1, [r3, r2, lsl #2]
a0001ffc:	e59d300c 	ldr	r3, [sp, #12]
a0002000:	e59d2008 	ldr	r2, [sp, #8]
a0002004:	e2822008 	add	r2, r2, #8
a0002008:	e7933102 	ldr	r3, [r3, r2, lsl #2]
a000200c:	e58d3014 	str	r3, [sp, #20]
a0002010:	e3a02001 	mov	r2, #1
a0002014:	e59d3004 	ldr	r3, [sp, #4]
a0002018:	e1a03312 	lsl	r3, r2, r3
a000201c:	e1e03003 	mvn	r3, r3
a0002020:	e59d2014 	ldr	r2, [sp, #20]
a0002024:	e0023003 	and	r3, r2, r3
a0002028:	e58d3014 	str	r3, [sp, #20]
a000202c:	e59d3000 	ldr	r3, [sp]
a0002030:	e3530000 	cmp	r3, #0
a0002034:	0a000005 	beq	a0002050 <qph_gpio_set_value+0xf0>
a0002038:	e3a02001 	mov	r2, #1
a000203c:	e59d3004 	ldr	r3, [sp, #4]
a0002040:	e1a03312 	lsl	r3, r2, r3
a0002044:	e59d2014 	ldr	r2, [sp, #20]
a0002048:	e1823003 	orr	r3, r2, r3
a000204c:	e58d3014 	str	r3, [sp, #20]
a0002050:	e59d3008 	ldr	r3, [sp, #8]
a0002054:	e2833008 	add	r3, r3, #8
a0002058:	e1a03103 	lsl	r3, r3, #2
a000205c:	e59d200c 	ldr	r2, [sp, #12]
a0002060:	e0823003 	add	r3, r2, r3
a0002064:	e59d2014 	ldr	r2, [sp, #20]
a0002068:	e5832000 	str	r2, [r3]
a000206c:	e28dd018 	add	sp, sp, #24
a0002070:	e12fff1e 	bx	lr

a0002074 <putc>:
a0002074:	e52de004 	push	{lr}		; (str lr, [sp, #-4]!)
a0002078:	e24dd00c 	sub	sp, sp, #12
a000207c:	e1a03000 	mov	r3, r0
a0002080:	e5cd3007 	strb	r3, [sp, #7]
a0002084:	e5dd3007 	ldrb	r3, [sp, #7]
a0002088:	e1a00003 	mov	r0, r3
a000208c:	ebfffead 	bl	a0001b48 <uart_out_char_check_CR>
a0002090:	e3a03001 	mov	r3, #1
a0002094:	e1a00003 	mov	r0, r3
a0002098:	e28dd00c 	add	sp, sp, #12
a000209c:	e49df004 	pop	{pc}		; (ldr pc, [sp], #4)

a00020a0 <putx>:
a00020a0:	e52de004 	push	{lr}		; (str lr, [sp, #-4]!)
a00020a4:	e24dd00c 	sub	sp, sp, #12
a00020a8:	e1a03000 	mov	r3, r0
a00020ac:	e5cd3007 	strb	r3, [sp, #7]
a00020b0:	e5dd3007 	ldrb	r3, [sp, #7]
a00020b4:	e1a00003 	mov	r0, r3
a00020b8:	ebfffe7c 	bl	a0001ab0 <uart_tx_char>
a00020bc:	e3a03001 	mov	r3, #1
a00020c0:	e1a00003 	mov	r0, r3
a00020c4:	e28dd00c 	add	sp, sp, #12
a00020c8:	e49df004 	pop	{pc}		; (ldr pc, [sp], #4)

a00020cc <printf>:
a00020cc:	e92d000f 	push	{r0, r1, r2, r3}
a00020d0:	e52de004 	push	{lr}		; (str lr, [sp, #-4]!)
a00020d4:	e24ddb01 	sub	sp, sp, #1024	; 0x400
a00020d8:	e24dd00c 	sub	sp, sp, #12
a00020dc:	e28d3e41 	add	r3, sp, #1040	; 0x410
a00020e0:	e2833004 	add	r3, r3, #4
a00020e4:	e58d3404 	str	r3, [sp, #1028]	; 0x404
a00020e8:	e59d2410 	ldr	r2, [sp, #1040]	; 0x410
a00020ec:	e28d3008 	add	r3, sp, #8
a00020f0:	e2433008 	sub	r3, r3, #8
a00020f4:	e1a00003 	mov	r0, r3
a00020f8:	e1a01002 	mov	r1, r2
a00020fc:	e59d2404 	ldr	r2, [sp, #1028]	; 0x404
a0002100:	eb0005e6 	bl	a00038a0 <vsprintf>
a0002104:	e58d0400 	str	r0, [sp, #1024]	; 0x400
a0002108:	e28d3008 	add	r3, sp, #8
a000210c:	e2433008 	sub	r3, r3, #8
a0002110:	e1a00003 	mov	r0, r3
a0002114:	e59d1400 	ldr	r1, [sp, #1024]	; 0x400
a0002118:	ebfffeb0 	bl	a0001be0 <uart_out_str_check_CR>
a000211c:	e59d3400 	ldr	r3, [sp, #1024]	; 0x400
a0002120:	e1a00003 	mov	r0, r3
a0002124:	e28ddb01 	add	sp, sp, #1024	; 0x400
a0002128:	e28dd00c 	add	sp, sp, #12
a000212c:	e49de004 	pop	{lr}		; (ldr lr, [sp], #4)
a0002130:	e28dd010 	add	sp, sp, #16
a0002134:	e12fff1e 	bx	lr

a0002138 <em_printf>:
a0002138:	e92d000f 	push	{r0, r1, r2, r3}
a000213c:	e52de004 	push	{lr}		; (str lr, [sp, #-4]!)
a0002140:	e24ddb01 	sub	sp, sp, #1024	; 0x400
a0002144:	e24dd00c 	sub	sp, sp, #12
a0002148:	e28d3e41 	add	r3, sp, #1040	; 0x410
a000214c:	e2833004 	add	r3, r3, #4
a0002150:	e58d3404 	str	r3, [sp, #1028]	; 0x404
a0002154:	e59d2410 	ldr	r2, [sp, #1040]	; 0x410
a0002158:	e28d3008 	add	r3, sp, #8
a000215c:	e2433008 	sub	r3, r3, #8
a0002160:	e1a00003 	mov	r0, r3
a0002164:	e1a01002 	mov	r1, r2
a0002168:	e59d2404 	ldr	r2, [sp, #1028]	; 0x404
a000216c:	eb0005cb 	bl	a00038a0 <vsprintf>
a0002170:	e58d0400 	str	r0, [sp, #1024]	; 0x400
a0002174:	e28d3008 	add	r3, sp, #8
a0002178:	e2433008 	sub	r3, r3, #8
a000217c:	e1a00003 	mov	r0, r3
a0002180:	e59d1400 	ldr	r1, [sp, #1024]	; 0x400
a0002184:	ebfffe95 	bl	a0001be0 <uart_out_str_check_CR>
a0002188:	e59d3400 	ldr	r3, [sp, #1024]	; 0x400
a000218c:	e1a00003 	mov	r0, r3
a0002190:	e28ddb01 	add	sp, sp, #1024	; 0x400
a0002194:	e28dd00c 	add	sp, sp, #12
a0002198:	e49de004 	pop	{lr}		; (ldr lr, [sp], #4)
a000219c:	e28dd010 	add	sp, sp, #16
a00021a0:	e12fff1e 	bx	lr

a00021a4 <getc>:
a00021a4:	e92d4008 	push	{r3, lr}
a00021a8:	ebfffea4 	bl	a0001c40 <uart_rx_char>
a00021ac:	e1a03000 	mov	r3, r0
a00021b0:	e1a00003 	mov	r0, r3
a00021b4:	e8bd8008 	pop	{r3, pc}

a00021b8 <gets>:
a00021b8:	e52de004 	push	{lr}		; (str lr, [sp, #-4]!)
a00021bc:	e24dd014 	sub	sp, sp, #20
a00021c0:	e58d0004 	str	r0, [sp, #4]
a00021c4:	e3a03000 	mov	r3, #0
a00021c8:	e58d300c 	str	r3, [sp, #12]
a00021cc:	ea000020 	b	a0002254 <gets+0x9c>
a00021d0:	e5dd300b 	ldrb	r3, [sp, #11]
a00021d4:	e3530008 	cmp	r3, #8
a00021d8:	0a00000e 	beq	a0002218 <gets+0x60>
a00021dc:	e59d300c 	ldr	r3, [sp, #12]
a00021e0:	e2833001 	add	r3, r3, #1
a00021e4:	e58d300c 	str	r3, [sp, #12]
a00021e8:	e59d3004 	ldr	r3, [sp, #4]
a00021ec:	e2832001 	add	r2, r3, #1
a00021f0:	e58d2004 	str	r2, [sp, #4]
a00021f4:	e5dd200b 	ldrb	r2, [sp, #11]
a00021f8:	e5c32000 	strb	r2, [r3]
a00021fc:	e5dd300b 	ldrb	r3, [sp, #11]
a0002200:	e59f2080 	ldr	r2, [pc, #128]	; a0002288 <gets+0xd0>
a0002204:	e08f2002 	add	r2, pc, r2
a0002208:	e1a00002 	mov	r0, r2
a000220c:	e1a01003 	mov	r1, r3
a0002210:	ebffffc8 	bl	a0002138 <em_printf>
a0002214:	ea00000e 	b	a0002254 <gets+0x9c>
a0002218:	e59d300c 	ldr	r3, [sp, #12]
a000221c:	e3530000 	cmp	r3, #0
a0002220:	da00000b 	ble	a0002254 <gets+0x9c>
a0002224:	e59d300c 	ldr	r3, [sp, #12]
a0002228:	e2433001 	sub	r3, r3, #1
a000222c:	e58d300c 	str	r3, [sp, #12]
a0002230:	e59d3004 	ldr	r3, [sp, #4]
a0002234:	e2432001 	sub	r2, r3, #1
a0002238:	e58d2004 	str	r2, [sp, #4]
a000223c:	e3a02020 	mov	r2, #32
a0002240:	e5c32000 	strb	r2, [r3]
a0002244:	e59f3040 	ldr	r3, [pc, #64]	; a000228c <gets+0xd4>
a0002248:	e08f3003 	add	r3, pc, r3
a000224c:	e1a00003 	mov	r0, r3
a0002250:	ebffff9d 	bl	a00020cc <printf>
a0002254:	ebffffd2 	bl	a00021a4 <getc>
a0002258:	e1a03000 	mov	r3, r0
a000225c:	e5cd300b 	strb	r3, [sp, #11]
a0002260:	e5dd300b 	ldrb	r3, [sp, #11]
a0002264:	e353000d 	cmp	r3, #13
a0002268:	1affffd8 	bne	a00021d0 <gets+0x18>
a000226c:	e59d3004 	ldr	r3, [sp, #4]
a0002270:	e3a02000 	mov	r2, #0
a0002274:	e5c32000 	strb	r2, [r3]
a0002278:	e59d300c 	ldr	r3, [sp, #12]
a000227c:	e1a00003 	mov	r0, r3
a0002280:	e28dd014 	add	sp, sp, #20
a0002284:	e49df004 	pop	{pc}		; (ldr pc, [sp], #4)
a0002288:	0000735c 	andeq	r7, r0, ip, asr r3
a000228c:	0000731c 	andeq	r7, r0, ip, lsl r3

a0002290 <serial_gets>:
a0002290:	e92d4010 	push	{r4, lr}
a0002294:	e24dd010 	sub	sp, sp, #16
a0002298:	e58d0004 	str	r0, [sp, #4]
a000229c:	e58d1000 	str	r1, [sp]
a00022a0:	e3a03000 	mov	r3, #0
a00022a4:	e58d300c 	str	r3, [sp, #12]
a00022a8:	ea000009 	b	a00022d4 <serial_gets+0x44>
a00022ac:	e59d300c 	ldr	r3, [sp, #12]
a00022b0:	e59d2004 	ldr	r2, [sp, #4]
a00022b4:	e0824003 	add	r4, r2, r3
a00022b8:	ebffffb9 	bl	a00021a4 <getc>
a00022bc:	e1a03000 	mov	r3, r0
a00022c0:	e6ef3073 	uxtb	r3, r3
a00022c4:	e5c43000 	strb	r3, [r4]
a00022c8:	e59d300c 	ldr	r3, [sp, #12]
a00022cc:	e2833001 	add	r3, r3, #1
a00022d0:	e58d300c 	str	r3, [sp, #12]
a00022d4:	e59d200c 	ldr	r2, [sp, #12]
a00022d8:	e59d3000 	ldr	r3, [sp]
a00022dc:	e1520003 	cmp	r2, r3
a00022e0:	bafffff1 	blt	a00022ac <serial_gets+0x1c>
a00022e4:	e3a03000 	mov	r3, #0
a00022e8:	e1a00003 	mov	r0, r3
a00022ec:	e28dd010 	add	sp, sp, #16
a00022f0:	e8bd8010 	pop	{r4, pc}

a00022f4 <__tolower>:
a00022f4:	e24dd008 	sub	sp, sp, #8
a00022f8:	e1a03000 	mov	r3, r0
a00022fc:	e5cd3007 	strb	r3, [sp, #7]
a0002300:	e59f1038 	ldr	r1, [pc, #56]	; a0002340 <__tolower+0x4c>
a0002304:	e08f1001 	add	r1, pc, r1
a0002308:	e5dd3007 	ldrb	r3, [sp, #7]
a000230c:	e59f2030 	ldr	r2, [pc, #48]	; a0002344 <__tolower+0x50>
a0002310:	e7912002 	ldr	r2, [r1, r2]
a0002314:	e7d23003 	ldrb	r3, [r2, r3]
a0002318:	e2033001 	and	r3, r3, #1
a000231c:	e3530000 	cmp	r3, #0
a0002320:	0a000002 	beq	a0002330 <__tolower+0x3c>
a0002324:	e5dd3007 	ldrb	r3, [sp, #7]
a0002328:	e2833020 	add	r3, r3, #32
a000232c:	e5cd3007 	strb	r3, [sp, #7]
a0002330:	e5dd3007 	ldrb	r3, [sp, #7]
a0002334:	e1a00003 	mov	r0, r3
a0002338:	e28dd008 	add	sp, sp, #8
a000233c:	e12fff1e 	bx	lr
a0002340:	0000739c 	muleq	r0, ip, r3
a0002344:	00000010 	andeq	r0, r0, r0, lsl r0

a0002348 <__toupper>:
a0002348:	e24dd008 	sub	sp, sp, #8
a000234c:	e1a03000 	mov	r3, r0
a0002350:	e5cd3007 	strb	r3, [sp, #7]
a0002354:	e59f1038 	ldr	r1, [pc, #56]	; a0002394 <__toupper+0x4c>
a0002358:	e08f1001 	add	r1, pc, r1
a000235c:	e5dd3007 	ldrb	r3, [sp, #7]
a0002360:	e59f2030 	ldr	r2, [pc, #48]	; a0002398 <__toupper+0x50>
a0002364:	e7912002 	ldr	r2, [r1, r2]
a0002368:	e7d23003 	ldrb	r3, [r2, r3]
a000236c:	e2033002 	and	r3, r3, #2
a0002370:	e3530000 	cmp	r3, #0
a0002374:	0a000002 	beq	a0002384 <__toupper+0x3c>
a0002378:	e5dd3007 	ldrb	r3, [sp, #7]
a000237c:	e2433020 	sub	r3, r3, #32
a0002380:	e5cd3007 	strb	r3, [sp, #7]
a0002384:	e5dd3007 	ldrb	r3, [sp, #7]
a0002388:	e1a00003 	mov	r0, r3
a000238c:	e28dd008 	add	sp, sp, #8
a0002390:	e12fff1e 	bx	lr
a0002394:	00007348 	andeq	r7, r0, r8, asr #6
a0002398:	00000010 	andeq	r0, r0, r0, lsl r0

a000239c <strnicmp>:
a000239c:	e52de004 	push	{lr}		; (str lr, [sp, #-4]!)
a00023a0:	e24dd01c 	sub	sp, sp, #28
a00023a4:	e58d000c 	str	r0, [sp, #12]
a00023a8:	e58d1008 	str	r1, [sp, #8]
a00023ac:	e58d2004 	str	r2, [sp, #4]
a00023b0:	e3a03000 	mov	r3, #0
a00023b4:	e5cd3017 	strb	r3, [sp, #23]
a00023b8:	e3a03000 	mov	r3, #0
a00023bc:	e5cd3016 	strb	r3, [sp, #22]
a00023c0:	e59d3004 	ldr	r3, [sp, #4]
a00023c4:	e3530000 	cmp	r3, #0
a00023c8:	0a00002d 	beq	a0002484 <strnicmp+0xe8>
a00023cc:	e59d300c 	ldr	r3, [sp, #12]
a00023d0:	e5d33000 	ldrb	r3, [r3]
a00023d4:	e5cd3017 	strb	r3, [sp, #23]
a00023d8:	e59d3008 	ldr	r3, [sp, #8]
a00023dc:	e5d33000 	ldrb	r3, [r3]
a00023e0:	e5cd3016 	strb	r3, [sp, #22]
a00023e4:	e59d300c 	ldr	r3, [sp, #12]
a00023e8:	e2833001 	add	r3, r3, #1
a00023ec:	e58d300c 	str	r3, [sp, #12]
a00023f0:	e59d3008 	ldr	r3, [sp, #8]
a00023f4:	e2833001 	add	r3, r3, #1
a00023f8:	e58d3008 	str	r3, [sp, #8]
a00023fc:	e5dd3017 	ldrb	r3, [sp, #23]
a0002400:	e3530000 	cmp	r3, #0
a0002404:	1a000000 	bne	a000240c <strnicmp+0x70>
a0002408:	ea00001d 	b	a0002484 <strnicmp+0xe8>
a000240c:	e5dd3016 	ldrb	r3, [sp, #22]
a0002410:	e3530000 	cmp	r3, #0
a0002414:	1a000000 	bne	a000241c <strnicmp+0x80>
a0002418:	ea000019 	b	a0002484 <strnicmp+0xe8>
a000241c:	e5dd2017 	ldrb	r2, [sp, #23]
a0002420:	e5dd3016 	ldrb	r3, [sp, #22]
a0002424:	e1520003 	cmp	r2, r3
a0002428:	1a000000 	bne	a0002430 <strnicmp+0x94>
a000242c:	ea00000e 	b	a000246c <strnicmp+0xd0>
a0002430:	e5dd3017 	ldrb	r3, [sp, #23]
a0002434:	e1a00003 	mov	r0, r3
a0002438:	ebffffad 	bl	a00022f4 <__tolower>
a000243c:	e1a03000 	mov	r3, r0
a0002440:	e5cd3017 	strb	r3, [sp, #23]
a0002444:	e5dd3016 	ldrb	r3, [sp, #22]
a0002448:	e1a00003 	mov	r0, r3
a000244c:	ebffffa8 	bl	a00022f4 <__tolower>
a0002450:	e1a03000 	mov	r3, r0
a0002454:	e5cd3016 	strb	r3, [sp, #22]
a0002458:	e5dd2017 	ldrb	r2, [sp, #23]
a000245c:	e5dd3016 	ldrb	r3, [sp, #22]
a0002460:	e1520003 	cmp	r2, r3
a0002464:	0a000000 	beq	a000246c <strnicmp+0xd0>
a0002468:	ea000005 	b	a0002484 <strnicmp+0xe8>
a000246c:	e59d3004 	ldr	r3, [sp, #4]
a0002470:	e2433001 	sub	r3, r3, #1
a0002474:	e58d3004 	str	r3, [sp, #4]
a0002478:	e59d3004 	ldr	r3, [sp, #4]
a000247c:	e3530000 	cmp	r3, #0
a0002480:	1affffd1 	bne	a00023cc <strnicmp+0x30>
a0002484:	e5dd2017 	ldrb	r2, [sp, #23]
a0002488:	e5dd3016 	ldrb	r3, [sp, #22]
a000248c:	e0633002 	rsb	r3, r3, r2
a0002490:	e1a00003 	mov	r0, r3
a0002494:	e28dd01c 	add	sp, sp, #28
a0002498:	e49df004 	pop	{pc}		; (ldr pc, [sp], #4)

a000249c <strcpy>:
a000249c:	e24dd010 	sub	sp, sp, #16
a00024a0:	e58d0004 	str	r0, [sp, #4]
a00024a4:	e58d1000 	str	r1, [sp]
a00024a8:	e59d3004 	ldr	r3, [sp, #4]
a00024ac:	e58d300c 	str	r3, [sp, #12]
a00024b0:	e1a00000 	nop			; (mov r0, r0)
a00024b4:	e59d3004 	ldr	r3, [sp, #4]
a00024b8:	e2832001 	add	r2, r3, #1
a00024bc:	e58d2004 	str	r2, [sp, #4]
a00024c0:	e59d2000 	ldr	r2, [sp]
a00024c4:	e2821001 	add	r1, r2, #1
a00024c8:	e58d1000 	str	r1, [sp]
a00024cc:	e5d22000 	ldrb	r2, [r2]
a00024d0:	e5c32000 	strb	r2, [r3]
a00024d4:	e5d33000 	ldrb	r3, [r3]
a00024d8:	e3530000 	cmp	r3, #0
a00024dc:	1afffff4 	bne	a00024b4 <strcpy+0x18>
a00024e0:	e59d300c 	ldr	r3, [sp, #12]
a00024e4:	e1a00003 	mov	r0, r3
a00024e8:	e28dd010 	add	sp, sp, #16
a00024ec:	e12fff1e 	bx	lr

a00024f0 <strncpy>:
a00024f0:	e24dd018 	sub	sp, sp, #24
a00024f4:	e58d000c 	str	r0, [sp, #12]
a00024f8:	e58d1008 	str	r1, [sp, #8]
a00024fc:	e58d2004 	str	r2, [sp, #4]
a0002500:	e59d300c 	ldr	r3, [sp, #12]
a0002504:	e58d3014 	str	r3, [sp, #20]
a0002508:	e1a00000 	nop			; (mov r0, r0)
a000250c:	e59d3004 	ldr	r3, [sp, #4]
a0002510:	e2432001 	sub	r2, r3, #1
a0002514:	e58d2004 	str	r2, [sp, #4]
a0002518:	e3530000 	cmp	r3, #0
a000251c:	0a00000a 	beq	a000254c <strncpy+0x5c>
a0002520:	e59d300c 	ldr	r3, [sp, #12]
a0002524:	e2832001 	add	r2, r3, #1
a0002528:	e58d200c 	str	r2, [sp, #12]
a000252c:	e59d2008 	ldr	r2, [sp, #8]
a0002530:	e2821001 	add	r1, r2, #1
a0002534:	e58d1008 	str	r1, [sp, #8]
a0002538:	e5d22000 	ldrb	r2, [r2]
a000253c:	e5c32000 	strb	r2, [r3]
a0002540:	e5d33000 	ldrb	r3, [r3]
a0002544:	e3530000 	cmp	r3, #0
a0002548:	1affffef 	bne	a000250c <strncpy+0x1c>
a000254c:	e59d3014 	ldr	r3, [sp, #20]
a0002550:	e1a00003 	mov	r0, r3
a0002554:	e28dd018 	add	sp, sp, #24
a0002558:	e12fff1e 	bx	lr

a000255c <strcat>:
a000255c:	e24dd010 	sub	sp, sp, #16
a0002560:	e58d0004 	str	r0, [sp, #4]
a0002564:	e58d1000 	str	r1, [sp]
a0002568:	e59d3004 	ldr	r3, [sp, #4]
a000256c:	e58d300c 	str	r3, [sp, #12]
a0002570:	ea000002 	b	a0002580 <strcat+0x24>
a0002574:	e59d3004 	ldr	r3, [sp, #4]
a0002578:	e2833001 	add	r3, r3, #1
a000257c:	e58d3004 	str	r3, [sp, #4]
a0002580:	e59d3004 	ldr	r3, [sp, #4]
a0002584:	e5d33000 	ldrb	r3, [r3]
a0002588:	e3530000 	cmp	r3, #0
a000258c:	1afffff8 	bne	a0002574 <strcat+0x18>
a0002590:	e1a00000 	nop			; (mov r0, r0)
a0002594:	e59d3004 	ldr	r3, [sp, #4]
a0002598:	e2832001 	add	r2, r3, #1
a000259c:	e58d2004 	str	r2, [sp, #4]
a00025a0:	e59d2000 	ldr	r2, [sp]
a00025a4:	e2821001 	add	r1, r2, #1
a00025a8:	e58d1000 	str	r1, [sp]
a00025ac:	e5d22000 	ldrb	r2, [r2]
a00025b0:	e5c32000 	strb	r2, [r3]
a00025b4:	e5d33000 	ldrb	r3, [r3]
a00025b8:	e3530000 	cmp	r3, #0
a00025bc:	1afffff4 	bne	a0002594 <strcat+0x38>
a00025c0:	e59d300c 	ldr	r3, [sp, #12]
a00025c4:	e1a00003 	mov	r0, r3
a00025c8:	e28dd010 	add	sp, sp, #16
a00025cc:	e12fff1e 	bx	lr

a00025d0 <strncat>:
a00025d0:	e24dd018 	sub	sp, sp, #24
a00025d4:	e58d000c 	str	r0, [sp, #12]
a00025d8:	e58d1008 	str	r1, [sp, #8]
a00025dc:	e58d2004 	str	r2, [sp, #4]
a00025e0:	e59d300c 	ldr	r3, [sp, #12]
a00025e4:	e58d3014 	str	r3, [sp, #20]
a00025e8:	e59d3004 	ldr	r3, [sp, #4]
a00025ec:	e3530000 	cmp	r3, #0
a00025f0:	0a00001d 	beq	a000266c <strncat+0x9c>
a00025f4:	ea000002 	b	a0002604 <strncat+0x34>
a00025f8:	e59d300c 	ldr	r3, [sp, #12]
a00025fc:	e2833001 	add	r3, r3, #1
a0002600:	e58d300c 	str	r3, [sp, #12]
a0002604:	e59d300c 	ldr	r3, [sp, #12]
a0002608:	e5d33000 	ldrb	r3, [r3]
a000260c:	e3530000 	cmp	r3, #0
a0002610:	1afffff8 	bne	a00025f8 <strncat+0x28>
a0002614:	ea000009 	b	a0002640 <strncat+0x70>
a0002618:	e59d3004 	ldr	r3, [sp, #4]
a000261c:	e2433001 	sub	r3, r3, #1
a0002620:	e58d3004 	str	r3, [sp, #4]
a0002624:	e59d3004 	ldr	r3, [sp, #4]
a0002628:	e3530000 	cmp	r3, #0
a000262c:	1a000003 	bne	a0002640 <strncat+0x70>
a0002630:	e59d300c 	ldr	r3, [sp, #12]
a0002634:	e3a02000 	mov	r2, #0
a0002638:	e5c32000 	strb	r2, [r3]
a000263c:	ea00000a 	b	a000266c <strncat+0x9c>
a0002640:	e59d300c 	ldr	r3, [sp, #12]
a0002644:	e2832001 	add	r2, r3, #1
a0002648:	e58d200c 	str	r2, [sp, #12]
a000264c:	e59d2008 	ldr	r2, [sp, #8]
a0002650:	e2821001 	add	r1, r2, #1
a0002654:	e58d1008 	str	r1, [sp, #8]
a0002658:	e5d22000 	ldrb	r2, [r2]
a000265c:	e5c32000 	strb	r2, [r3]
a0002660:	e5d33000 	ldrb	r3, [r3]
a0002664:	e3530000 	cmp	r3, #0
a0002668:	1affffea 	bne	a0002618 <strncat+0x48>
a000266c:	e59d3014 	ldr	r3, [sp, #20]
a0002670:	e1a00003 	mov	r0, r3
a0002674:	e28dd018 	add	sp, sp, #24
a0002678:	e12fff1e 	bx	lr

a000267c <strcmp>:
a000267c:	e52d4004 	push	{r4}		; (str r4, [sp, #-4]!)
a0002680:	e24dd00c 	sub	sp, sp, #12
a0002684:	e58d0004 	str	r0, [sp, #4]
a0002688:	e58d1000 	str	r1, [sp]
a000268c:	e59d3004 	ldr	r3, [sp, #4]
a0002690:	e5d32000 	ldrb	r2, [r3]
a0002694:	e59d3000 	ldr	r3, [sp]
a0002698:	e2831001 	add	r1, r3, #1
a000269c:	e58d1000 	str	r1, [sp]
a00026a0:	e5d33000 	ldrb	r3, [r3]
a00026a4:	e0633002 	rsb	r3, r3, r2
a00026a8:	e6ef3073 	uxtb	r3, r3
a00026ac:	e6ef4073 	uxtb	r4, r3
a00026b0:	e3540000 	cmp	r4, #0
a00026b4:	1a000006 	bne	a00026d4 <strcmp+0x58>
a00026b8:	e59d3004 	ldr	r3, [sp, #4]
a00026bc:	e2832001 	add	r2, r3, #1
a00026c0:	e58d2004 	str	r2, [sp, #4]
a00026c4:	e5d33000 	ldrb	r3, [r3]
a00026c8:	e3530000 	cmp	r3, #0
a00026cc:	0a000000 	beq	a00026d4 <strcmp+0x58>
a00026d0:	eaffffed 	b	a000268c <strcmp+0x10>
a00026d4:	e6af3074 	sxtb	r3, r4
a00026d8:	e1a00003 	mov	r0, r3
a00026dc:	e28dd00c 	add	sp, sp, #12
a00026e0:	e49d4004 	pop	{r4}		; (ldr r4, [sp], #4)
a00026e4:	e12fff1e 	bx	lr

a00026e8 <strncmp>:
a00026e8:	e52d4004 	push	{r4}		; (str r4, [sp, #-4]!)
a00026ec:	e24dd014 	sub	sp, sp, #20
a00026f0:	e58d000c 	str	r0, [sp, #12]
a00026f4:	e58d1008 	str	r1, [sp, #8]
a00026f8:	e58d2004 	str	r2, [sp, #4]
a00026fc:	e3a04000 	mov	r4, #0
a0002700:	ea000013 	b	a0002754 <strncmp+0x6c>
a0002704:	e59d300c 	ldr	r3, [sp, #12]
a0002708:	e5d32000 	ldrb	r2, [r3]
a000270c:	e59d3008 	ldr	r3, [sp, #8]
a0002710:	e2831001 	add	r1, r3, #1
a0002714:	e58d1008 	str	r1, [sp, #8]
a0002718:	e5d33000 	ldrb	r3, [r3]
a000271c:	e0633002 	rsb	r3, r3, r2
a0002720:	e6ef3073 	uxtb	r3, r3
a0002724:	e6ef4073 	uxtb	r4, r3
a0002728:	e3540000 	cmp	r4, #0
a000272c:	1a00000b 	bne	a0002760 <strncmp+0x78>
a0002730:	e59d300c 	ldr	r3, [sp, #12]
a0002734:	e2832001 	add	r2, r3, #1
a0002738:	e58d200c 	str	r2, [sp, #12]
a000273c:	e5d33000 	ldrb	r3, [r3]
a0002740:	e3530000 	cmp	r3, #0
a0002744:	0a000005 	beq	a0002760 <strncmp+0x78>
a0002748:	e59d3004 	ldr	r3, [sp, #4]
a000274c:	e2433001 	sub	r3, r3, #1
a0002750:	e58d3004 	str	r3, [sp, #4]
a0002754:	e59d3004 	ldr	r3, [sp, #4]
a0002758:	e3530000 	cmp	r3, #0
a000275c:	1affffe8 	bne	a0002704 <strncmp+0x1c>
a0002760:	e6af3074 	sxtb	r3, r4
a0002764:	e1a00003 	mov	r0, r3
a0002768:	e28dd014 	add	sp, sp, #20
a000276c:	e49d4004 	pop	{r4}		; (ldr r4, [sp], #4)
a0002770:	e12fff1e 	bx	lr

a0002774 <strchr>:
a0002774:	e24dd008 	sub	sp, sp, #8
a0002778:	e58d0004 	str	r0, [sp, #4]
a000277c:	e58d1000 	str	r1, [sp]
a0002780:	ea000008 	b	a00027a8 <strchr+0x34>
a0002784:	e59d3004 	ldr	r3, [sp, #4]
a0002788:	e5d33000 	ldrb	r3, [r3]
a000278c:	e3530000 	cmp	r3, #0
a0002790:	1a000001 	bne	a000279c <strchr+0x28>
a0002794:	e3a03000 	mov	r3, #0
a0002798:	ea000009 	b	a00027c4 <strchr+0x50>
a000279c:	e59d3004 	ldr	r3, [sp, #4]
a00027a0:	e2833001 	add	r3, r3, #1
a00027a4:	e58d3004 	str	r3, [sp, #4]
a00027a8:	e59d3004 	ldr	r3, [sp, #4]
a00027ac:	e5d32000 	ldrb	r2, [r3]
a00027b0:	e59d3000 	ldr	r3, [sp]
a00027b4:	e6ef3073 	uxtb	r3, r3
a00027b8:	e1520003 	cmp	r2, r3
a00027bc:	1afffff0 	bne	a0002784 <strchr+0x10>
a00027c0:	e59d3004 	ldr	r3, [sp, #4]
a00027c4:	e1a00003 	mov	r0, r3
a00027c8:	e28dd008 	add	sp, sp, #8
a00027cc:	e12fff1e 	bx	lr

a00027d0 <strlen>:
a00027d0:	e24dd010 	sub	sp, sp, #16
a00027d4:	e58d0004 	str	r0, [sp, #4]
a00027d8:	e59d3004 	ldr	r3, [sp, #4]
a00027dc:	e58d300c 	str	r3, [sp, #12]
a00027e0:	ea000002 	b	a00027f0 <strlen+0x20>
a00027e4:	e59d300c 	ldr	r3, [sp, #12]
a00027e8:	e2833001 	add	r3, r3, #1
a00027ec:	e58d300c 	str	r3, [sp, #12]
a00027f0:	e59d300c 	ldr	r3, [sp, #12]
a00027f4:	e5d33000 	ldrb	r3, [r3]
a00027f8:	e3530000 	cmp	r3, #0
a00027fc:	1afffff8 	bne	a00027e4 <strlen+0x14>
a0002800:	e59d200c 	ldr	r2, [sp, #12]
a0002804:	e59d3004 	ldr	r3, [sp, #4]
a0002808:	e0633002 	rsb	r3, r3, r2
a000280c:	e1a00003 	mov	r0, r3
a0002810:	e28dd010 	add	sp, sp, #16
a0002814:	e12fff1e 	bx	lr

a0002818 <strrchr>:
a0002818:	e52de004 	push	{lr}		; (str lr, [sp, #-4]!)
a000281c:	e24dd014 	sub	sp, sp, #20
a0002820:	e58d0004 	str	r0, [sp, #4]
a0002824:	e58d1000 	str	r1, [sp]
a0002828:	e59d0004 	ldr	r0, [sp, #4]
a000282c:	ebffffe7 	bl	a00027d0 <strlen>
a0002830:	e1a03000 	mov	r3, r0
a0002834:	e59d2004 	ldr	r2, [sp, #4]
a0002838:	e0823003 	add	r3, r2, r3
a000283c:	e58d300c 	str	r3, [sp, #12]
a0002840:	e59d300c 	ldr	r3, [sp, #12]
a0002844:	e5d32000 	ldrb	r2, [r3]
a0002848:	e59d3000 	ldr	r3, [sp]
a000284c:	e6ef3073 	uxtb	r3, r3
a0002850:	e1520003 	cmp	r2, r3
a0002854:	1a000001 	bne	a0002860 <strrchr+0x48>
a0002858:	e59d300c 	ldr	r3, [sp, #12]
a000285c:	ea000007 	b	a0002880 <strrchr+0x68>
a0002860:	e59d300c 	ldr	r3, [sp, #12]
a0002864:	e2433001 	sub	r3, r3, #1
a0002868:	e58d300c 	str	r3, [sp, #12]
a000286c:	e59d200c 	ldr	r2, [sp, #12]
a0002870:	e59d3004 	ldr	r3, [sp, #4]
a0002874:	e1520003 	cmp	r2, r3
a0002878:	2afffff0 	bcs	a0002840 <strrchr+0x28>
a000287c:	e3a03000 	mov	r3, #0
a0002880:	e1a00003 	mov	r0, r3
a0002884:	e28dd014 	add	sp, sp, #20
a0002888:	e49df004 	pop	{pc}		; (ldr pc, [sp], #4)

a000288c <strnlen>:
a000288c:	e24dd010 	sub	sp, sp, #16
a0002890:	e58d0004 	str	r0, [sp, #4]
a0002894:	e58d1000 	str	r1, [sp]
a0002898:	e59d3004 	ldr	r3, [sp, #4]
a000289c:	e58d300c 	str	r3, [sp, #12]
a00028a0:	ea000002 	b	a00028b0 <strnlen+0x24>
a00028a4:	e59d300c 	ldr	r3, [sp, #12]
a00028a8:	e2833001 	add	r3, r3, #1
a00028ac:	e58d300c 	str	r3, [sp, #12]
a00028b0:	e59d3000 	ldr	r3, [sp]
a00028b4:	e2432001 	sub	r2, r3, #1
a00028b8:	e58d2000 	str	r2, [sp]
a00028bc:	e3530000 	cmp	r3, #0
a00028c0:	0a000003 	beq	a00028d4 <strnlen+0x48>
a00028c4:	e59d300c 	ldr	r3, [sp, #12]
a00028c8:	e5d33000 	ldrb	r3, [r3]
a00028cc:	e3530000 	cmp	r3, #0
a00028d0:	1afffff3 	bne	a00028a4 <strnlen+0x18>
a00028d4:	e59d200c 	ldr	r2, [sp, #12]
a00028d8:	e59d3004 	ldr	r3, [sp, #4]
a00028dc:	e0633002 	rsb	r3, r3, r2
a00028e0:	e1a00003 	mov	r0, r3
a00028e4:	e28dd010 	add	sp, sp, #16
a00028e8:	e12fff1e 	bx	lr

a00028ec <strspn>:
a00028ec:	e24dd018 	sub	sp, sp, #24
a00028f0:	e58d0004 	str	r0, [sp, #4]
a00028f4:	e58d1000 	str	r1, [sp]
a00028f8:	e3a03000 	mov	r3, #0
a00028fc:	e58d300c 	str	r3, [sp, #12]
a0002900:	e59d3004 	ldr	r3, [sp, #4]
a0002904:	e58d3014 	str	r3, [sp, #20]
a0002908:	ea00001c 	b	a0002980 <strspn+0x94>
a000290c:	e59d3000 	ldr	r3, [sp]
a0002910:	e58d3010 	str	r3, [sp, #16]
a0002914:	ea000009 	b	a0002940 <strspn+0x54>
a0002918:	e59d3014 	ldr	r3, [sp, #20]
a000291c:	e5d32000 	ldrb	r2, [r3]
a0002920:	e59d3010 	ldr	r3, [sp, #16]
a0002924:	e5d33000 	ldrb	r3, [r3]
a0002928:	e1520003 	cmp	r2, r3
a000292c:	1a000000 	bne	a0002934 <strspn+0x48>
a0002930:	ea000006 	b	a0002950 <strspn+0x64>
a0002934:	e59d3010 	ldr	r3, [sp, #16]
a0002938:	e2833001 	add	r3, r3, #1
a000293c:	e58d3010 	str	r3, [sp, #16]
a0002940:	e59d3010 	ldr	r3, [sp, #16]
a0002944:	e5d33000 	ldrb	r3, [r3]
a0002948:	e3530000 	cmp	r3, #0
a000294c:	1afffff1 	bne	a0002918 <strspn+0x2c>
a0002950:	e59d3010 	ldr	r3, [sp, #16]
a0002954:	e5d33000 	ldrb	r3, [r3]
a0002958:	e3530000 	cmp	r3, #0
a000295c:	1a000001 	bne	a0002968 <strspn+0x7c>
a0002960:	e59d300c 	ldr	r3, [sp, #12]
a0002964:	ea00000a 	b	a0002994 <strspn+0xa8>
a0002968:	e59d300c 	ldr	r3, [sp, #12]
a000296c:	e2833001 	add	r3, r3, #1
a0002970:	e58d300c 	str	r3, [sp, #12]
a0002974:	e59d3014 	ldr	r3, [sp, #20]
a0002978:	e2833001 	add	r3, r3, #1
a000297c:	e58d3014 	str	r3, [sp, #20]
a0002980:	e59d3014 	ldr	r3, [sp, #20]
a0002984:	e5d33000 	ldrb	r3, [r3]
a0002988:	e3530000 	cmp	r3, #0
a000298c:	1affffde 	bne	a000290c <strspn+0x20>
a0002990:	e59d300c 	ldr	r3, [sp, #12]
a0002994:	e1a00003 	mov	r0, r3
a0002998:	e28dd018 	add	sp, sp, #24
a000299c:	e12fff1e 	bx	lr

a00029a0 <strpbrk>:
a00029a0:	e24dd010 	sub	sp, sp, #16
a00029a4:	e58d0004 	str	r0, [sp, #4]
a00029a8:	e58d1000 	str	r1, [sp]
a00029ac:	e59d3004 	ldr	r3, [sp, #4]
a00029b0:	e58d300c 	str	r3, [sp, #12]
a00029b4:	ea000014 	b	a0002a0c <strpbrk+0x6c>
a00029b8:	e59d3000 	ldr	r3, [sp]
a00029bc:	e58d3008 	str	r3, [sp, #8]
a00029c0:	ea00000a 	b	a00029f0 <strpbrk+0x50>
a00029c4:	e59d300c 	ldr	r3, [sp, #12]
a00029c8:	e5d32000 	ldrb	r2, [r3]
a00029cc:	e59d3008 	ldr	r3, [sp, #8]
a00029d0:	e5d33000 	ldrb	r3, [r3]
a00029d4:	e1520003 	cmp	r2, r3
a00029d8:	1a000001 	bne	a00029e4 <strpbrk+0x44>
a00029dc:	e59d300c 	ldr	r3, [sp, #12]
a00029e0:	ea00000e 	b	a0002a20 <strpbrk+0x80>
a00029e4:	e59d3008 	ldr	r3, [sp, #8]
a00029e8:	e2833001 	add	r3, r3, #1
a00029ec:	e58d3008 	str	r3, [sp, #8]
a00029f0:	e59d3008 	ldr	r3, [sp, #8]
a00029f4:	e5d33000 	ldrb	r3, [r3]
a00029f8:	e3530000 	cmp	r3, #0
a00029fc:	1afffff0 	bne	a00029c4 <strpbrk+0x24>
a0002a00:	e59d300c 	ldr	r3, [sp, #12]
a0002a04:	e2833001 	add	r3, r3, #1
a0002a08:	e58d300c 	str	r3, [sp, #12]
a0002a0c:	e59d300c 	ldr	r3, [sp, #12]
a0002a10:	e5d33000 	ldrb	r3, [r3]
a0002a14:	e3530000 	cmp	r3, #0
a0002a18:	1affffe6 	bne	a00029b8 <strpbrk+0x18>
a0002a1c:	e3a03000 	mov	r3, #0
a0002a20:	e1a00003 	mov	r0, r3
a0002a24:	e28dd010 	add	sp, sp, #16
a0002a28:	e12fff1e 	bx	lr

a0002a2c <strtok>:
a0002a2c:	e92d4010 	push	{r4, lr}
a0002a30:	e24dd010 	sub	sp, sp, #16
a0002a34:	e58d0004 	str	r0, [sp, #4]
a0002a38:	e58d1000 	str	r1, [sp]
a0002a3c:	e59f40dc 	ldr	r4, [pc, #220]	; a0002b20 <strtok+0xf4>
a0002a40:	e08f4004 	add	r4, pc, r4
a0002a44:	e59d3004 	ldr	r3, [sp, #4]
a0002a48:	e3530000 	cmp	r3, #0
a0002a4c:	0a000001 	beq	a0002a58 <strtok+0x2c>
a0002a50:	e59d3004 	ldr	r3, [sp, #4]
a0002a54:	ea000002 	b	a0002a64 <strtok+0x38>
a0002a58:	e59f30c4 	ldr	r3, [pc, #196]	; a0002b24 <strtok+0xf8>
a0002a5c:	e7943003 	ldr	r3, [r4, r3]
a0002a60:	e5933000 	ldr	r3, [r3]
a0002a64:	e58d3008 	str	r3, [sp, #8]
a0002a68:	e59d3008 	ldr	r3, [sp, #8]
a0002a6c:	e3530000 	cmp	r3, #0
a0002a70:	1a000001 	bne	a0002a7c <strtok+0x50>
a0002a74:	e3a03000 	mov	r3, #0
a0002a78:	ea000025 	b	a0002b14 <strtok+0xe8>
a0002a7c:	e59d0008 	ldr	r0, [sp, #8]
a0002a80:	e59d1000 	ldr	r1, [sp]
a0002a84:	ebffff98 	bl	a00028ec <strspn>
a0002a88:	e1a03000 	mov	r3, r0
a0002a8c:	e59d2008 	ldr	r2, [sp, #8]
a0002a90:	e0823003 	add	r3, r2, r3
a0002a94:	e58d3008 	str	r3, [sp, #8]
a0002a98:	e59d3008 	ldr	r3, [sp, #8]
a0002a9c:	e5d33000 	ldrb	r3, [r3]
a0002aa0:	e3530000 	cmp	r3, #0
a0002aa4:	1a000005 	bne	a0002ac0 <strtok+0x94>
a0002aa8:	e59f3074 	ldr	r3, [pc, #116]	; a0002b24 <strtok+0xf8>
a0002aac:	e7943003 	ldr	r3, [r4, r3]
a0002ab0:	e3a02000 	mov	r2, #0
a0002ab4:	e5832000 	str	r2, [r3]
a0002ab8:	e3a03000 	mov	r3, #0
a0002abc:	ea000014 	b	a0002b14 <strtok+0xe8>
a0002ac0:	e59d0008 	ldr	r0, [sp, #8]
a0002ac4:	e59d1000 	ldr	r1, [sp]
a0002ac8:	ebffffb4 	bl	a00029a0 <strpbrk>
a0002acc:	e58d000c 	str	r0, [sp, #12]
a0002ad0:	e59d300c 	ldr	r3, [sp, #12]
a0002ad4:	e3530000 	cmp	r3, #0
a0002ad8:	0a000008 	beq	a0002b00 <strtok+0xd4>
a0002adc:	e59d300c 	ldr	r3, [sp, #12]
a0002ae0:	e5d33000 	ldrb	r3, [r3]
a0002ae4:	e3530000 	cmp	r3, #0
a0002ae8:	0a000004 	beq	a0002b00 <strtok+0xd4>
a0002aec:	e59d300c 	ldr	r3, [sp, #12]
a0002af0:	e2832001 	add	r2, r3, #1
a0002af4:	e58d200c 	str	r2, [sp, #12]
a0002af8:	e3a02000 	mov	r2, #0
a0002afc:	e5c32000 	strb	r2, [r3]
a0002b00:	e59f301c 	ldr	r3, [pc, #28]	; a0002b24 <strtok+0xf8>
a0002b04:	e7943003 	ldr	r3, [r4, r3]
a0002b08:	e59d200c 	ldr	r2, [sp, #12]
a0002b0c:	e5832000 	str	r2, [r3]
a0002b10:	e59d3008 	ldr	r3, [sp, #8]
a0002b14:	e1a00003 	mov	r0, r3
a0002b18:	e28dd010 	add	sp, sp, #16
a0002b1c:	e8bd8010 	pop	{r4, pc}
a0002b20:	00006c60 	andeq	r6, r0, r0, ror #24
a0002b24:	00000004 	andeq	r0, r0, r4

a0002b28 <strsep>:
a0002b28:	e52de004 	push	{lr}		; (str lr, [sp, #-4]!)
a0002b2c:	e24dd014 	sub	sp, sp, #20
a0002b30:	e58d0004 	str	r0, [sp, #4]
a0002b34:	e58d1000 	str	r1, [sp]
a0002b38:	e59d3004 	ldr	r3, [sp, #4]
a0002b3c:	e5933000 	ldr	r3, [r3]
a0002b40:	e58d3008 	str	r3, [sp, #8]
a0002b44:	e59d3008 	ldr	r3, [sp, #8]
a0002b48:	e3530000 	cmp	r3, #0
a0002b4c:	1a000001 	bne	a0002b58 <strsep+0x30>
a0002b50:	e3a03000 	mov	r3, #0
a0002b54:	ea00000f 	b	a0002b98 <strsep+0x70>
a0002b58:	e59d0008 	ldr	r0, [sp, #8]
a0002b5c:	e59d1000 	ldr	r1, [sp]
a0002b60:	ebffff8e 	bl	a00029a0 <strpbrk>
a0002b64:	e58d000c 	str	r0, [sp, #12]
a0002b68:	e59d300c 	ldr	r3, [sp, #12]
a0002b6c:	e3530000 	cmp	r3, #0
a0002b70:	0a000004 	beq	a0002b88 <strsep+0x60>
a0002b74:	e59d300c 	ldr	r3, [sp, #12]
a0002b78:	e2832001 	add	r2, r3, #1
a0002b7c:	e58d200c 	str	r2, [sp, #12]
a0002b80:	e3a02000 	mov	r2, #0
a0002b84:	e5c32000 	strb	r2, [r3]
a0002b88:	e59d3004 	ldr	r3, [sp, #4]
a0002b8c:	e59d200c 	ldr	r2, [sp, #12]
a0002b90:	e5832000 	str	r2, [r3]
a0002b94:	e59d3008 	ldr	r3, [sp, #8]
a0002b98:	e1a00003 	mov	r0, r3
a0002b9c:	e28dd014 	add	sp, sp, #20
a0002ba0:	e49df004 	pop	{pc}		; (ldr pc, [sp], #4)

a0002ba4 <memset>:
a0002ba4:	e24dd018 	sub	sp, sp, #24
a0002ba8:	e58d000c 	str	r0, [sp, #12]
a0002bac:	e58d1008 	str	r1, [sp, #8]
a0002bb0:	e58d2004 	str	r2, [sp, #4]
a0002bb4:	e59d300c 	ldr	r3, [sp, #12]
a0002bb8:	e58d3014 	str	r3, [sp, #20]
a0002bbc:	ea000005 	b	a0002bd8 <memset+0x34>
a0002bc0:	e59d3014 	ldr	r3, [sp, #20]
a0002bc4:	e2832001 	add	r2, r3, #1
a0002bc8:	e58d2014 	str	r2, [sp, #20]
a0002bcc:	e59d2008 	ldr	r2, [sp, #8]
a0002bd0:	e6ef2072 	uxtb	r2, r2
a0002bd4:	e5c32000 	strb	r2, [r3]
a0002bd8:	e59d3004 	ldr	r3, [sp, #4]
a0002bdc:	e2432001 	sub	r2, r3, #1
a0002be0:	e58d2004 	str	r2, [sp, #4]
a0002be4:	e3530000 	cmp	r3, #0
a0002be8:	1afffff4 	bne	a0002bc0 <memset+0x1c>
a0002bec:	e59d300c 	ldr	r3, [sp, #12]
a0002bf0:	e1a00003 	mov	r0, r3
a0002bf4:	e28dd018 	add	sp, sp, #24
a0002bf8:	e12fff1e 	bx	lr

a0002bfc <bcopy>:
a0002bfc:	e24dd018 	sub	sp, sp, #24
a0002c00:	e58d000c 	str	r0, [sp, #12]
a0002c04:	e58d1008 	str	r1, [sp, #8]
a0002c08:	e58d2004 	str	r2, [sp, #4]
a0002c0c:	e59d3008 	ldr	r3, [sp, #8]
a0002c10:	e58d3014 	str	r3, [sp, #20]
a0002c14:	ea000007 	b	a0002c38 <bcopy+0x3c>
a0002c18:	e59d3014 	ldr	r3, [sp, #20]
a0002c1c:	e2832001 	add	r2, r3, #1
a0002c20:	e58d2014 	str	r2, [sp, #20]
a0002c24:	e59d200c 	ldr	r2, [sp, #12]
a0002c28:	e2821001 	add	r1, r2, #1
a0002c2c:	e58d100c 	str	r1, [sp, #12]
a0002c30:	e5d22000 	ldrb	r2, [r2]
a0002c34:	e5c32000 	strb	r2, [r3]
a0002c38:	e59d3004 	ldr	r3, [sp, #4]
a0002c3c:	e2432001 	sub	r2, r3, #1
a0002c40:	e58d2004 	str	r2, [sp, #4]
a0002c44:	e3530000 	cmp	r3, #0
a0002c48:	1afffff2 	bne	a0002c18 <bcopy+0x1c>
a0002c4c:	e59d3008 	ldr	r3, [sp, #8]
a0002c50:	e1a00003 	mov	r0, r3
a0002c54:	e28dd018 	add	sp, sp, #24
a0002c58:	e12fff1e 	bx	lr

a0002c5c <memcpy>:
a0002c5c:	e24dd018 	sub	sp, sp, #24
a0002c60:	e58d000c 	str	r0, [sp, #12]
a0002c64:	e58d1008 	str	r1, [sp, #8]
a0002c68:	e58d2004 	str	r2, [sp, #4]
a0002c6c:	e59d300c 	ldr	r3, [sp, #12]
a0002c70:	e58d3014 	str	r3, [sp, #20]
a0002c74:	e59d3008 	ldr	r3, [sp, #8]
a0002c78:	e58d3010 	str	r3, [sp, #16]
a0002c7c:	ea000007 	b	a0002ca0 <memcpy+0x44>
a0002c80:	e59d3014 	ldr	r3, [sp, #20]
a0002c84:	e2832001 	add	r2, r3, #1
a0002c88:	e58d2014 	str	r2, [sp, #20]
a0002c8c:	e59d2010 	ldr	r2, [sp, #16]
a0002c90:	e2821001 	add	r1, r2, #1
a0002c94:	e58d1010 	str	r1, [sp, #16]
a0002c98:	e5d22000 	ldrb	r2, [r2]
a0002c9c:	e5c32000 	strb	r2, [r3]
a0002ca0:	e59d3004 	ldr	r3, [sp, #4]
a0002ca4:	e2432001 	sub	r2, r3, #1
a0002ca8:	e58d2004 	str	r2, [sp, #4]
a0002cac:	e3530000 	cmp	r3, #0
a0002cb0:	1afffff2 	bne	a0002c80 <memcpy+0x24>
a0002cb4:	e59d300c 	ldr	r3, [sp, #12]
a0002cb8:	e1a00003 	mov	r0, r3
a0002cbc:	e28dd018 	add	sp, sp, #24
a0002cc0:	e12fff1e 	bx	lr

a0002cc4 <memmove>:
a0002cc4:	e24dd018 	sub	sp, sp, #24
a0002cc8:	e58d000c 	str	r0, [sp, #12]
a0002ccc:	e58d1008 	str	r1, [sp, #8]
a0002cd0:	e58d2004 	str	r2, [sp, #4]
a0002cd4:	e59d200c 	ldr	r2, [sp, #12]
a0002cd8:	e59d3008 	ldr	r3, [sp, #8]
a0002cdc:	e1520003 	cmp	r2, r3
a0002ce0:	8a000012 	bhi	a0002d30 <memmove+0x6c>
a0002ce4:	e59d300c 	ldr	r3, [sp, #12]
a0002ce8:	e58d3014 	str	r3, [sp, #20]
a0002cec:	e59d3008 	ldr	r3, [sp, #8]
a0002cf0:	e58d3010 	str	r3, [sp, #16]
a0002cf4:	ea000007 	b	a0002d18 <memmove+0x54>
a0002cf8:	e59d3014 	ldr	r3, [sp, #20]
a0002cfc:	e2832001 	add	r2, r3, #1
a0002d00:	e58d2014 	str	r2, [sp, #20]
a0002d04:	e59d2010 	ldr	r2, [sp, #16]
a0002d08:	e2821001 	add	r1, r2, #1
a0002d0c:	e58d1010 	str	r1, [sp, #16]
a0002d10:	e5d22000 	ldrb	r2, [r2]
a0002d14:	e5c32000 	strb	r2, [r3]
a0002d18:	e59d3004 	ldr	r3, [sp, #4]
a0002d1c:	e2432001 	sub	r2, r3, #1
a0002d20:	e58d2004 	str	r2, [sp, #4]
a0002d24:	e3530000 	cmp	r3, #0
a0002d28:	1afffff2 	bne	a0002cf8 <memmove+0x34>
a0002d2c:	ea000017 	b	a0002d90 <memmove+0xcc>
a0002d30:	e59d200c 	ldr	r2, [sp, #12]
a0002d34:	e59d3004 	ldr	r3, [sp, #4]
a0002d38:	e0823003 	add	r3, r2, r3
a0002d3c:	e58d3014 	str	r3, [sp, #20]
a0002d40:	e59d2008 	ldr	r2, [sp, #8]
a0002d44:	e59d3004 	ldr	r3, [sp, #4]
a0002d48:	e0823003 	add	r3, r2, r3
a0002d4c:	e58d3010 	str	r3, [sp, #16]
a0002d50:	ea000009 	b	a0002d7c <memmove+0xb8>
a0002d54:	e59d3014 	ldr	r3, [sp, #20]
a0002d58:	e2433001 	sub	r3, r3, #1
a0002d5c:	e58d3014 	str	r3, [sp, #20]
a0002d60:	e59d3010 	ldr	r3, [sp, #16]
a0002d64:	e2433001 	sub	r3, r3, #1
a0002d68:	e58d3010 	str	r3, [sp, #16]
a0002d6c:	e59d3010 	ldr	r3, [sp, #16]
a0002d70:	e5d32000 	ldrb	r2, [r3]
a0002d74:	e59d3014 	ldr	r3, [sp, #20]
a0002d78:	e5c32000 	strb	r2, [r3]
a0002d7c:	e59d3004 	ldr	r3, [sp, #4]
a0002d80:	e2432001 	sub	r2, r3, #1
a0002d84:	e58d2004 	str	r2, [sp, #4]
a0002d88:	e3530000 	cmp	r3, #0
a0002d8c:	1afffff0 	bne	a0002d54 <memmove+0x90>
a0002d90:	e59d300c 	ldr	r3, [sp, #12]
a0002d94:	e1a00003 	mov	r0, r3
a0002d98:	e28dd018 	add	sp, sp, #24
a0002d9c:	e12fff1e 	bx	lr

a0002da0 <memcmp>:
a0002da0:	e24dd020 	sub	sp, sp, #32
a0002da4:	e58d000c 	str	r0, [sp, #12]
a0002da8:	e58d1008 	str	r1, [sp, #8]
a0002dac:	e58d2004 	str	r2, [sp, #4]
a0002db0:	e3a03000 	mov	r3, #0
a0002db4:	e5cd3017 	strb	r3, [sp, #23]
a0002db8:	e59d300c 	ldr	r3, [sp, #12]
a0002dbc:	e58d301c 	str	r3, [sp, #28]
a0002dc0:	e59d3008 	ldr	r3, [sp, #8]
a0002dc4:	e58d3018 	str	r3, [sp, #24]
a0002dc8:	ea000013 	b	a0002e1c <memcmp+0x7c>
a0002dcc:	e59d301c 	ldr	r3, [sp, #28]
a0002dd0:	e5d32000 	ldrb	r2, [r3]
a0002dd4:	e59d3018 	ldr	r3, [sp, #24]
a0002dd8:	e5d33000 	ldrb	r3, [r3]
a0002ddc:	e0633002 	rsb	r3, r3, r2
a0002de0:	e6ef3073 	uxtb	r3, r3
a0002de4:	e5cd3017 	strb	r3, [sp, #23]
a0002de8:	e1dd31d7 	ldrsb	r3, [sp, #23]
a0002dec:	e3530000 	cmp	r3, #0
a0002df0:	0a000000 	beq	a0002df8 <memcmp+0x58>
a0002df4:	ea00000b 	b	a0002e28 <memcmp+0x88>
a0002df8:	e59d301c 	ldr	r3, [sp, #28]
a0002dfc:	e2833001 	add	r3, r3, #1
a0002e00:	e58d301c 	str	r3, [sp, #28]
a0002e04:	e59d3018 	ldr	r3, [sp, #24]
a0002e08:	e2833001 	add	r3, r3, #1
a0002e0c:	e58d3018 	str	r3, [sp, #24]
a0002e10:	e59d3004 	ldr	r3, [sp, #4]
a0002e14:	e2433001 	sub	r3, r3, #1
a0002e18:	e58d3004 	str	r3, [sp, #4]
a0002e1c:	e59d3004 	ldr	r3, [sp, #4]
a0002e20:	e3530000 	cmp	r3, #0
a0002e24:	1affffe8 	bne	a0002dcc <memcmp+0x2c>
a0002e28:	e1dd31d7 	ldrsb	r3, [sp, #23]
a0002e2c:	e1a00003 	mov	r0, r3
a0002e30:	e28dd020 	add	sp, sp, #32
a0002e34:	e12fff1e 	bx	lr

a0002e38 <memscan>:
a0002e38:	e24dd018 	sub	sp, sp, #24
a0002e3c:	e58d000c 	str	r0, [sp, #12]
a0002e40:	e58d1008 	str	r1, [sp, #8]
a0002e44:	e58d2004 	str	r2, [sp, #4]
a0002e48:	e59d300c 	ldr	r3, [sp, #12]
a0002e4c:	e58d3014 	str	r3, [sp, #20]
a0002e50:	ea00000d 	b	a0002e8c <memscan+0x54>
a0002e54:	e59d3014 	ldr	r3, [sp, #20]
a0002e58:	e5d33000 	ldrb	r3, [r3]
a0002e5c:	e1a02003 	mov	r2, r3
a0002e60:	e59d3008 	ldr	r3, [sp, #8]
a0002e64:	e1520003 	cmp	r2, r3
a0002e68:	1a000001 	bne	a0002e74 <memscan+0x3c>
a0002e6c:	e59d3014 	ldr	r3, [sp, #20]
a0002e70:	ea000009 	b	a0002e9c <memscan+0x64>
a0002e74:	e59d3014 	ldr	r3, [sp, #20]
a0002e78:	e2833001 	add	r3, r3, #1
a0002e7c:	e58d3014 	str	r3, [sp, #20]
a0002e80:	e59d3004 	ldr	r3, [sp, #4]
a0002e84:	e2433001 	sub	r3, r3, #1
a0002e88:	e58d3004 	str	r3, [sp, #4]
a0002e8c:	e59d3004 	ldr	r3, [sp, #4]
a0002e90:	e3530000 	cmp	r3, #0
a0002e94:	1affffee 	bne	a0002e54 <memscan+0x1c>
a0002e98:	e59d3014 	ldr	r3, [sp, #20]
a0002e9c:	e1a00003 	mov	r0, r3
a0002ea0:	e28dd018 	add	sp, sp, #24
a0002ea4:	e12fff1e 	bx	lr

a0002ea8 <strstr>:
a0002ea8:	e52de004 	push	{lr}		; (str lr, [sp, #-4]!)
a0002eac:	e24dd014 	sub	sp, sp, #20
a0002eb0:	e58d0004 	str	r0, [sp, #4]
a0002eb4:	e58d1000 	str	r1, [sp]
a0002eb8:	e59d0000 	ldr	r0, [sp]
a0002ebc:	ebfffe43 	bl	a00027d0 <strlen>
a0002ec0:	e1a03000 	mov	r3, r0
a0002ec4:	e58d3008 	str	r3, [sp, #8]
a0002ec8:	e59d3008 	ldr	r3, [sp, #8]
a0002ecc:	e3530000 	cmp	r3, #0
a0002ed0:	1a000001 	bne	a0002edc <strstr+0x34>
a0002ed4:	e59d3004 	ldr	r3, [sp, #4]
a0002ed8:	ea000019 	b	a0002f44 <strstr+0x9c>
a0002edc:	e59d0004 	ldr	r0, [sp, #4]
a0002ee0:	ebfffe3a 	bl	a00027d0 <strlen>
a0002ee4:	e1a03000 	mov	r3, r0
a0002ee8:	e58d300c 	str	r3, [sp, #12]
a0002eec:	ea00000f 	b	a0002f30 <strstr+0x88>
a0002ef0:	e59d300c 	ldr	r3, [sp, #12]
a0002ef4:	e2433001 	sub	r3, r3, #1
a0002ef8:	e58d300c 	str	r3, [sp, #12]
a0002efc:	e59d3008 	ldr	r3, [sp, #8]
a0002f00:	e59d0004 	ldr	r0, [sp, #4]
a0002f04:	e59d1000 	ldr	r1, [sp]
a0002f08:	e1a02003 	mov	r2, r3
a0002f0c:	ebffffa3 	bl	a0002da0 <memcmp>
a0002f10:	e1a03000 	mov	r3, r0
a0002f14:	e3530000 	cmp	r3, #0
a0002f18:	1a000001 	bne	a0002f24 <strstr+0x7c>
a0002f1c:	e59d3004 	ldr	r3, [sp, #4]
a0002f20:	ea000007 	b	a0002f44 <strstr+0x9c>
a0002f24:	e59d3004 	ldr	r3, [sp, #4]
a0002f28:	e2833001 	add	r3, r3, #1
a0002f2c:	e58d3004 	str	r3, [sp, #4]
a0002f30:	e59d200c 	ldr	r2, [sp, #12]
a0002f34:	e59d3008 	ldr	r3, [sp, #8]
a0002f38:	e1520003 	cmp	r2, r3
a0002f3c:	aaffffeb 	bge	a0002ef0 <strstr+0x48>
a0002f40:	e3a03000 	mov	r3, #0
a0002f44:	e1a00003 	mov	r0, r3
a0002f48:	e28dd014 	add	sp, sp, #20
a0002f4c:	e49df004 	pop	{pc}		; (ldr pc, [sp], #4)

a0002f50 <memchr>:
a0002f50:	e24dd018 	sub	sp, sp, #24
a0002f54:	e58d000c 	str	r0, [sp, #12]
a0002f58:	e58d1008 	str	r1, [sp, #8]
a0002f5c:	e58d2004 	str	r2, [sp, #4]
a0002f60:	e59d300c 	ldr	r3, [sp, #12]
a0002f64:	e58d3014 	str	r3, [sp, #20]
a0002f68:	ea00000a 	b	a0002f98 <memchr+0x48>
a0002f6c:	e59d3008 	ldr	r3, [sp, #8]
a0002f70:	e6ef2073 	uxtb	r2, r3
a0002f74:	e59d3014 	ldr	r3, [sp, #20]
a0002f78:	e2831001 	add	r1, r3, #1
a0002f7c:	e58d1014 	str	r1, [sp, #20]
a0002f80:	e5d33000 	ldrb	r3, [r3]
a0002f84:	e1520003 	cmp	r2, r3
a0002f88:	1a000002 	bne	a0002f98 <memchr+0x48>
a0002f8c:	e59d3014 	ldr	r3, [sp, #20]
a0002f90:	e2433001 	sub	r3, r3, #1
a0002f94:	ea000005 	b	a0002fb0 <memchr+0x60>
a0002f98:	e59d3004 	ldr	r3, [sp, #4]
a0002f9c:	e2432001 	sub	r2, r3, #1
a0002fa0:	e58d2004 	str	r2, [sp, #4]
a0002fa4:	e3530000 	cmp	r3, #0
a0002fa8:	1affffef 	bne	a0002f6c <memchr+0x1c>
a0002fac:	e3a03000 	mov	r3, #0
a0002fb0:	e1a00003 	mov	r0, r3
a0002fb4:	e28dd018 	add	sp, sp, #24
a0002fb8:	e12fff1e 	bx	lr

a0002fbc <UpperStr>:
a0002fbc:	e52de004 	push	{lr}		; (str lr, [sp, #-4]!)
a0002fc0:	e24dd00c 	sub	sp, sp, #12
a0002fc4:	e58d0004 	str	r0, [sp, #4]
a0002fc8:	ea00000a 	b	a0002ff8 <UpperStr+0x3c>
a0002fcc:	e59d3004 	ldr	r3, [sp, #4]
a0002fd0:	e5d33000 	ldrb	r3, [r3]
a0002fd4:	e1a00003 	mov	r0, r3
a0002fd8:	ebfffcda 	bl	a0002348 <__toupper>
a0002fdc:	e1a03000 	mov	r3, r0
a0002fe0:	e1a02003 	mov	r2, r3
a0002fe4:	e59d3004 	ldr	r3, [sp, #4]
a0002fe8:	e5c32000 	strb	r2, [r3]
a0002fec:	e59d3004 	ldr	r3, [sp, #4]
a0002ff0:	e2833001 	add	r3, r3, #1
a0002ff4:	e58d3004 	str	r3, [sp, #4]
a0002ff8:	e59d3004 	ldr	r3, [sp, #4]
a0002ffc:	e5d33000 	ldrb	r3, [r3]
a0003000:	e3530000 	cmp	r3, #0
a0003004:	1afffff0 	bne	a0002fcc <UpperStr+0x10>
a0003008:	e28dd00c 	add	sp, sp, #12
a000300c:	e49df004 	pop	{pc}		; (ldr pc, [sp], #4)

a0003010 <LowerStr>:
a0003010:	e52de004 	push	{lr}		; (str lr, [sp, #-4]!)
a0003014:	e24dd00c 	sub	sp, sp, #12
a0003018:	e58d0004 	str	r0, [sp, #4]
a000301c:	ea00000a 	b	a000304c <LowerStr+0x3c>
a0003020:	e59d3004 	ldr	r3, [sp, #4]
a0003024:	e5d33000 	ldrb	r3, [r3]
a0003028:	e1a00003 	mov	r0, r3
a000302c:	ebfffcb0 	bl	a00022f4 <__tolower>
a0003030:	e1a03000 	mov	r3, r0
a0003034:	e1a02003 	mov	r2, r3
a0003038:	e59d3004 	ldr	r3, [sp, #4]
a000303c:	e5c32000 	strb	r2, [r3]
a0003040:	e59d3004 	ldr	r3, [sp, #4]
a0003044:	e2833001 	add	r3, r3, #1
a0003048:	e58d3004 	str	r3, [sp, #4]
a000304c:	e59d3004 	ldr	r3, [sp, #4]
a0003050:	e5d33000 	ldrb	r3, [r3]
a0003054:	e3530000 	cmp	r3, #0
a0003058:	1afffff0 	bne	a0003020 <LowerStr+0x10>
a000305c:	e28dd00c 	add	sp, sp, #12
a0003060:	e49df004 	pop	{pc}		; (ldr pc, [sp], #4)

a0003064 <strtoul>:
a0003064:	e24dd018 	sub	sp, sp, #24
a0003068:	e58d000c 	str	r0, [sp, #12]
a000306c:	e58d1008 	str	r1, [sp, #8]
a0003070:	e58d2004 	str	r2, [sp, #4]
a0003074:	e59f11f0 	ldr	r1, [pc, #496]	; a000326c <strtoul+0x208>
a0003078:	e08f1001 	add	r1, pc, r1
a000307c:	e3a03000 	mov	r3, #0
a0003080:	e58d3014 	str	r3, [sp, #20]
a0003084:	ea000002 	b	a0003094 <strtoul+0x30>
a0003088:	e59d300c 	ldr	r3, [sp, #12]
a000308c:	e2833001 	add	r3, r3, #1
a0003090:	e58d300c 	str	r3, [sp, #12]
a0003094:	e59d300c 	ldr	r3, [sp, #12]
a0003098:	e5d33000 	ldrb	r3, [r3]
a000309c:	e59f21cc 	ldr	r2, [pc, #460]	; a0003270 <strtoul+0x20c>
a00030a0:	e7912002 	ldr	r2, [r1, r2]
a00030a4:	e7d23003 	ldrb	r3, [r2, r3]
a00030a8:	e2033020 	and	r3, r3, #32
a00030ac:	e3530000 	cmp	r3, #0
a00030b0:	1afffff4 	bne	a0003088 <strtoul+0x24>
a00030b4:	e59d3004 	ldr	r3, [sp, #4]
a00030b8:	e3530010 	cmp	r3, #16
a00030bc:	0a000002 	beq	a00030cc <strtoul+0x68>
a00030c0:	e59d3004 	ldr	r3, [sp, #4]
a00030c4:	e3530000 	cmp	r3, #0
a00030c8:	1a000012 	bne	a0003118 <strtoul+0xb4>
a00030cc:	e59d300c 	ldr	r3, [sp, #12]
a00030d0:	e5d33000 	ldrb	r3, [r3]
a00030d4:	e3530030 	cmp	r3, #48	; 0x30
a00030d8:	1a00000e 	bne	a0003118 <strtoul+0xb4>
a00030dc:	e59d300c 	ldr	r3, [sp, #12]
a00030e0:	e2833001 	add	r3, r3, #1
a00030e4:	e5d33000 	ldrb	r3, [r3]
a00030e8:	e3530078 	cmp	r3, #120	; 0x78
a00030ec:	0a000004 	beq	a0003104 <strtoul+0xa0>
a00030f0:	e59d300c 	ldr	r3, [sp, #12]
a00030f4:	e2833001 	add	r3, r3, #1
a00030f8:	e5d33000 	ldrb	r3, [r3]
a00030fc:	e3530058 	cmp	r3, #88	; 0x58
a0003100:	1a000004 	bne	a0003118 <strtoul+0xb4>
a0003104:	e59d300c 	ldr	r3, [sp, #12]
a0003108:	e2833002 	add	r3, r3, #2
a000310c:	e58d300c 	str	r3, [sp, #12]
a0003110:	e3a03010 	mov	r3, #16
a0003114:	e58d3004 	str	r3, [sp, #4]
a0003118:	e59d3004 	ldr	r3, [sp, #4]
a000311c:	e3530000 	cmp	r3, #0
a0003120:	1a000008 	bne	a0003148 <strtoul+0xe4>
a0003124:	e59d300c 	ldr	r3, [sp, #12]
a0003128:	e5d33000 	ldrb	r3, [r3]
a000312c:	e3530030 	cmp	r3, #48	; 0x30
a0003130:	1a000002 	bne	a0003140 <strtoul+0xdc>
a0003134:	e3a03008 	mov	r3, #8
a0003138:	e58d3004 	str	r3, [sp, #4]
a000313c:	ea000001 	b	a0003148 <strtoul+0xe4>
a0003140:	e3a0300a 	mov	r3, #10
a0003144:	e58d3004 	str	r3, [sp, #4]
a0003148:	e59d300c 	ldr	r3, [sp, #12]
a000314c:	e5d33000 	ldrb	r3, [r3]
a0003150:	e5cd3013 	strb	r3, [sp, #19]
a0003154:	e5dd3013 	ldrb	r3, [sp, #19]
a0003158:	e353002f 	cmp	r3, #47	; 0x2f
a000315c:	9a00000f 	bls	a00031a0 <strtoul+0x13c>
a0003160:	e5dd3013 	ldrb	r3, [sp, #19]
a0003164:	e3530039 	cmp	r3, #57	; 0x39
a0003168:	8a00000c 	bhi	a00031a0 <strtoul+0x13c>
a000316c:	e5dd3013 	ldrb	r3, [sp, #19]
a0003170:	e2432030 	sub	r2, r3, #48	; 0x30
a0003174:	e59d3004 	ldr	r3, [sp, #4]
a0003178:	e1520003 	cmp	r2, r3
a000317c:	aa000007 	bge	a00031a0 <strtoul+0x13c>
a0003180:	e59d3004 	ldr	r3, [sp, #4]
a0003184:	e59d2014 	ldr	r2, [sp, #20]
a0003188:	e0020392 	mul	r2, r2, r3
a000318c:	e5dd3013 	ldrb	r3, [sp, #19]
a0003190:	e0823003 	add	r3, r2, r3
a0003194:	e2433030 	sub	r3, r3, #48	; 0x30
a0003198:	e58d3014 	str	r3, [sp, #20]
a000319c:	ea000024 	b	a0003234 <strtoul+0x1d0>
a00031a0:	e5dd3013 	ldrb	r3, [sp, #19]
a00031a4:	e3530060 	cmp	r3, #96	; 0x60
a00031a8:	9a00000f 	bls	a00031ec <strtoul+0x188>
a00031ac:	e5dd3013 	ldrb	r3, [sp, #19]
a00031b0:	e353007a 	cmp	r3, #122	; 0x7a
a00031b4:	8a00000c 	bhi	a00031ec <strtoul+0x188>
a00031b8:	e5dd3013 	ldrb	r3, [sp, #19]
a00031bc:	e2432057 	sub	r2, r3, #87	; 0x57
a00031c0:	e59d3004 	ldr	r3, [sp, #4]
a00031c4:	e1520003 	cmp	r2, r3
a00031c8:	aa000007 	bge	a00031ec <strtoul+0x188>
a00031cc:	e59d3004 	ldr	r3, [sp, #4]
a00031d0:	e59d2014 	ldr	r2, [sp, #20]
a00031d4:	e0020392 	mul	r2, r2, r3
a00031d8:	e5dd3013 	ldrb	r3, [sp, #19]
a00031dc:	e0823003 	add	r3, r2, r3
a00031e0:	e2433057 	sub	r3, r3, #87	; 0x57
a00031e4:	e58d3014 	str	r3, [sp, #20]
a00031e8:	ea000011 	b	a0003234 <strtoul+0x1d0>
a00031ec:	e5dd3013 	ldrb	r3, [sp, #19]
a00031f0:	e3530040 	cmp	r3, #64	; 0x40
a00031f4:	9a000012 	bls	a0003244 <strtoul+0x1e0>
a00031f8:	e5dd3013 	ldrb	r3, [sp, #19]
a00031fc:	e353005a 	cmp	r3, #90	; 0x5a
a0003200:	8a00000f 	bhi	a0003244 <strtoul+0x1e0>
a0003204:	e5dd3013 	ldrb	r3, [sp, #19]
a0003208:	e2432037 	sub	r2, r3, #55	; 0x37
a000320c:	e59d3004 	ldr	r3, [sp, #4]
a0003210:	e1520003 	cmp	r2, r3
a0003214:	aa00000a 	bge	a0003244 <strtoul+0x1e0>
a0003218:	e59d3004 	ldr	r3, [sp, #4]
a000321c:	e59d2014 	ldr	r2, [sp, #20]
a0003220:	e0020392 	mul	r2, r2, r3
a0003224:	e5dd3013 	ldrb	r3, [sp, #19]
a0003228:	e0823003 	add	r3, r2, r3
a000322c:	e2433037 	sub	r3, r3, #55	; 0x37
a0003230:	e58d3014 	str	r3, [sp, #20]
a0003234:	e59d300c 	ldr	r3, [sp, #12]
a0003238:	e2833001 	add	r3, r3, #1
a000323c:	e58d300c 	str	r3, [sp, #12]
a0003240:	eaffffc0 	b	a0003148 <strtoul+0xe4>
a0003244:	e59d3008 	ldr	r3, [sp, #8]
a0003248:	e3530000 	cmp	r3, #0
a000324c:	0a000002 	beq	a000325c <strtoul+0x1f8>
a0003250:	e59d3008 	ldr	r3, [sp, #8]
a0003254:	e59d200c 	ldr	r2, [sp, #12]
a0003258:	e5832000 	str	r2, [r3]
a000325c:	e59d3014 	ldr	r3, [sp, #20]
a0003260:	e1a00003 	mov	r0, r3
a0003264:	e28dd018 	add	sp, sp, #24
a0003268:	e12fff1e 	bx	lr
a000326c:	00006628 	andeq	r6, r0, r8, lsr #12
a0003270:	00000010 	andeq	r0, r0, r0, lsl r0

a0003274 <itoa>:
a0003274:	e24dd048 	sub	sp, sp, #72	; 0x48
a0003278:	e58d000c 	str	r0, [sp, #12]
a000327c:	e58d1008 	str	r1, [sp, #8]
a0003280:	e58d2004 	str	r2, [sp, #4]
a0003284:	e28d3010 	add	r3, sp, #16
a0003288:	e58d3044 	str	r3, [sp, #68]	; 0x44
a000328c:	e59d3004 	ldr	r3, [sp, #4]
a0003290:	e3530024 	cmp	r3, #36	; 0x24
a0003294:	ca000002 	bgt	a00032a4 <itoa+0x30>
a0003298:	e59d3004 	ldr	r3, [sp, #4]
a000329c:	e3530001 	cmp	r3, #1
a00032a0:	ca000001 	bgt	a00032ac <itoa+0x38>
a00032a4:	e3a03000 	mov	r3, #0
a00032a8:	ea000055 	b	a0003404 <itoa+0x190>
a00032ac:	e59d3004 	ldr	r3, [sp, #4]
a00032b0:	e353000a 	cmp	r3, #10
a00032b4:	1a000004 	bne	a00032cc <itoa+0x58>
a00032b8:	e59d300c 	ldr	r3, [sp, #12]
a00032bc:	e3530000 	cmp	r3, #0
a00032c0:	aa000001 	bge	a00032cc <itoa+0x58>
a00032c4:	e3a03001 	mov	r3, #1
a00032c8:	ea000000 	b	a00032d0 <itoa+0x5c>
a00032cc:	e3a03000 	mov	r3, #0
a00032d0:	e58d3038 	str	r3, [sp, #56]	; 0x38
a00032d4:	e59d3038 	ldr	r3, [sp, #56]	; 0x38
a00032d8:	e3530000 	cmp	r3, #0
a00032dc:	0a000003 	beq	a00032f0 <itoa+0x7c>
a00032e0:	e59d300c 	ldr	r3, [sp, #12]
a00032e4:	e2633000 	rsb	r3, r3, #0
a00032e8:	e58d3040 	str	r3, [sp, #64]	; 0x40
a00032ec:	ea000020 	b	a0003374 <itoa+0x100>
a00032f0:	e59d300c 	ldr	r3, [sp, #12]
a00032f4:	e58d3040 	str	r3, [sp, #64]	; 0x40
a00032f8:	ea00001d 	b	a0003374 <itoa+0x100>
a00032fc:	e59d2004 	ldr	r2, [sp, #4]
a0003300:	e59d3040 	ldr	r3, [sp, #64]	; 0x40
a0003304:	e731f213 	udiv	r1, r3, r2
a0003308:	e0020192 	mul	r2, r2, r1
a000330c:	e0623003 	rsb	r3, r2, r3
a0003310:	e58d3034 	str	r3, [sp, #52]	; 0x34
a0003314:	e59d3004 	ldr	r3, [sp, #4]
a0003318:	e59d2040 	ldr	r2, [sp, #64]	; 0x40
a000331c:	e733f312 	udiv	r3, r2, r3
a0003320:	e58d3040 	str	r3, [sp, #64]	; 0x40
a0003324:	e59d3034 	ldr	r3, [sp, #52]	; 0x34
a0003328:	e3530009 	cmp	r3, #9
a000332c:	ca000008 	bgt	a0003354 <itoa+0xe0>
a0003330:	e59d3044 	ldr	r3, [sp, #68]	; 0x44
a0003334:	e2832001 	add	r2, r3, #1
a0003338:	e58d2044 	str	r2, [sp, #68]	; 0x44
a000333c:	e59d2034 	ldr	r2, [sp, #52]	; 0x34
a0003340:	e6ef2072 	uxtb	r2, r2
a0003344:	e2822030 	add	r2, r2, #48	; 0x30
a0003348:	e6ef2072 	uxtb	r2, r2
a000334c:	e5c32000 	strb	r2, [r3]
a0003350:	ea000007 	b	a0003374 <itoa+0x100>
a0003354:	e59d3044 	ldr	r3, [sp, #68]	; 0x44
a0003358:	e2832001 	add	r2, r3, #1
a000335c:	e58d2044 	str	r2, [sp, #68]	; 0x44
a0003360:	e59d2034 	ldr	r2, [sp, #52]	; 0x34
a0003364:	e6ef2072 	uxtb	r2, r2
a0003368:	e2822057 	add	r2, r2, #87	; 0x57
a000336c:	e6ef2072 	uxtb	r2, r2
a0003370:	e5c32000 	strb	r2, [r3]
a0003374:	e59d3040 	ldr	r3, [sp, #64]	; 0x40
a0003378:	e3530000 	cmp	r3, #0
a000337c:	1affffde 	bne	a00032fc <itoa+0x88>
a0003380:	e28d3010 	add	r3, sp, #16
a0003384:	e59d2044 	ldr	r2, [sp, #68]	; 0x44
a0003388:	e1520003 	cmp	r2, r3
a000338c:	0affffda 	beq	a00032fc <itoa+0x88>
a0003390:	e59d3008 	ldr	r3, [sp, #8]
a0003394:	e58d303c 	str	r3, [sp, #60]	; 0x3c
a0003398:	e59d3038 	ldr	r3, [sp, #56]	; 0x38
a000339c:	e3530000 	cmp	r3, #0
a00033a0:	0a000005 	beq	a00033bc <itoa+0x148>
a00033a4:	e59d303c 	ldr	r3, [sp, #60]	; 0x3c
a00033a8:	e2832001 	add	r2, r3, #1
a00033ac:	e58d203c 	str	r2, [sp, #60]	; 0x3c
a00033b0:	e3a0202d 	mov	r2, #45	; 0x2d
a00033b4:	e5c32000 	strb	r2, [r3]
a00033b8:	ea000009 	b	a00033e4 <itoa+0x170>
a00033bc:	ea000008 	b	a00033e4 <itoa+0x170>
a00033c0:	e59d303c 	ldr	r3, [sp, #60]	; 0x3c
a00033c4:	e2832001 	add	r2, r3, #1
a00033c8:	e58d203c 	str	r2, [sp, #60]	; 0x3c
a00033cc:	e59d2044 	ldr	r2, [sp, #68]	; 0x44
a00033d0:	e2422001 	sub	r2, r2, #1
a00033d4:	e58d2044 	str	r2, [sp, #68]	; 0x44
a00033d8:	e59d2044 	ldr	r2, [sp, #68]	; 0x44
a00033dc:	e5d22000 	ldrb	r2, [r2]
a00033e0:	e5c32000 	strb	r2, [r3]
a00033e4:	e28d3010 	add	r3, sp, #16
a00033e8:	e59d2044 	ldr	r2, [sp, #68]	; 0x44
a00033ec:	e1520003 	cmp	r2, r3
a00033f0:	8afffff2 	bhi	a00033c0 <itoa+0x14c>
a00033f4:	e59d303c 	ldr	r3, [sp, #60]	; 0x3c
a00033f8:	e3a02000 	mov	r2, #0
a00033fc:	e5c32000 	strb	r2, [r3]
a0003400:	e59d3008 	ldr	r3, [sp, #8]
a0003404:	e1a00003 	mov	r0, r3
a0003408:	e28dd048 	add	sp, sp, #72	; 0x48
a000340c:	e12fff1e 	bx	lr

a0003410 <skip_atoi>:
a0003410:	e24dd010 	sub	sp, sp, #16
a0003414:	e58d0004 	str	r0, [sp, #4]
a0003418:	e59f107c 	ldr	r1, [pc, #124]	; a000349c <skip_atoi+0x8c>
a000341c:	e08f1001 	add	r1, pc, r1
a0003420:	e3a03000 	mov	r3, #0
a0003424:	e58d300c 	str	r3, [sp, #12]
a0003428:	ea00000e 	b	a0003468 <skip_atoi+0x58>
a000342c:	e59d200c 	ldr	r2, [sp, #12]
a0003430:	e1a03002 	mov	r3, r2
a0003434:	e1a03103 	lsl	r3, r3, #2
a0003438:	e0833002 	add	r3, r3, r2
a000343c:	e1a03083 	lsl	r3, r3, #1
a0003440:	e1a02003 	mov	r2, r3
a0003444:	e59d3004 	ldr	r3, [sp, #4]
a0003448:	e5933000 	ldr	r3, [r3]
a000344c:	e283c001 	add	ip, r3, #1
a0003450:	e59d0004 	ldr	r0, [sp, #4]
a0003454:	e580c000 	str	ip, [r0]
a0003458:	e5d33000 	ldrb	r3, [r3]
a000345c:	e0823003 	add	r3, r2, r3
a0003460:	e2433030 	sub	r3, r3, #48	; 0x30
a0003464:	e58d300c 	str	r3, [sp, #12]
a0003468:	e59d3004 	ldr	r3, [sp, #4]
a000346c:	e5933000 	ldr	r3, [r3]
a0003470:	e5d33000 	ldrb	r3, [r3]
a0003474:	e59f2024 	ldr	r2, [pc, #36]	; a00034a0 <skip_atoi+0x90>
a0003478:	e7912002 	ldr	r2, [r1, r2]
a000347c:	e7d23003 	ldrb	r3, [r2, r3]
a0003480:	e2033004 	and	r3, r3, #4
a0003484:	e3530000 	cmp	r3, #0
a0003488:	1affffe7 	bne	a000342c <skip_atoi+0x1c>
a000348c:	e59d300c 	ldr	r3, [sp, #12]
a0003490:	e1a00003 	mov	r0, r3
a0003494:	e28dd010 	add	sp, sp, #16
a0003498:	e12fff1e 	bx	lr
a000349c:	00006284 	andeq	r6, r0, r4, lsl #5
a00034a0:	00000010 	andeq	r0, r0, r0, lsl r0

a00034a4 <number>:
a00034a4:	e24dd068 	sub	sp, sp, #104	; 0x68
a00034a8:	e58d000c 	str	r0, [sp, #12]
a00034ac:	e1cd20f0 	strd	r2, [sp]
a00034b0:	e59f33e0 	ldr	r3, [pc, #992]	; a0003898 <number+0x3f4>
a00034b4:	e08f3003 	add	r3, pc, r3
a00034b8:	e58d3060 	str	r3, [sp, #96]	; 0x60
a00034bc:	e59d3074 	ldr	r3, [sp, #116]	; 0x74
a00034c0:	e2033040 	and	r3, r3, #64	; 0x40
a00034c4:	e3530000 	cmp	r3, #0
a00034c8:	0a000002 	beq	a00034d8 <number+0x34>
a00034cc:	e59f33c8 	ldr	r3, [pc, #968]	; a000389c <number+0x3f8>
a00034d0:	e08f3003 	add	r3, pc, r3
a00034d4:	e58d3060 	str	r3, [sp, #96]	; 0x60
a00034d8:	e59d3074 	ldr	r3, [sp, #116]	; 0x74
a00034dc:	e2033010 	and	r3, r3, #16
a00034e0:	e3530000 	cmp	r3, #0
a00034e4:	0a000002 	beq	a00034f4 <number+0x50>
a00034e8:	e59d3074 	ldr	r3, [sp, #116]	; 0x74
a00034ec:	e3c33001 	bic	r3, r3, #1
a00034f0:	e58d3074 	str	r3, [sp, #116]	; 0x74
a00034f4:	e59d3068 	ldr	r3, [sp, #104]	; 0x68
a00034f8:	e3530001 	cmp	r3, #1
a00034fc:	da000002 	ble	a000350c <number+0x68>
a0003500:	e59d3068 	ldr	r3, [sp, #104]	; 0x68
a0003504:	e3530024 	cmp	r3, #36	; 0x24
a0003508:	da000001 	ble	a0003514 <number+0x70>
a000350c:	e3a03000 	mov	r3, #0
a0003510:	ea0000dd 	b	a000388c <number+0x3e8>
a0003514:	e59d3074 	ldr	r3, [sp, #116]	; 0x74
a0003518:	e2033001 	and	r3, r3, #1
a000351c:	e3530000 	cmp	r3, #0
a0003520:	0a000001 	beq	a000352c <number+0x88>
a0003524:	e3a03030 	mov	r3, #48	; 0x30
a0003528:	ea000000 	b	a0003530 <number+0x8c>
a000352c:	e3a03020 	mov	r3, #32
a0003530:	e5cd305b 	strb	r3, [sp, #91]	; 0x5b
a0003534:	e3a03000 	mov	r3, #0
a0003538:	e5cd3067 	strb	r3, [sp, #103]	; 0x67
a000353c:	e59d3074 	ldr	r3, [sp, #116]	; 0x74
a0003540:	e2033002 	and	r3, r3, #2
a0003544:	e3530000 	cmp	r3, #0
a0003548:	0a000020 	beq	a00035d0 <number+0x12c>
a000354c:	e1cd20d0 	ldrd	r2, [sp]
a0003550:	e3520000 	cmp	r2, #0
a0003554:	e2d30000 	sbcs	r0, r3, #0
a0003558:	aa000009 	bge	a0003584 <number+0xe0>
a000355c:	e3a0302d 	mov	r3, #45	; 0x2d
a0003560:	e5cd3067 	strb	r3, [sp, #103]	; 0x67
a0003564:	e1cd20d0 	ldrd	r2, [sp]
a0003568:	e2722000 	rsbs	r2, r2, #0
a000356c:	e2e33000 	rsc	r3, r3, #0
a0003570:	e1cd20f0 	strd	r2, [sp]
a0003574:	e59d306c 	ldr	r3, [sp, #108]	; 0x6c
a0003578:	e2433001 	sub	r3, r3, #1
a000357c:	e58d306c 	str	r3, [sp, #108]	; 0x6c
a0003580:	ea000012 	b	a00035d0 <number+0x12c>
a0003584:	e59d3074 	ldr	r3, [sp, #116]	; 0x74
a0003588:	e2033004 	and	r3, r3, #4
a000358c:	e3530000 	cmp	r3, #0
a0003590:	0a000005 	beq	a00035ac <number+0x108>
a0003594:	e3a0302b 	mov	r3, #43	; 0x2b
a0003598:	e5cd3067 	strb	r3, [sp, #103]	; 0x67
a000359c:	e59d306c 	ldr	r3, [sp, #108]	; 0x6c
a00035a0:	e2433001 	sub	r3, r3, #1
a00035a4:	e58d306c 	str	r3, [sp, #108]	; 0x6c
a00035a8:	ea000008 	b	a00035d0 <number+0x12c>
a00035ac:	e59d3074 	ldr	r3, [sp, #116]	; 0x74
a00035b0:	e2033008 	and	r3, r3, #8
a00035b4:	e3530000 	cmp	r3, #0
a00035b8:	0a000004 	beq	a00035d0 <number+0x12c>
a00035bc:	e3a03020 	mov	r3, #32
a00035c0:	e5cd3067 	strb	r3, [sp, #103]	; 0x67
a00035c4:	e59d306c 	ldr	r3, [sp, #108]	; 0x6c
a00035c8:	e2433001 	sub	r3, r3, #1
a00035cc:	e58d306c 	str	r3, [sp, #108]	; 0x6c
a00035d0:	e59d3074 	ldr	r3, [sp, #116]	; 0x74
a00035d4:	e2033020 	and	r3, r3, #32
a00035d8:	e3530000 	cmp	r3, #0
a00035dc:	0a00000c 	beq	a0003614 <number+0x170>
a00035e0:	e59d3068 	ldr	r3, [sp, #104]	; 0x68
a00035e4:	e3530010 	cmp	r3, #16
a00035e8:	1a000003 	bne	a00035fc <number+0x158>
a00035ec:	e59d306c 	ldr	r3, [sp, #108]	; 0x6c
a00035f0:	e2433002 	sub	r3, r3, #2
a00035f4:	e58d306c 	str	r3, [sp, #108]	; 0x6c
a00035f8:	ea000005 	b	a0003614 <number+0x170>
a00035fc:	e59d3068 	ldr	r3, [sp, #104]	; 0x68
a0003600:	e3530008 	cmp	r3, #8
a0003604:	1a000002 	bne	a0003614 <number+0x170>
a0003608:	e59d306c 	ldr	r3, [sp, #108]	; 0x6c
a000360c:	e2433001 	sub	r3, r3, #1
a0003610:	e58d306c 	str	r3, [sp, #108]	; 0x6c
a0003614:	e3a03000 	mov	r3, #0
a0003618:	e58d305c 	str	r3, [sp, #92]	; 0x5c
a000361c:	e1cd20d0 	ldrd	r2, [sp]
a0003620:	e1921003 	orrs	r1, r2, r3
a0003624:	1a000009 	bne	a0003650 <number+0x1ac>
a0003628:	e59d305c 	ldr	r3, [sp, #92]	; 0x5c
a000362c:	e2832001 	add	r2, r3, #1
a0003630:	e58d205c 	str	r2, [sp, #92]	; 0x5c
a0003634:	e3e02057 	mvn	r2, #87	; 0x57
a0003638:	e28d0068 	add	r0, sp, #104	; 0x68
a000363c:	e0803003 	add	r3, r0, r3
a0003640:	e0833002 	add	r3, r3, r2
a0003644:	e3a02030 	mov	r2, #48	; 0x30
a0003648:	e5c32000 	strb	r2, [r3]
a000364c:	ea00001b 	b	a00036c0 <number+0x21c>
a0003650:	ea000017 	b	a00036b4 <number+0x210>
a0003654:	e59d105c 	ldr	r1, [sp, #92]	; 0x5c
a0003658:	e2813001 	add	r3, r1, #1
a000365c:	e58d305c 	str	r3, [sp, #92]	; 0x5c
a0003660:	e59d3000 	ldr	r3, [sp]
a0003664:	e59d2068 	ldr	r2, [sp, #104]	; 0x68
a0003668:	e730f213 	udiv	r0, r3, r2
a000366c:	e0020092 	mul	r2, r2, r0
a0003670:	e0623003 	rsb	r3, r2, r3
a0003674:	e58d3054 	str	r3, [sp, #84]	; 0x54
a0003678:	e59d2000 	ldr	r2, [sp]
a000367c:	e59d3068 	ldr	r3, [sp, #104]	; 0x68
a0003680:	e733f312 	udiv	r3, r2, r3
a0003684:	e1a02003 	mov	r2, r3
a0003688:	e3a03000 	mov	r3, #0
a000368c:	e1cd20f0 	strd	r2, [sp]
a0003690:	e59d3054 	ldr	r3, [sp, #84]	; 0x54
a0003694:	e59d2060 	ldr	r2, [sp, #96]	; 0x60
a0003698:	e0823003 	add	r3, r2, r3
a000369c:	e5d32000 	ldrb	r2, [r3]
a00036a0:	e3e03057 	mvn	r3, #87	; 0x57
a00036a4:	e28d0068 	add	r0, sp, #104	; 0x68
a00036a8:	e0801001 	add	r1, r0, r1
a00036ac:	e0813003 	add	r3, r1, r3
a00036b0:	e5c32000 	strb	r2, [r3]
a00036b4:	e1cd20d0 	ldrd	r2, [sp]
a00036b8:	e1921003 	orrs	r1, r2, r3
a00036bc:	1affffe4 	bne	a0003654 <number+0x1b0>
a00036c0:	e59d205c 	ldr	r2, [sp, #92]	; 0x5c
a00036c4:	e59d3070 	ldr	r3, [sp, #112]	; 0x70
a00036c8:	e1520003 	cmp	r2, r3
a00036cc:	da000001 	ble	a00036d8 <number+0x234>
a00036d0:	e59d305c 	ldr	r3, [sp, #92]	; 0x5c
a00036d4:	e58d3070 	str	r3, [sp, #112]	; 0x70
a00036d8:	e59d206c 	ldr	r2, [sp, #108]	; 0x6c
a00036dc:	e59d3070 	ldr	r3, [sp, #112]	; 0x70
a00036e0:	e0633002 	rsb	r3, r3, r2
a00036e4:	e58d306c 	str	r3, [sp, #108]	; 0x6c
a00036e8:	e59d3074 	ldr	r3, [sp, #116]	; 0x74
a00036ec:	e2033011 	and	r3, r3, #17
a00036f0:	e3530000 	cmp	r3, #0
a00036f4:	1a00000a 	bne	a0003724 <number+0x280>
a00036f8:	ea000004 	b	a0003710 <number+0x26c>
a00036fc:	e59d300c 	ldr	r3, [sp, #12]
a0003700:	e2832001 	add	r2, r3, #1
a0003704:	e58d200c 	str	r2, [sp, #12]
a0003708:	e3a02020 	mov	r2, #32
a000370c:	e5c32000 	strb	r2, [r3]
a0003710:	e59d306c 	ldr	r3, [sp, #108]	; 0x6c
a0003714:	e2432001 	sub	r2, r3, #1
a0003718:	e58d206c 	str	r2, [sp, #108]	; 0x6c
a000371c:	e3530000 	cmp	r3, #0
a0003720:	cafffff5 	bgt	a00036fc <number+0x258>
a0003724:	e5dd3067 	ldrb	r3, [sp, #103]	; 0x67
a0003728:	e3530000 	cmp	r3, #0
a000372c:	0a000004 	beq	a0003744 <number+0x2a0>
a0003730:	e59d300c 	ldr	r3, [sp, #12]
a0003734:	e2832001 	add	r2, r3, #1
a0003738:	e58d200c 	str	r2, [sp, #12]
a000373c:	e5dd2067 	ldrb	r2, [sp, #103]	; 0x67
a0003740:	e5c32000 	strb	r2, [r3]
a0003744:	e59d3074 	ldr	r3, [sp, #116]	; 0x74
a0003748:	e2033020 	and	r3, r3, #32
a000374c:	e3530000 	cmp	r3, #0
a0003750:	0a000016 	beq	a00037b0 <number+0x30c>
a0003754:	e59d3068 	ldr	r3, [sp, #104]	; 0x68
a0003758:	e3530008 	cmp	r3, #8
a000375c:	1a000005 	bne	a0003778 <number+0x2d4>
a0003760:	e59d300c 	ldr	r3, [sp, #12]
a0003764:	e2832001 	add	r2, r3, #1
a0003768:	e58d200c 	str	r2, [sp, #12]
a000376c:	e3a02030 	mov	r2, #48	; 0x30
a0003770:	e5c32000 	strb	r2, [r3]
a0003774:	ea00000d 	b	a00037b0 <number+0x30c>
a0003778:	e59d3068 	ldr	r3, [sp, #104]	; 0x68
a000377c:	e3530010 	cmp	r3, #16
a0003780:	1a00000a 	bne	a00037b0 <number+0x30c>
a0003784:	e59d300c 	ldr	r3, [sp, #12]
a0003788:	e2832001 	add	r2, r3, #1
a000378c:	e58d200c 	str	r2, [sp, #12]
a0003790:	e3a02030 	mov	r2, #48	; 0x30
a0003794:	e5c32000 	strb	r2, [r3]
a0003798:	e59d300c 	ldr	r3, [sp, #12]
a000379c:	e2832001 	add	r2, r3, #1
a00037a0:	e58d200c 	str	r2, [sp, #12]
a00037a4:	e59d2060 	ldr	r2, [sp, #96]	; 0x60
a00037a8:	e5d22021 	ldrb	r2, [r2, #33]	; 0x21
a00037ac:	e5c32000 	strb	r2, [r3]
a00037b0:	e59d3074 	ldr	r3, [sp, #116]	; 0x74
a00037b4:	e2033010 	and	r3, r3, #16
a00037b8:	e3530000 	cmp	r3, #0
a00037bc:	1a00000a 	bne	a00037ec <number+0x348>
a00037c0:	ea000004 	b	a00037d8 <number+0x334>
a00037c4:	e59d300c 	ldr	r3, [sp, #12]
a00037c8:	e2832001 	add	r2, r3, #1
a00037cc:	e58d200c 	str	r2, [sp, #12]
a00037d0:	e5dd205b 	ldrb	r2, [sp, #91]	; 0x5b
a00037d4:	e5c32000 	strb	r2, [r3]
a00037d8:	e59d306c 	ldr	r3, [sp, #108]	; 0x6c
a00037dc:	e2432001 	sub	r2, r3, #1
a00037e0:	e58d206c 	str	r2, [sp, #108]	; 0x6c
a00037e4:	e3530000 	cmp	r3, #0
a00037e8:	cafffff5 	bgt	a00037c4 <number+0x320>
a00037ec:	ea000004 	b	a0003804 <number+0x360>
a00037f0:	e59d300c 	ldr	r3, [sp, #12]
a00037f4:	e2832001 	add	r2, r3, #1
a00037f8:	e58d200c 	str	r2, [sp, #12]
a00037fc:	e3a02030 	mov	r2, #48	; 0x30
a0003800:	e5c32000 	strb	r2, [r3]
a0003804:	e59d3070 	ldr	r3, [sp, #112]	; 0x70
a0003808:	e2432001 	sub	r2, r3, #1
a000380c:	e58d2070 	str	r2, [sp, #112]	; 0x70
a0003810:	e59d205c 	ldr	r2, [sp, #92]	; 0x5c
a0003814:	e1530002 	cmp	r3, r2
a0003818:	cafffff4 	bgt	a00037f0 <number+0x34c>
a000381c:	ea000009 	b	a0003848 <number+0x3a4>
a0003820:	e59d300c 	ldr	r3, [sp, #12]
a0003824:	e2832001 	add	r2, r3, #1
a0003828:	e58d200c 	str	r2, [sp, #12]
a000382c:	e3e02057 	mvn	r2, #87	; 0x57
a0003830:	e59d105c 	ldr	r1, [sp, #92]	; 0x5c
a0003834:	e28d0068 	add	r0, sp, #104	; 0x68
a0003838:	e0801001 	add	r1, r0, r1
a000383c:	e0812002 	add	r2, r1, r2
a0003840:	e5d22000 	ldrb	r2, [r2]
a0003844:	e5c32000 	strb	r2, [r3]
a0003848:	e59d305c 	ldr	r3, [sp, #92]	; 0x5c
a000384c:	e2432001 	sub	r2, r3, #1
a0003850:	e58d205c 	str	r2, [sp, #92]	; 0x5c
a0003854:	e3530000 	cmp	r3, #0
a0003858:	cafffff0 	bgt	a0003820 <number+0x37c>
a000385c:	ea000004 	b	a0003874 <number+0x3d0>
a0003860:	e59d300c 	ldr	r3, [sp, #12]
a0003864:	e2832001 	add	r2, r3, #1
a0003868:	e58d200c 	str	r2, [sp, #12]
a000386c:	e3a02020 	mov	r2, #32
a0003870:	e5c32000 	strb	r2, [r3]
a0003874:	e59d306c 	ldr	r3, [sp, #108]	; 0x6c
a0003878:	e2432001 	sub	r2, r3, #1
a000387c:	e58d206c 	str	r2, [sp, #108]	; 0x6c
a0003880:	e3530000 	cmp	r3, #0
a0003884:	cafffff5 	bgt	a0003860 <number+0x3bc>
a0003888:	e59d300c 	ldr	r3, [sp, #12]
a000388c:	e1a00003 	mov	r0, r3
a0003890:	e28dd068 	add	sp, sp, #104	; 0x68
a0003894:	e12fff1e 	bx	lr
a0003898:	000060b4 	strheq	r6, [r0], -r4
a000389c:	000060c0 	andeq	r6, r0, r0, asr #1

a00038a0 <vsprintf>:
a00038a0:	e92d4010 	push	{r4, lr}
a00038a4:	e24dd050 	sub	sp, sp, #80	; 0x50
a00038a8:	e58d001c 	str	r0, [sp, #28]
a00038ac:	e58d1018 	str	r1, [sp, #24]
a00038b0:	e58d2014 	str	r2, [sp, #20]
a00038b4:	e59f4784 	ldr	r4, [pc, #1924]	; a0004040 <vsprintf+0x7a0>
a00038b8:	e08f4004 	add	r4, pc, r4
a00038bc:	e59d301c 	ldr	r3, [sp, #28]
a00038c0:	e58d3040 	str	r3, [sp, #64]	; 0x40
a00038c4:	ea0001d0 	b	a000400c <vsprintf+0x76c>
a00038c8:	e59d3018 	ldr	r3, [sp, #24]
a00038cc:	e5d33000 	ldrb	r3, [r3]
a00038d0:	e3530025 	cmp	r3, #37	; 0x25
a00038d4:	0a000006 	beq	a00038f4 <vsprintf+0x54>
a00038d8:	e59d3040 	ldr	r3, [sp, #64]	; 0x40
a00038dc:	e2832001 	add	r2, r3, #1
a00038e0:	e58d2040 	str	r2, [sp, #64]	; 0x40
a00038e4:	e59d2018 	ldr	r2, [sp, #24]
a00038e8:	e5d22000 	ldrb	r2, [r2]
a00038ec:	e5c32000 	strb	r2, [r3]
a00038f0:	ea0001c2 	b	a0004000 <vsprintf+0x760>
a00038f4:	e3a03000 	mov	r3, #0
a00038f8:	e58d3038 	str	r3, [sp, #56]	; 0x38
a00038fc:	e59d3018 	ldr	r3, [sp, #24]
a0003900:	e2833001 	add	r3, r3, #1
a0003904:	e58d3018 	str	r3, [sp, #24]
a0003908:	e59d3018 	ldr	r3, [sp, #24]
a000390c:	e5d33000 	ldrb	r3, [r3]
a0003910:	e2433020 	sub	r3, r3, #32
a0003914:	e3530010 	cmp	r3, #16
a0003918:	908ff103 	addls	pc, pc, r3, lsl #2
a000391c:	ea000024 	b	a00039b4 <vsprintf+0x114>
a0003920:	ea000017 	b	a0003984 <vsprintf+0xe4>
a0003924:	ea000022 	b	a00039b4 <vsprintf+0x114>
a0003928:	ea000021 	b	a00039b4 <vsprintf+0x114>
a000392c:	ea000018 	b	a0003994 <vsprintf+0xf4>
a0003930:	ea00001f 	b	a00039b4 <vsprintf+0x114>
a0003934:	ea00001e 	b	a00039b4 <vsprintf+0x114>
a0003938:	ea00001d 	b	a00039b4 <vsprintf+0x114>
a000393c:	ea00001c 	b	a00039b4 <vsprintf+0x114>
a0003940:	ea00001b 	b	a00039b4 <vsprintf+0x114>
a0003944:	ea00001a 	b	a00039b4 <vsprintf+0x114>
a0003948:	ea000019 	b	a00039b4 <vsprintf+0x114>
a000394c:	ea000008 	b	a0003974 <vsprintf+0xd4>
a0003950:	ea000017 	b	a00039b4 <vsprintf+0x114>
a0003954:	ea000002 	b	a0003964 <vsprintf+0xc4>
a0003958:	ea000015 	b	a00039b4 <vsprintf+0x114>
a000395c:	ea000014 	b	a00039b4 <vsprintf+0x114>
a0003960:	ea00000f 	b	a00039a4 <vsprintf+0x104>
a0003964:	e59d3038 	ldr	r3, [sp, #56]	; 0x38
a0003968:	e3833010 	orr	r3, r3, #16
a000396c:	e58d3038 	str	r3, [sp, #56]	; 0x38
a0003970:	eaffffe1 	b	a00038fc <vsprintf+0x5c>
a0003974:	e59d3038 	ldr	r3, [sp, #56]	; 0x38
a0003978:	e3833004 	orr	r3, r3, #4
a000397c:	e58d3038 	str	r3, [sp, #56]	; 0x38
a0003980:	eaffffdd 	b	a00038fc <vsprintf+0x5c>
a0003984:	e59d3038 	ldr	r3, [sp, #56]	; 0x38
a0003988:	e3833008 	orr	r3, r3, #8
a000398c:	e58d3038 	str	r3, [sp, #56]	; 0x38
a0003990:	eaffffd9 	b	a00038fc <vsprintf+0x5c>
a0003994:	e59d3038 	ldr	r3, [sp, #56]	; 0x38
a0003998:	e3833020 	orr	r3, r3, #32
a000399c:	e58d3038 	str	r3, [sp, #56]	; 0x38
a00039a0:	eaffffd5 	b	a00038fc <vsprintf+0x5c>
a00039a4:	e59d3038 	ldr	r3, [sp, #56]	; 0x38
a00039a8:	e3833001 	orr	r3, r3, #1
a00039ac:	e58d3038 	str	r3, [sp, #56]	; 0x38
a00039b0:	eaffffd1 	b	a00038fc <vsprintf+0x5c>
a00039b4:	e3e03000 	mvn	r3, #0
a00039b8:	e58d3034 	str	r3, [sp, #52]	; 0x34
a00039bc:	e59d3018 	ldr	r3, [sp, #24]
a00039c0:	e5d33000 	ldrb	r3, [r3]
a00039c4:	e59f2678 	ldr	r2, [pc, #1656]	; a0004044 <vsprintf+0x7a4>
a00039c8:	e7942002 	ldr	r2, [r4, r2]
a00039cc:	e7d23003 	ldrb	r3, [r2, r3]
a00039d0:	e2033004 	and	r3, r3, #4
a00039d4:	e3530000 	cmp	r3, #0
a00039d8:	0a000004 	beq	a00039f0 <vsprintf+0x150>
a00039dc:	e28d3018 	add	r3, sp, #24
a00039e0:	e1a00003 	mov	r0, r3
a00039e4:	ebfffe89 	bl	a0003410 <skip_atoi>
a00039e8:	e58d0034 	str	r0, [sp, #52]	; 0x34
a00039ec:	ea000015 	b	a0003a48 <vsprintf+0x1a8>
a00039f0:	e59d3018 	ldr	r3, [sp, #24]
a00039f4:	e5d33000 	ldrb	r3, [r3]
a00039f8:	e353002a 	cmp	r3, #42	; 0x2a
a00039fc:	1a000011 	bne	a0003a48 <vsprintf+0x1a8>
a0003a00:	e59d3018 	ldr	r3, [sp, #24]
a0003a04:	e2833001 	add	r3, r3, #1
a0003a08:	e58d3018 	str	r3, [sp, #24]
a0003a0c:	e59d3014 	ldr	r3, [sp, #20]
a0003a10:	e2833004 	add	r3, r3, #4
a0003a14:	e58d3014 	str	r3, [sp, #20]
a0003a18:	e59d3014 	ldr	r3, [sp, #20]
a0003a1c:	e5133004 	ldr	r3, [r3, #-4]
a0003a20:	e58d3034 	str	r3, [sp, #52]	; 0x34
a0003a24:	e59d3034 	ldr	r3, [sp, #52]	; 0x34
a0003a28:	e3530000 	cmp	r3, #0
a0003a2c:	aa000005 	bge	a0003a48 <vsprintf+0x1a8>
a0003a30:	e59d3034 	ldr	r3, [sp, #52]	; 0x34
a0003a34:	e2633000 	rsb	r3, r3, #0
a0003a38:	e58d3034 	str	r3, [sp, #52]	; 0x34
a0003a3c:	e59d3038 	ldr	r3, [sp, #56]	; 0x38
a0003a40:	e3833010 	orr	r3, r3, #16
a0003a44:	e58d3038 	str	r3, [sp, #56]	; 0x38
a0003a48:	e3e03000 	mvn	r3, #0
a0003a4c:	e58d3030 	str	r3, [sp, #48]	; 0x30
a0003a50:	e59d3018 	ldr	r3, [sp, #24]
a0003a54:	e5d33000 	ldrb	r3, [r3]
a0003a58:	e353002e 	cmp	r3, #46	; 0x2e
a0003a5c:	1a000021 	bne	a0003ae8 <vsprintf+0x248>
a0003a60:	e59d3018 	ldr	r3, [sp, #24]
a0003a64:	e2833001 	add	r3, r3, #1
a0003a68:	e58d3018 	str	r3, [sp, #24]
a0003a6c:	e59d3018 	ldr	r3, [sp, #24]
a0003a70:	e5d33000 	ldrb	r3, [r3]
a0003a74:	e59f25c8 	ldr	r2, [pc, #1480]	; a0004044 <vsprintf+0x7a4>
a0003a78:	e7942002 	ldr	r2, [r4, r2]
a0003a7c:	e7d23003 	ldrb	r3, [r2, r3]
a0003a80:	e2033004 	and	r3, r3, #4
a0003a84:	e3530000 	cmp	r3, #0
a0003a88:	0a000004 	beq	a0003aa0 <vsprintf+0x200>
a0003a8c:	e28d3018 	add	r3, sp, #24
a0003a90:	e1a00003 	mov	r0, r3
a0003a94:	ebfffe5d 	bl	a0003410 <skip_atoi>
a0003a98:	e58d0030 	str	r0, [sp, #48]	; 0x30
a0003a9c:	ea00000c 	b	a0003ad4 <vsprintf+0x234>
a0003aa0:	e59d3018 	ldr	r3, [sp, #24]
a0003aa4:	e5d33000 	ldrb	r3, [r3]
a0003aa8:	e353002a 	cmp	r3, #42	; 0x2a
a0003aac:	1a000008 	bne	a0003ad4 <vsprintf+0x234>
a0003ab0:	e59d3018 	ldr	r3, [sp, #24]
a0003ab4:	e2833001 	add	r3, r3, #1
a0003ab8:	e58d3018 	str	r3, [sp, #24]
a0003abc:	e59d3014 	ldr	r3, [sp, #20]
a0003ac0:	e2833004 	add	r3, r3, #4
a0003ac4:	e58d3014 	str	r3, [sp, #20]
a0003ac8:	e59d3014 	ldr	r3, [sp, #20]
a0003acc:	e5133004 	ldr	r3, [r3, #-4]
a0003ad0:	e58d3030 	str	r3, [sp, #48]	; 0x30
a0003ad4:	e59d3030 	ldr	r3, [sp, #48]	; 0x30
a0003ad8:	e3530000 	cmp	r3, #0
a0003adc:	aa000001 	bge	a0003ae8 <vsprintf+0x248>
a0003ae0:	e3a03000 	mov	r3, #0
a0003ae4:	e58d3030 	str	r3, [sp, #48]	; 0x30
a0003ae8:	e3e03000 	mvn	r3, #0
a0003aec:	e58d302c 	str	r3, [sp, #44]	; 0x2c
a0003af0:	e59d3018 	ldr	r3, [sp, #24]
a0003af4:	e5d33000 	ldrb	r3, [r3]
a0003af8:	e3530068 	cmp	r3, #104	; 0x68
a0003afc:	0a000007 	beq	a0003b20 <vsprintf+0x280>
a0003b00:	e59d3018 	ldr	r3, [sp, #24]
a0003b04:	e5d33000 	ldrb	r3, [r3]
a0003b08:	e353006c 	cmp	r3, #108	; 0x6c
a0003b0c:	0a000003 	beq	a0003b20 <vsprintf+0x280>
a0003b10:	e59d3018 	ldr	r3, [sp, #24]
a0003b14:	e5d33000 	ldrb	r3, [r3]
a0003b18:	e353004c 	cmp	r3, #76	; 0x4c
a0003b1c:	1a000005 	bne	a0003b38 <vsprintf+0x298>
a0003b20:	e59d3018 	ldr	r3, [sp, #24]
a0003b24:	e5d33000 	ldrb	r3, [r3]
a0003b28:	e58d302c 	str	r3, [sp, #44]	; 0x2c
a0003b2c:	e59d3018 	ldr	r3, [sp, #24]
a0003b30:	e2833001 	add	r3, r3, #1
a0003b34:	e58d3018 	str	r3, [sp, #24]
a0003b38:	e3a0300a 	mov	r3, #10
a0003b3c:	e58d3044 	str	r3, [sp, #68]	; 0x44
a0003b40:	e59d3018 	ldr	r3, [sp, #24]
a0003b44:	e5d33000 	ldrb	r3, [r3]
a0003b48:	e2433058 	sub	r3, r3, #88	; 0x58
a0003b4c:	e3530020 	cmp	r3, #32
a0003b50:	908ff103 	addls	pc, pc, r3, lsl #2
a0003b54:	ea0000cd 	b	a0003e90 <vsprintf+0x5f0>
a0003b58:	ea0000c2 	b	a0003e68 <vsprintf+0x5c8>
a0003b5c:	ea0000cb 	b	a0003e90 <vsprintf+0x5f0>
a0003b60:	ea0000ca 	b	a0003e90 <vsprintf+0x5f0>
a0003b64:	ea0000c9 	b	a0003e90 <vsprintf+0x5f0>
a0003b68:	ea0000c8 	b	a0003e90 <vsprintf+0x5f0>
a0003b6c:	ea0000c7 	b	a0003e90 <vsprintf+0x5f0>
a0003b70:	ea0000c6 	b	a0003e90 <vsprintf+0x5f0>
a0003b74:	ea0000c5 	b	a0003e90 <vsprintf+0x5f0>
a0003b78:	ea0000c4 	b	a0003e90 <vsprintf+0x5f0>
a0003b7c:	ea0000c3 	b	a0003e90 <vsprintf+0x5f0>
a0003b80:	ea0000c2 	b	a0003e90 <vsprintf+0x5f0>
a0003b84:	ea000014 	b	a0003bdc <vsprintf+0x33c>
a0003b88:	ea0000bc 	b	a0003e80 <vsprintf+0x5e0>
a0003b8c:	ea0000bf 	b	a0003e90 <vsprintf+0x5f0>
a0003b90:	ea0000be 	b	a0003e90 <vsprintf+0x5f0>
a0003b94:	ea0000bd 	b	a0003e90 <vsprintf+0x5f0>
a0003b98:	ea0000bc 	b	a0003e90 <vsprintf+0x5f0>
a0003b9c:	ea0000b7 	b	a0003e80 <vsprintf+0x5e0>
a0003ba0:	ea0000ba 	b	a0003e90 <vsprintf+0x5f0>
a0003ba4:	ea0000b9 	b	a0003e90 <vsprintf+0x5f0>
a0003ba8:	ea0000b8 	b	a0003e90 <vsprintf+0x5f0>
a0003bac:	ea0000b7 	b	a0003e90 <vsprintf+0x5f0>
a0003bb0:	ea00008e 	b	a0003df0 <vsprintf+0x550>
a0003bb4:	ea0000a8 	b	a0003e5c <vsprintf+0x5bc>
a0003bb8:	ea000070 	b	a0003d80 <vsprintf+0x4e0>
a0003bbc:	ea0000b3 	b	a0003e90 <vsprintf+0x5f0>
a0003bc0:	ea0000b2 	b	a0003e90 <vsprintf+0x5f0>
a0003bc4:	ea00002c 	b	a0003c7c <vsprintf+0x3dc>
a0003bc8:	ea0000b0 	b	a0003e90 <vsprintf+0x5f0>
a0003bcc:	ea0000c7 	b	a0003ef0 <vsprintf+0x650>
a0003bd0:	ea0000ae 	b	a0003e90 <vsprintf+0x5f0>
a0003bd4:	ea0000ad 	b	a0003e90 <vsprintf+0x5f0>
a0003bd8:	ea0000a5 	b	a0003e74 <vsprintf+0x5d4>
a0003bdc:	e59d3038 	ldr	r3, [sp, #56]	; 0x38
a0003be0:	e2033010 	and	r3, r3, #16
a0003be4:	e3530000 	cmp	r3, #0
a0003be8:	1a00000b 	bne	a0003c1c <vsprintf+0x37c>
a0003bec:	ea000004 	b	a0003c04 <vsprintf+0x364>
a0003bf0:	e59d3040 	ldr	r3, [sp, #64]	; 0x40
a0003bf4:	e2832001 	add	r2, r3, #1
a0003bf8:	e58d2040 	str	r2, [sp, #64]	; 0x40
a0003bfc:	e3a02020 	mov	r2, #32
a0003c00:	e5c32000 	strb	r2, [r3]
a0003c04:	e59d3034 	ldr	r3, [sp, #52]	; 0x34
a0003c08:	e2433001 	sub	r3, r3, #1
a0003c0c:	e58d3034 	str	r3, [sp, #52]	; 0x34
a0003c10:	e59d3034 	ldr	r3, [sp, #52]	; 0x34
a0003c14:	e3530000 	cmp	r3, #0
a0003c18:	cafffff4 	bgt	a0003bf0 <vsprintf+0x350>
a0003c1c:	e59d3040 	ldr	r3, [sp, #64]	; 0x40
a0003c20:	e2832001 	add	r2, r3, #1
a0003c24:	e58d2040 	str	r2, [sp, #64]	; 0x40
a0003c28:	e59d2014 	ldr	r2, [sp, #20]
a0003c2c:	e2822004 	add	r2, r2, #4
a0003c30:	e58d2014 	str	r2, [sp, #20]
a0003c34:	e59d2014 	ldr	r2, [sp, #20]
a0003c38:	e2422004 	sub	r2, r2, #4
a0003c3c:	e5922000 	ldr	r2, [r2]
a0003c40:	e6ef2072 	uxtb	r2, r2
a0003c44:	e5c32000 	strb	r2, [r3]
a0003c48:	ea000004 	b	a0003c60 <vsprintf+0x3c0>
a0003c4c:	e59d3040 	ldr	r3, [sp, #64]	; 0x40
a0003c50:	e2832001 	add	r2, r3, #1
a0003c54:	e58d2040 	str	r2, [sp, #64]	; 0x40
a0003c58:	e3a02020 	mov	r2, #32
a0003c5c:	e5c32000 	strb	r2, [r3]
a0003c60:	e59d3034 	ldr	r3, [sp, #52]	; 0x34
a0003c64:	e2433001 	sub	r3, r3, #1
a0003c68:	e58d3034 	str	r3, [sp, #52]	; 0x34
a0003c6c:	e59d3034 	ldr	r3, [sp, #52]	; 0x34
a0003c70:	e3530000 	cmp	r3, #0
a0003c74:	cafffff4 	bgt	a0003c4c <vsprintf+0x3ac>
a0003c78:	ea0000e0 	b	a0004000 <vsprintf+0x760>
a0003c7c:	e59d3014 	ldr	r3, [sp, #20]
a0003c80:	e2833004 	add	r3, r3, #4
a0003c84:	e58d3014 	str	r3, [sp, #20]
a0003c88:	e59d3014 	ldr	r3, [sp, #20]
a0003c8c:	e5133004 	ldr	r3, [r3, #-4]
a0003c90:	e58d303c 	str	r3, [sp, #60]	; 0x3c
a0003c94:	e59d303c 	ldr	r3, [sp, #60]	; 0x3c
a0003c98:	e3530000 	cmp	r3, #0
a0003c9c:	1a000002 	bne	a0003cac <vsprintf+0x40c>
a0003ca0:	e59f33a0 	ldr	r3, [pc, #928]	; a0004048 <vsprintf+0x7a8>
a0003ca4:	e08f3003 	add	r3, pc, r3
a0003ca8:	e58d303c 	str	r3, [sp, #60]	; 0x3c
a0003cac:	e59d3030 	ldr	r3, [sp, #48]	; 0x30
a0003cb0:	e59d003c 	ldr	r0, [sp, #60]	; 0x3c
a0003cb4:	e1a01003 	mov	r1, r3
a0003cb8:	ebfffaf3 	bl	a000288c <strnlen>
a0003cbc:	e1a03000 	mov	r3, r0
a0003cc0:	e58d3028 	str	r3, [sp, #40]	; 0x28
a0003cc4:	e59d3038 	ldr	r3, [sp, #56]	; 0x38
a0003cc8:	e2033010 	and	r3, r3, #16
a0003ccc:	e3530000 	cmp	r3, #0
a0003cd0:	1a00000b 	bne	a0003d04 <vsprintf+0x464>
a0003cd4:	ea000004 	b	a0003cec <vsprintf+0x44c>
a0003cd8:	e59d3040 	ldr	r3, [sp, #64]	; 0x40
a0003cdc:	e2832001 	add	r2, r3, #1
a0003ce0:	e58d2040 	str	r2, [sp, #64]	; 0x40
a0003ce4:	e3a02020 	mov	r2, #32
a0003ce8:	e5c32000 	strb	r2, [r3]
a0003cec:	e59d3034 	ldr	r3, [sp, #52]	; 0x34
a0003cf0:	e2432001 	sub	r2, r3, #1
a0003cf4:	e58d2034 	str	r2, [sp, #52]	; 0x34
a0003cf8:	e59d2028 	ldr	r2, [sp, #40]	; 0x28
a0003cfc:	e1530002 	cmp	r3, r2
a0003d00:	cafffff4 	bgt	a0003cd8 <vsprintf+0x438>
a0003d04:	e3a03000 	mov	r3, #0
a0003d08:	e58d3048 	str	r3, [sp, #72]	; 0x48
a0003d0c:	ea00000a 	b	a0003d3c <vsprintf+0x49c>
a0003d10:	e59d3040 	ldr	r3, [sp, #64]	; 0x40
a0003d14:	e2832001 	add	r2, r3, #1
a0003d18:	e58d2040 	str	r2, [sp, #64]	; 0x40
a0003d1c:	e59d203c 	ldr	r2, [sp, #60]	; 0x3c
a0003d20:	e2821001 	add	r1, r2, #1
a0003d24:	e58d103c 	str	r1, [sp, #60]	; 0x3c
a0003d28:	e5d22000 	ldrb	r2, [r2]
a0003d2c:	e5c32000 	strb	r2, [r3]
a0003d30:	e59d3048 	ldr	r3, [sp, #72]	; 0x48
a0003d34:	e2833001 	add	r3, r3, #1
a0003d38:	e58d3048 	str	r3, [sp, #72]	; 0x48
a0003d3c:	e59d2048 	ldr	r2, [sp, #72]	; 0x48
a0003d40:	e59d3028 	ldr	r3, [sp, #40]	; 0x28
a0003d44:	e1520003 	cmp	r2, r3
a0003d48:	bafffff0 	blt	a0003d10 <vsprintf+0x470>
a0003d4c:	ea000004 	b	a0003d64 <vsprintf+0x4c4>
a0003d50:	e59d3040 	ldr	r3, [sp, #64]	; 0x40
a0003d54:	e2832001 	add	r2, r3, #1
a0003d58:	e58d2040 	str	r2, [sp, #64]	; 0x40
a0003d5c:	e3a02020 	mov	r2, #32
a0003d60:	e5c32000 	strb	r2, [r3]
a0003d64:	e59d3034 	ldr	r3, [sp, #52]	; 0x34
a0003d68:	e2432001 	sub	r2, r3, #1
a0003d6c:	e58d2034 	str	r2, [sp, #52]	; 0x34
a0003d70:	e59d2028 	ldr	r2, [sp, #40]	; 0x28
a0003d74:	e1530002 	cmp	r3, r2
a0003d78:	cafffff4 	bgt	a0003d50 <vsprintf+0x4b0>
a0003d7c:	ea00009f 	b	a0004000 <vsprintf+0x760>
a0003d80:	e59d3034 	ldr	r3, [sp, #52]	; 0x34
a0003d84:	e3730001 	cmn	r3, #1
a0003d88:	1a000004 	bne	a0003da0 <vsprintf+0x500>
a0003d8c:	e3a03008 	mov	r3, #8
a0003d90:	e58d3034 	str	r3, [sp, #52]	; 0x34
a0003d94:	e59d3038 	ldr	r3, [sp, #56]	; 0x38
a0003d98:	e3833001 	orr	r3, r3, #1
a0003d9c:	e58d3038 	str	r3, [sp, #56]	; 0x38
a0003da0:	e59d3014 	ldr	r3, [sp, #20]
a0003da4:	e2833004 	add	r3, r3, #4
a0003da8:	e58d3014 	str	r3, [sp, #20]
a0003dac:	e59d3014 	ldr	r3, [sp, #20]
a0003db0:	e2433004 	sub	r3, r3, #4
a0003db4:	e5933000 	ldr	r3, [r3]
a0003db8:	e1a02003 	mov	r2, r3
a0003dbc:	e3a03000 	mov	r3, #0
a0003dc0:	e3a01010 	mov	r1, #16
a0003dc4:	e58d1000 	str	r1, [sp]
a0003dc8:	e59d1034 	ldr	r1, [sp, #52]	; 0x34
a0003dcc:	e58d1004 	str	r1, [sp, #4]
a0003dd0:	e59d1030 	ldr	r1, [sp, #48]	; 0x30
a0003dd4:	e58d1008 	str	r1, [sp, #8]
a0003dd8:	e59d1038 	ldr	r1, [sp, #56]	; 0x38
a0003ddc:	e58d100c 	str	r1, [sp, #12]
a0003de0:	e59d0040 	ldr	r0, [sp, #64]	; 0x40
a0003de4:	ebfffdae 	bl	a00034a4 <number>
a0003de8:	e58d0040 	str	r0, [sp, #64]	; 0x40
a0003dec:	ea000083 	b	a0004000 <vsprintf+0x760>
a0003df0:	e59d302c 	ldr	r3, [sp, #44]	; 0x2c
a0003df4:	e353006c 	cmp	r3, #108	; 0x6c
a0003df8:	1a00000b 	bne	a0003e2c <vsprintf+0x58c>
a0003dfc:	e59d3014 	ldr	r3, [sp, #20]
a0003e00:	e2833004 	add	r3, r3, #4
a0003e04:	e58d3014 	str	r3, [sp, #20]
a0003e08:	e59d3014 	ldr	r3, [sp, #20]
a0003e0c:	e5133004 	ldr	r3, [r3, #-4]
a0003e10:	e58d3024 	str	r3, [sp, #36]	; 0x24
a0003e14:	e59d2040 	ldr	r2, [sp, #64]	; 0x40
a0003e18:	e59d301c 	ldr	r3, [sp, #28]
a0003e1c:	e0632002 	rsb	r2, r3, r2
a0003e20:	e59d3024 	ldr	r3, [sp, #36]	; 0x24
a0003e24:	e5832000 	str	r2, [r3]
a0003e28:	ea000074 	b	a0004000 <vsprintf+0x760>
a0003e2c:	e59d3014 	ldr	r3, [sp, #20]
a0003e30:	e2833004 	add	r3, r3, #4
a0003e34:	e58d3014 	str	r3, [sp, #20]
a0003e38:	e59d3014 	ldr	r3, [sp, #20]
a0003e3c:	e5133004 	ldr	r3, [r3, #-4]
a0003e40:	e58d3020 	str	r3, [sp, #32]
a0003e44:	e59d2040 	ldr	r2, [sp, #64]	; 0x40
a0003e48:	e59d301c 	ldr	r3, [sp, #28]
a0003e4c:	e0632002 	rsb	r2, r3, r2
a0003e50:	e59d3020 	ldr	r3, [sp, #32]
a0003e54:	e5832000 	str	r2, [r3]
a0003e58:	ea000068 	b	a0004000 <vsprintf+0x760>
a0003e5c:	e3a03008 	mov	r3, #8
a0003e60:	e58d3044 	str	r3, [sp, #68]	; 0x44
a0003e64:	ea000022 	b	a0003ef4 <vsprintf+0x654>
a0003e68:	e59d3038 	ldr	r3, [sp, #56]	; 0x38
a0003e6c:	e3833040 	orr	r3, r3, #64	; 0x40
a0003e70:	e58d3038 	str	r3, [sp, #56]	; 0x38
a0003e74:	e3a03010 	mov	r3, #16
a0003e78:	e58d3044 	str	r3, [sp, #68]	; 0x44
a0003e7c:	ea00001c 	b	a0003ef4 <vsprintf+0x654>
a0003e80:	e59d3038 	ldr	r3, [sp, #56]	; 0x38
a0003e84:	e3833002 	orr	r3, r3, #2
a0003e88:	e58d3038 	str	r3, [sp, #56]	; 0x38
a0003e8c:	ea000017 	b	a0003ef0 <vsprintf+0x650>
a0003e90:	e59d3018 	ldr	r3, [sp, #24]
a0003e94:	e5d33000 	ldrb	r3, [r3]
a0003e98:	e3530025 	cmp	r3, #37	; 0x25
a0003e9c:	0a000004 	beq	a0003eb4 <vsprintf+0x614>
a0003ea0:	e59d3040 	ldr	r3, [sp, #64]	; 0x40
a0003ea4:	e2832001 	add	r2, r3, #1
a0003ea8:	e58d2040 	str	r2, [sp, #64]	; 0x40
a0003eac:	e3a02025 	mov	r2, #37	; 0x25
a0003eb0:	e5c32000 	strb	r2, [r3]
a0003eb4:	e59d3018 	ldr	r3, [sp, #24]
a0003eb8:	e5d33000 	ldrb	r3, [r3]
a0003ebc:	e3530000 	cmp	r3, #0
a0003ec0:	0a000006 	beq	a0003ee0 <vsprintf+0x640>
a0003ec4:	e59d3040 	ldr	r3, [sp, #64]	; 0x40
a0003ec8:	e2832001 	add	r2, r3, #1
a0003ecc:	e58d2040 	str	r2, [sp, #64]	; 0x40
a0003ed0:	e59d2018 	ldr	r2, [sp, #24]
a0003ed4:	e5d22000 	ldrb	r2, [r2]
a0003ed8:	e5c32000 	strb	r2, [r3]
a0003edc:	ea000047 	b	a0004000 <vsprintf+0x760>
a0003ee0:	e59d3018 	ldr	r3, [sp, #24]
a0003ee4:	e2433001 	sub	r3, r3, #1
a0003ee8:	e58d3018 	str	r3, [sp, #24]
a0003eec:	ea000043 	b	a0004000 <vsprintf+0x760>
a0003ef0:	e1a00000 	nop			; (mov r0, r0)
a0003ef4:	e59d302c 	ldr	r3, [sp, #44]	; 0x2c
a0003ef8:	e353006c 	cmp	r3, #108	; 0x6c
a0003efc:	1a000006 	bne	a0003f1c <vsprintf+0x67c>
a0003f00:	e59d3014 	ldr	r3, [sp, #20]
a0003f04:	e2833004 	add	r3, r3, #4
a0003f08:	e58d3014 	str	r3, [sp, #20]
a0003f0c:	e59d3014 	ldr	r3, [sp, #20]
a0003f10:	e5133004 	ldr	r3, [r3, #-4]
a0003f14:	e58d304c 	str	r3, [sp, #76]	; 0x4c
a0003f18:	ea00002a 	b	a0003fc8 <vsprintf+0x728>
a0003f1c:	e59d302c 	ldr	r3, [sp, #44]	; 0x2c
a0003f20:	e3530068 	cmp	r3, #104	; 0x68
a0003f24:	1a000014 	bne	a0003f7c <vsprintf+0x6dc>
a0003f28:	e59d3038 	ldr	r3, [sp, #56]	; 0x38
a0003f2c:	e2033002 	and	r3, r3, #2
a0003f30:	e3530000 	cmp	r3, #0
a0003f34:	0a000008 	beq	a0003f5c <vsprintf+0x6bc>
a0003f38:	e59d3014 	ldr	r3, [sp, #20]
a0003f3c:	e2833002 	add	r3, r3, #2
a0003f40:	e58d3014 	str	r3, [sp, #20]
a0003f44:	e59d3014 	ldr	r3, [sp, #20]
a0003f48:	e2433002 	sub	r3, r3, #2
a0003f4c:	e1d330b0 	ldrh	r3, [r3]
a0003f50:	e6bf3073 	sxth	r3, r3
a0003f54:	e58d304c 	str	r3, [sp, #76]	; 0x4c
a0003f58:	ea00001a 	b	a0003fc8 <vsprintf+0x728>
a0003f5c:	e59d3014 	ldr	r3, [sp, #20]
a0003f60:	e2833002 	add	r3, r3, #2
a0003f64:	e58d3014 	str	r3, [sp, #20]
a0003f68:	e59d3014 	ldr	r3, [sp, #20]
a0003f6c:	e2433002 	sub	r3, r3, #2
a0003f70:	e1d330b0 	ldrh	r3, [r3]
a0003f74:	e58d304c 	str	r3, [sp, #76]	; 0x4c
a0003f78:	ea000012 	b	a0003fc8 <vsprintf+0x728>
a0003f7c:	e59d3038 	ldr	r3, [sp, #56]	; 0x38
a0003f80:	e2033002 	and	r3, r3, #2
a0003f84:	e3530000 	cmp	r3, #0
a0003f88:	0a000007 	beq	a0003fac <vsprintf+0x70c>
a0003f8c:	e59d3014 	ldr	r3, [sp, #20]
a0003f90:	e2833004 	add	r3, r3, #4
a0003f94:	e58d3014 	str	r3, [sp, #20]
a0003f98:	e59d3014 	ldr	r3, [sp, #20]
a0003f9c:	e2433004 	sub	r3, r3, #4
a0003fa0:	e5933000 	ldr	r3, [r3]
a0003fa4:	e58d304c 	str	r3, [sp, #76]	; 0x4c
a0003fa8:	ea000006 	b	a0003fc8 <vsprintf+0x728>
a0003fac:	e59d3014 	ldr	r3, [sp, #20]
a0003fb0:	e2833004 	add	r3, r3, #4
a0003fb4:	e58d3014 	str	r3, [sp, #20]
a0003fb8:	e59d3014 	ldr	r3, [sp, #20]
a0003fbc:	e2433004 	sub	r3, r3, #4
a0003fc0:	e5933000 	ldr	r3, [r3]
a0003fc4:	e58d304c 	str	r3, [sp, #76]	; 0x4c
a0003fc8:	e59d304c 	ldr	r3, [sp, #76]	; 0x4c
a0003fcc:	e1a02003 	mov	r2, r3
a0003fd0:	e3a03000 	mov	r3, #0
a0003fd4:	e59d1044 	ldr	r1, [sp, #68]	; 0x44
a0003fd8:	e58d1000 	str	r1, [sp]
a0003fdc:	e59d1034 	ldr	r1, [sp, #52]	; 0x34
a0003fe0:	e58d1004 	str	r1, [sp, #4]
a0003fe4:	e59d1030 	ldr	r1, [sp, #48]	; 0x30
a0003fe8:	e58d1008 	str	r1, [sp, #8]
a0003fec:	e59d1038 	ldr	r1, [sp, #56]	; 0x38
a0003ff0:	e58d100c 	str	r1, [sp, #12]
a0003ff4:	e59d0040 	ldr	r0, [sp, #64]	; 0x40
a0003ff8:	ebfffd29 	bl	a00034a4 <number>
a0003ffc:	e58d0040 	str	r0, [sp, #64]	; 0x40
a0004000:	e59d3018 	ldr	r3, [sp, #24]
a0004004:	e2833001 	add	r3, r3, #1
a0004008:	e58d3018 	str	r3, [sp, #24]
a000400c:	e59d3018 	ldr	r3, [sp, #24]
a0004010:	e5d33000 	ldrb	r3, [r3]
a0004014:	e3530000 	cmp	r3, #0
a0004018:	1afffe2a 	bne	a00038c8 <vsprintf+0x28>
a000401c:	e59d3040 	ldr	r3, [sp, #64]	; 0x40
a0004020:	e3a02000 	mov	r2, #0
a0004024:	e5c32000 	strb	r2, [r3]
a0004028:	e59d2040 	ldr	r2, [sp, #64]	; 0x40
a000402c:	e59d301c 	ldr	r3, [sp, #28]
a0004030:	e0633002 	rsb	r3, r3, r2
a0004034:	e1a00003 	mov	r0, r3
a0004038:	e28dd050 	add	sp, sp, #80	; 0x50
a000403c:	e8bd8010 	pop	{r4, pc}
a0004040:	00005de8 	andeq	r5, r0, r8, ror #27
a0004044:	00000010 	andeq	r0, r0, r0, lsl r0
a0004048:	00005914 	andeq	r5, r0, r4, lsl r9

a000404c <sprintf>:
a000404c:	e92d000e 	push	{r1, r2, r3}
a0004050:	e52de004 	push	{lr}		; (str lr, [sp, #-4]!)
a0004054:	e24dd010 	sub	sp, sp, #16
a0004058:	e58d0004 	str	r0, [sp, #4]
a000405c:	e28d3018 	add	r3, sp, #24
a0004060:	e58d300c 	str	r3, [sp, #12]
a0004064:	e59d3014 	ldr	r3, [sp, #20]
a0004068:	e59d0004 	ldr	r0, [sp, #4]
a000406c:	e1a01003 	mov	r1, r3
a0004070:	e59d200c 	ldr	r2, [sp, #12]
a0004074:	ebfffe09 	bl	a00038a0 <vsprintf>
a0004078:	e58d0008 	str	r0, [sp, #8]
a000407c:	e59d3008 	ldr	r3, [sp, #8]
a0004080:	e1a00003 	mov	r0, r3
a0004084:	e28dd010 	add	sp, sp, #16
a0004088:	e49de004 	pop	{lr}		; (ldr lr, [sp], #4)
a000408c:	e28dd00c 	add	sp, sp, #12
a0004090:	e12fff1e 	bx	lr

a0004094 <xCoRoutineCreate>:
a0004094:	e92d4010 	push	{r4, lr}
a0004098:	e24dd018 	sub	sp, sp, #24
a000409c:	e58d000c 	str	r0, [sp, #12]
a00040a0:	e58d1008 	str	r1, [sp, #8]
a00040a4:	e58d2004 	str	r2, [sp, #4]
a00040a8:	e59f4158 	ldr	r4, [pc, #344]	; a0004208 <xCoRoutineCreate+0x174>
a00040ac:	e08f4004 	add	r4, pc, r4
a00040b0:	e3a00038 	mov	r0, #56	; 0x38
a00040b4:	eb0014a7 	bl	a0009358 <pvPortMalloc>
a00040b8:	e58d0010 	str	r0, [sp, #16]
a00040bc:	e59d3010 	ldr	r3, [sp, #16]
a00040c0:	e3530000 	cmp	r3, #0
a00040c4:	0a000049 	beq	a00041f0 <xCoRoutineCreate+0x15c>
a00040c8:	e59f313c 	ldr	r3, [pc, #316]	; a000420c <xCoRoutineCreate+0x178>
a00040cc:	e7943003 	ldr	r3, [r4, r3]
a00040d0:	e5933000 	ldr	r3, [r3]
a00040d4:	e3530000 	cmp	r3, #0
a00040d8:	1a000004 	bne	a00040f0 <xCoRoutineCreate+0x5c>
a00040dc:	e59f3128 	ldr	r3, [pc, #296]	; a000420c <xCoRoutineCreate+0x178>
a00040e0:	e7943003 	ldr	r3, [r4, r3]
a00040e4:	e59d2010 	ldr	r2, [sp, #16]
a00040e8:	e5832000 	str	r2, [r3]
a00040ec:	eb0001b0 	bl	a00047b4 <prvInitialiseCoRoutineLists>
a00040f0:	e59d3008 	ldr	r3, [sp, #8]
a00040f4:	e3530001 	cmp	r3, #1
a00040f8:	9a000001 	bls	a0004104 <xCoRoutineCreate+0x70>
a00040fc:	e3a03001 	mov	r3, #1
a0004100:	e58d3008 	str	r3, [sp, #8]
a0004104:	e59d3010 	ldr	r3, [sp, #16]
a0004108:	e3a02000 	mov	r2, #0
a000410c:	e1c323b4 	strh	r2, [r3, #52]	; 0x34
a0004110:	e59d3010 	ldr	r3, [sp, #16]
a0004114:	e59d2008 	ldr	r2, [sp, #8]
a0004118:	e583202c 	str	r2, [r3, #44]	; 0x2c
a000411c:	e59d3010 	ldr	r3, [sp, #16]
a0004120:	e59d2004 	ldr	r2, [sp, #4]
a0004124:	e5832030 	str	r2, [r3, #48]	; 0x30
a0004128:	e59d3010 	ldr	r3, [sp, #16]
a000412c:	e59d200c 	ldr	r2, [sp, #12]
a0004130:	e5832000 	str	r2, [r3]
a0004134:	e59d3010 	ldr	r3, [sp, #16]
a0004138:	e2833004 	add	r3, r3, #4
a000413c:	e1a00003 	mov	r0, r3
a0004140:	eb00020e 	bl	a0004980 <vListInitialiseItem>
a0004144:	e59d3010 	ldr	r3, [sp, #16]
a0004148:	e2833018 	add	r3, r3, #24
a000414c:	e1a00003 	mov	r0, r3
a0004150:	eb00020a 	bl	a0004980 <vListInitialiseItem>
a0004154:	e59d3010 	ldr	r3, [sp, #16]
a0004158:	e59d2010 	ldr	r2, [sp, #16]
a000415c:	e5832010 	str	r2, [r3, #16]
a0004160:	e59d3010 	ldr	r3, [sp, #16]
a0004164:	e59d2010 	ldr	r2, [sp, #16]
a0004168:	e5832024 	str	r2, [r3, #36]	; 0x24
a000416c:	e59d3008 	ldr	r3, [sp, #8]
a0004170:	e263200a 	rsb	r2, r3, #10
a0004174:	e59d3010 	ldr	r3, [sp, #16]
a0004178:	e5832018 	str	r2, [r3, #24]
a000417c:	e59d3010 	ldr	r3, [sp, #16]
a0004180:	e593202c 	ldr	r2, [r3, #44]	; 0x2c
a0004184:	e59f3084 	ldr	r3, [pc, #132]	; a0004210 <xCoRoutineCreate+0x17c>
a0004188:	e08f3003 	add	r3, pc, r3
a000418c:	e5933000 	ldr	r3, [r3]
a0004190:	e1520003 	cmp	r2, r3
a0004194:	9a000004 	bls	a00041ac <xCoRoutineCreate+0x118>
a0004198:	e59d3010 	ldr	r3, [sp, #16]
a000419c:	e593202c 	ldr	r2, [r3, #44]	; 0x2c
a00041a0:	e59f306c 	ldr	r3, [pc, #108]	; a0004214 <xCoRoutineCreate+0x180>
a00041a4:	e08f3003 	add	r3, pc, r3
a00041a8:	e5832000 	str	r2, [r3]
a00041ac:	e59d3010 	ldr	r3, [sp, #16]
a00041b0:	e593202c 	ldr	r2, [r3, #44]	; 0x2c
a00041b4:	e1a03002 	mov	r3, r2
a00041b8:	e1a03103 	lsl	r3, r3, #2
a00041bc:	e0833002 	add	r3, r3, r2
a00041c0:	e1a03103 	lsl	r3, r3, #2
a00041c4:	e59f204c 	ldr	r2, [pc, #76]	; a0004218 <xCoRoutineCreate+0x184>
a00041c8:	e08f2002 	add	r2, pc, r2
a00041cc:	e0832002 	add	r2, r3, r2
a00041d0:	e59d3010 	ldr	r3, [sp, #16]
a00041d4:	e2833004 	add	r3, r3, #4
a00041d8:	e1a00002 	mov	r0, r2
a00041dc:	e1a01003 	mov	r1, r3
a00041e0:	eb0001ed 	bl	a000499c <vListInsertEnd>
a00041e4:	e3a03001 	mov	r3, #1
a00041e8:	e58d3014 	str	r3, [sp, #20]
a00041ec:	ea000001 	b	a00041f8 <xCoRoutineCreate+0x164>
a00041f0:	e3e03000 	mvn	r3, #0
a00041f4:	e58d3014 	str	r3, [sp, #20]
a00041f8:	e59d3014 	ldr	r3, [sp, #20]
a00041fc:	e1a00003 	mov	r0, r3
a0004200:	e28dd018 	add	sp, sp, #24
a0004204:	e8bd8010 	pop	{r4, pc}
a0004208:	000055f4 	strdeq	r5, [r0], -r4
a000420c:	0000000c 	andeq	r0, r0, ip
a0004210:	000057dc 	ldrdeq	r5, [r0], -ip
a0004214:	000057c0 	andeq	r5, r0, r0, asr #15
a0004218:	0000572c 	andeq	r5, r0, ip, lsr #14

a000421c <vCoRoutineAddToDelayedList>:
a000421c:	e92d4010 	push	{r4, lr}
a0004220:	e24dd010 	sub	sp, sp, #16
a0004224:	e58d0004 	str	r0, [sp, #4]
a0004228:	e58d1000 	str	r1, [sp]
a000422c:	e59f40e0 	ldr	r4, [pc, #224]	; a0004314 <vCoRoutineAddToDelayedList+0xf8>
a0004230:	e08f4004 	add	r4, pc, r4
a0004234:	e59f30dc 	ldr	r3, [pc, #220]	; a0004318 <vCoRoutineAddToDelayedList+0xfc>
a0004238:	e08f3003 	add	r3, pc, r3
a000423c:	e5932000 	ldr	r2, [r3]
a0004240:	e59d3004 	ldr	r3, [sp, #4]
a0004244:	e0823003 	add	r3, r2, r3
a0004248:	e58d300c 	str	r3, [sp, #12]
a000424c:	e59f30c8 	ldr	r3, [pc, #200]	; a000431c <vCoRoutineAddToDelayedList+0x100>
a0004250:	e7943003 	ldr	r3, [r4, r3]
a0004254:	e5933000 	ldr	r3, [r3]
a0004258:	e2833004 	add	r3, r3, #4
a000425c:	e1a00003 	mov	r0, r3
a0004260:	eb000221 	bl	a0004aec <vListRemove>
a0004264:	e59f30b0 	ldr	r3, [pc, #176]	; a000431c <vCoRoutineAddToDelayedList+0x100>
a0004268:	e7943003 	ldr	r3, [r4, r3]
a000426c:	e5933000 	ldr	r3, [r3]
a0004270:	e59d200c 	ldr	r2, [sp, #12]
a0004274:	e5832004 	str	r2, [r3, #4]
a0004278:	e59f30a0 	ldr	r3, [pc, #160]	; a0004320 <vCoRoutineAddToDelayedList+0x104>
a000427c:	e08f3003 	add	r3, pc, r3
a0004280:	e5933000 	ldr	r3, [r3]
a0004284:	e59d200c 	ldr	r2, [sp, #12]
a0004288:	e1520003 	cmp	r2, r3
a000428c:	2a00000a 	bcs	a00042bc <vCoRoutineAddToDelayedList+0xa0>
a0004290:	e59f308c 	ldr	r3, [pc, #140]	; a0004324 <vCoRoutineAddToDelayedList+0x108>
a0004294:	e08f3003 	add	r3, pc, r3
a0004298:	e5932000 	ldr	r2, [r3]
a000429c:	e59f3078 	ldr	r3, [pc, #120]	; a000431c <vCoRoutineAddToDelayedList+0x100>
a00042a0:	e7943003 	ldr	r3, [r4, r3]
a00042a4:	e5933000 	ldr	r3, [r3]
a00042a8:	e2833004 	add	r3, r3, #4
a00042ac:	e1a00002 	mov	r0, r2
a00042b0:	e1a01003 	mov	r1, r3
a00042b4:	eb0001da 	bl	a0004a24 <vListInsert>
a00042b8:	ea000009 	b	a00042e4 <vCoRoutineAddToDelayedList+0xc8>
a00042bc:	e59f3064 	ldr	r3, [pc, #100]	; a0004328 <vCoRoutineAddToDelayedList+0x10c>
a00042c0:	e08f3003 	add	r3, pc, r3
a00042c4:	e5932000 	ldr	r2, [r3]
a00042c8:	e59f304c 	ldr	r3, [pc, #76]	; a000431c <vCoRoutineAddToDelayedList+0x100>
a00042cc:	e7943003 	ldr	r3, [r4, r3]
a00042d0:	e5933000 	ldr	r3, [r3]
a00042d4:	e2833004 	add	r3, r3, #4
a00042d8:	e1a00002 	mov	r0, r2
a00042dc:	e1a01003 	mov	r1, r3
a00042e0:	eb0001cf 	bl	a0004a24 <vListInsert>
a00042e4:	e59d3000 	ldr	r3, [sp]
a00042e8:	e3530000 	cmp	r3, #0
a00042ec:	0a000006 	beq	a000430c <vCoRoutineAddToDelayedList+0xf0>
a00042f0:	e59f3024 	ldr	r3, [pc, #36]	; a000431c <vCoRoutineAddToDelayedList+0x100>
a00042f4:	e7943003 	ldr	r3, [r4, r3]
a00042f8:	e5933000 	ldr	r3, [r3]
a00042fc:	e2833018 	add	r3, r3, #24
a0004300:	e59d0000 	ldr	r0, [sp]
a0004304:	e1a01003 	mov	r1, r3
a0004308:	eb0001c5 	bl	a0004a24 <vListInsert>
a000430c:	e28dd010 	add	sp, sp, #16
a0004310:	e8bd8010 	pop	{r4, pc}
a0004314:	00005470 	andeq	r5, r0, r0, ror r4
a0004318:	00005730 	andeq	r5, r0, r0, lsr r7
a000431c:	0000000c 	andeq	r0, r0, ip
a0004320:	000056ec 	andeq	r5, r0, ip, ror #13
a0004324:	000056b4 			; <UNDEFINED> instruction: 0x000056b4
a0004328:	00005684 	andeq	r5, r0, r4, lsl #13

a000432c <prvCheckPendingReadyList>:
a000432c:	e52de004 	push	{lr}		; (str lr, [sp, #-4]!)
a0004330:	e24dd00c 	sub	sp, sp, #12
a0004334:	ea000029 	b	a00043e0 <prvCheckPendingReadyList+0xb4>
a0004338:	eb001382 	bl	a0009148 <xPortSetInterruptMask>
a000433c:	e59f30b8 	ldr	r3, [pc, #184]	; a00043fc <prvCheckPendingReadyList+0xd0>
a0004340:	e08f3003 	add	r3, pc, r3
a0004344:	e593300c 	ldr	r3, [r3, #12]
a0004348:	e593300c 	ldr	r3, [r3, #12]
a000434c:	e58d3004 	str	r3, [sp, #4]
a0004350:	e59d3004 	ldr	r3, [sp, #4]
a0004354:	e2833018 	add	r3, r3, #24
a0004358:	e1a00003 	mov	r0, r3
a000435c:	eb0001e2 	bl	a0004aec <vListRemove>
a0004360:	e3a000ff 	mov	r0, #255	; 0xff
a0004364:	eb001384 	bl	a000917c <vPortClearInterruptMask>
a0004368:	e59d3004 	ldr	r3, [sp, #4]
a000436c:	e2833004 	add	r3, r3, #4
a0004370:	e1a00003 	mov	r0, r3
a0004374:	eb0001dc 	bl	a0004aec <vListRemove>
a0004378:	e59d3004 	ldr	r3, [sp, #4]
a000437c:	e593202c 	ldr	r2, [r3, #44]	; 0x2c
a0004380:	e59f3078 	ldr	r3, [pc, #120]	; a0004400 <prvCheckPendingReadyList+0xd4>
a0004384:	e08f3003 	add	r3, pc, r3
a0004388:	e5933000 	ldr	r3, [r3]
a000438c:	e1520003 	cmp	r2, r3
a0004390:	9a000004 	bls	a00043a8 <prvCheckPendingReadyList+0x7c>
a0004394:	e59d3004 	ldr	r3, [sp, #4]
a0004398:	e593202c 	ldr	r2, [r3, #44]	; 0x2c
a000439c:	e59f3060 	ldr	r3, [pc, #96]	; a0004404 <prvCheckPendingReadyList+0xd8>
a00043a0:	e08f3003 	add	r3, pc, r3
a00043a4:	e5832000 	str	r2, [r3]
a00043a8:	e59d3004 	ldr	r3, [sp, #4]
a00043ac:	e593202c 	ldr	r2, [r3, #44]	; 0x2c
a00043b0:	e1a03002 	mov	r3, r2
a00043b4:	e1a03103 	lsl	r3, r3, #2
a00043b8:	e0833002 	add	r3, r3, r2
a00043bc:	e1a03103 	lsl	r3, r3, #2
a00043c0:	e59f2040 	ldr	r2, [pc, #64]	; a0004408 <prvCheckPendingReadyList+0xdc>
a00043c4:	e08f2002 	add	r2, pc, r2
a00043c8:	e0832002 	add	r2, r3, r2
a00043cc:	e59d3004 	ldr	r3, [sp, #4]
a00043d0:	e2833004 	add	r3, r3, #4
a00043d4:	e1a00002 	mov	r0, r2
a00043d8:	e1a01003 	mov	r1, r3
a00043dc:	eb00016e 	bl	a000499c <vListInsertEnd>
a00043e0:	e59f3024 	ldr	r3, [pc, #36]	; a000440c <prvCheckPendingReadyList+0xe0>
a00043e4:	e08f3003 	add	r3, pc, r3
a00043e8:	e5933000 	ldr	r3, [r3]
a00043ec:	e3530000 	cmp	r3, #0
a00043f0:	1affffd0 	bne	a0004338 <prvCheckPendingReadyList+0xc>
a00043f4:	e28dd00c 	add	sp, sp, #12
a00043f8:	e49df004 	pop	{pc}		; (ldr pc, [sp], #4)
a00043fc:	0000560c 	andeq	r5, r0, ip, lsl #12
a0004400:	000055e0 	andeq	r5, r0, r0, ror #11
a0004404:	000055c4 	andeq	r5, r0, r4, asr #11
a0004408:	00005530 	andeq	r5, r0, r0, lsr r5
a000440c:	00005568 	andeq	r5, r0, r8, ror #10

a0004410 <prvCheckDelayedList>:
a0004410:	e52de004 	push	{lr}		; (str lr, [sp, #-4]!)
a0004414:	e24dd00c 	sub	sp, sp, #12
a0004418:	eb000942 	bl	a0006928 <xTaskGetTickCount>
a000441c:	e1a02000 	mov	r2, r0
a0004420:	e59f31cc 	ldr	r3, [pc, #460]	; a00045f4 <prvCheckDelayedList+0x1e4>
a0004424:	e08f3003 	add	r3, pc, r3
a0004428:	e5933000 	ldr	r3, [r3]
a000442c:	e0632002 	rsb	r2, r3, r2
a0004430:	e59f31c0 	ldr	r3, [pc, #448]	; a00045f8 <prvCheckDelayedList+0x1e8>
a0004434:	e08f3003 	add	r3, pc, r3
a0004438:	e5832000 	str	r2, [r3]
a000443c:	ea00005f 	b	a00045c0 <prvCheckDelayedList+0x1b0>
a0004440:	e59f31b4 	ldr	r3, [pc, #436]	; a00045fc <prvCheckDelayedList+0x1ec>
a0004444:	e08f3003 	add	r3, pc, r3
a0004448:	e5933000 	ldr	r3, [r3]
a000444c:	e2832001 	add	r2, r3, #1
a0004450:	e59f31a8 	ldr	r3, [pc, #424]	; a0004600 <prvCheckDelayedList+0x1f0>
a0004454:	e08f3003 	add	r3, pc, r3
a0004458:	e5832000 	str	r2, [r3]
a000445c:	e59f31a0 	ldr	r3, [pc, #416]	; a0004604 <prvCheckDelayedList+0x1f4>
a0004460:	e08f3003 	add	r3, pc, r3
a0004464:	e5933000 	ldr	r3, [r3]
a0004468:	e2432001 	sub	r2, r3, #1
a000446c:	e59f3194 	ldr	r3, [pc, #404]	; a0004608 <prvCheckDelayedList+0x1f8>
a0004470:	e08f3003 	add	r3, pc, r3
a0004474:	e5832000 	str	r2, [r3]
a0004478:	e59f318c 	ldr	r3, [pc, #396]	; a000460c <prvCheckDelayedList+0x1fc>
a000447c:	e08f3003 	add	r3, pc, r3
a0004480:	e5933000 	ldr	r3, [r3]
a0004484:	e3530000 	cmp	r3, #0
a0004488:	1a00000e 	bne	a00044c8 <prvCheckDelayedList+0xb8>
a000448c:	e59f317c 	ldr	r3, [pc, #380]	; a0004610 <prvCheckDelayedList+0x200>
a0004490:	e08f3003 	add	r3, pc, r3
a0004494:	e5933000 	ldr	r3, [r3]
a0004498:	e58d3004 	str	r3, [sp, #4]
a000449c:	e59f3170 	ldr	r3, [pc, #368]	; a0004614 <prvCheckDelayedList+0x204>
a00044a0:	e08f3003 	add	r3, pc, r3
a00044a4:	e5932000 	ldr	r2, [r3]
a00044a8:	e59f3168 	ldr	r3, [pc, #360]	; a0004618 <prvCheckDelayedList+0x208>
a00044ac:	e08f3003 	add	r3, pc, r3
a00044b0:	e5832000 	str	r2, [r3]
a00044b4:	e59f3160 	ldr	r3, [pc, #352]	; a000461c <prvCheckDelayedList+0x20c>
a00044b8:	e08f3003 	add	r3, pc, r3
a00044bc:	e59d2004 	ldr	r2, [sp, #4]
a00044c0:	e5832000 	str	r2, [r3]
a00044c4:	ea000037 	b	a00045a8 <prvCheckDelayedList+0x198>
a00044c8:	ea000036 	b	a00045a8 <prvCheckDelayedList+0x198>
a00044cc:	e59f314c 	ldr	r3, [pc, #332]	; a0004620 <prvCheckDelayedList+0x210>
a00044d0:	e08f3003 	add	r3, pc, r3
a00044d4:	e5933000 	ldr	r3, [r3]
a00044d8:	e593300c 	ldr	r3, [r3, #12]
a00044dc:	e593300c 	ldr	r3, [r3, #12]
a00044e0:	e58d3000 	str	r3, [sp]
a00044e4:	e59d3000 	ldr	r3, [sp]
a00044e8:	e5932004 	ldr	r2, [r3, #4]
a00044ec:	e59f3130 	ldr	r3, [pc, #304]	; a0004624 <prvCheckDelayedList+0x214>
a00044f0:	e08f3003 	add	r3, pc, r3
a00044f4:	e5933000 	ldr	r3, [r3]
a00044f8:	e1520003 	cmp	r2, r3
a00044fc:	9a000000 	bls	a0004504 <prvCheckDelayedList+0xf4>
a0004500:	ea00002e 	b	a00045c0 <prvCheckDelayedList+0x1b0>
a0004504:	eb00130f 	bl	a0009148 <xPortSetInterruptMask>
a0004508:	e59d3000 	ldr	r3, [sp]
a000450c:	e2833004 	add	r3, r3, #4
a0004510:	e1a00003 	mov	r0, r3
a0004514:	eb000174 	bl	a0004aec <vListRemove>
a0004518:	e59d3000 	ldr	r3, [sp]
a000451c:	e5933028 	ldr	r3, [r3, #40]	; 0x28
a0004520:	e3530000 	cmp	r3, #0
a0004524:	0a000003 	beq	a0004538 <prvCheckDelayedList+0x128>
a0004528:	e59d3000 	ldr	r3, [sp]
a000452c:	e2833018 	add	r3, r3, #24
a0004530:	e1a00003 	mov	r0, r3
a0004534:	eb00016c 	bl	a0004aec <vListRemove>
a0004538:	e3a000ff 	mov	r0, #255	; 0xff
a000453c:	eb00130e 	bl	a000917c <vPortClearInterruptMask>
a0004540:	e59d3000 	ldr	r3, [sp]
a0004544:	e593202c 	ldr	r2, [r3, #44]	; 0x2c
a0004548:	e59f30d8 	ldr	r3, [pc, #216]	; a0004628 <prvCheckDelayedList+0x218>
a000454c:	e08f3003 	add	r3, pc, r3
a0004550:	e5933000 	ldr	r3, [r3]
a0004554:	e1520003 	cmp	r2, r3
a0004558:	9a000004 	bls	a0004570 <prvCheckDelayedList+0x160>
a000455c:	e59d3000 	ldr	r3, [sp]
a0004560:	e593202c 	ldr	r2, [r3, #44]	; 0x2c
a0004564:	e59f30c0 	ldr	r3, [pc, #192]	; a000462c <prvCheckDelayedList+0x21c>
a0004568:	e08f3003 	add	r3, pc, r3
a000456c:	e5832000 	str	r2, [r3]
a0004570:	e59d3000 	ldr	r3, [sp]
a0004574:	e593202c 	ldr	r2, [r3, #44]	; 0x2c
a0004578:	e1a03002 	mov	r3, r2
a000457c:	e1a03103 	lsl	r3, r3, #2
a0004580:	e0833002 	add	r3, r3, r2
a0004584:	e1a03103 	lsl	r3, r3, #2
a0004588:	e59f20a0 	ldr	r2, [pc, #160]	; a0004630 <prvCheckDelayedList+0x220>
a000458c:	e08f2002 	add	r2, pc, r2
a0004590:	e0832002 	add	r2, r3, r2
a0004594:	e59d3000 	ldr	r3, [sp]
a0004598:	e2833004 	add	r3, r3, #4
a000459c:	e1a00002 	mov	r0, r2
a00045a0:	e1a01003 	mov	r1, r3
a00045a4:	eb0000fc 	bl	a000499c <vListInsertEnd>
a00045a8:	e59f3084 	ldr	r3, [pc, #132]	; a0004634 <prvCheckDelayedList+0x224>
a00045ac:	e08f3003 	add	r3, pc, r3
a00045b0:	e5933000 	ldr	r3, [r3]
a00045b4:	e5933000 	ldr	r3, [r3]
a00045b8:	e3530000 	cmp	r3, #0
a00045bc:	1affffc2 	bne	a00044cc <prvCheckDelayedList+0xbc>
a00045c0:	e59f3070 	ldr	r3, [pc, #112]	; a0004638 <prvCheckDelayedList+0x228>
a00045c4:	e08f3003 	add	r3, pc, r3
a00045c8:	e5933000 	ldr	r3, [r3]
a00045cc:	e3530000 	cmp	r3, #0
a00045d0:	1affff9a 	bne	a0004440 <prvCheckDelayedList+0x30>
a00045d4:	e59f3060 	ldr	r3, [pc, #96]	; a000463c <prvCheckDelayedList+0x22c>
a00045d8:	e08f3003 	add	r3, pc, r3
a00045dc:	e5932000 	ldr	r2, [r3]
a00045e0:	e59f3058 	ldr	r3, [pc, #88]	; a0004640 <prvCheckDelayedList+0x230>
a00045e4:	e08f3003 	add	r3, pc, r3
a00045e8:	e5832000 	str	r2, [r3]
a00045ec:	e28dd00c 	add	sp, sp, #12
a00045f0:	e49df004 	pop	{pc}		; (ldr pc, [sp], #4)
a00045f4:	00005548 	andeq	r5, r0, r8, asr #10
a00045f8:	0000553c 	andeq	r5, r0, ip, lsr r5
a00045fc:	00005524 	andeq	r5, r0, r4, lsr #10
a0004600:	00005514 	andeq	r5, r0, r4, lsl r5
a0004604:	00005510 	andeq	r5, r0, r0, lsl r5
a0004608:	00005500 	andeq	r5, r0, r0, lsl #10
a000460c:	000054ec 	andeq	r5, r0, ip, ror #9
a0004610:	000054b4 			; <UNDEFINED> instruction: 0x000054b4
a0004614:	000054a8 	andeq	r5, r0, r8, lsr #9
a0004618:	00005498 	muleq	r0, r8, r4
a000461c:	00005490 	muleq	r0, r0, r4
a0004620:	00005474 	andeq	r5, r0, r4, ror r4
a0004624:	00005478 	andeq	r5, r0, r8, ror r4
a0004628:	00005418 	andeq	r5, r0, r8, lsl r4
a000462c:	000053fc 	strdeq	r5, [r0], -ip
a0004630:	00005368 	andeq	r5, r0, r8, ror #6
a0004634:	00005398 	muleq	r0, r8, r3
a0004638:	000053ac 	andeq	r5, r0, ip, lsr #7
a000463c:	00005390 	muleq	r0, r0, r3
a0004640:	00005388 	andeq	r5, r0, r8, lsl #7

a0004644 <vCoRoutineSchedule>:
a0004644:	e92d4010 	push	{r4, lr}
a0004648:	e24dd008 	sub	sp, sp, #8
a000464c:	e59f413c 	ldr	r4, [pc, #316]	; a0004790 <vCoRoutineSchedule+0x14c>
a0004650:	e08f4004 	add	r4, pc, r4
a0004654:	ebffff34 	bl	a000432c <prvCheckPendingReadyList>
a0004658:	ebffff6c 	bl	a0004410 <prvCheckDelayedList>
a000465c:	ea00000c 	b	a0004694 <vCoRoutineSchedule+0x50>
a0004660:	e59f312c 	ldr	r3, [pc, #300]	; a0004794 <vCoRoutineSchedule+0x150>
a0004664:	e08f3003 	add	r3, pc, r3
a0004668:	e5933000 	ldr	r3, [r3]
a000466c:	e3530000 	cmp	r3, #0
a0004670:	1a000000 	bne	a0004678 <vCoRoutineSchedule+0x34>
a0004674:	ea000043 	b	a0004788 <vCoRoutineSchedule+0x144>
a0004678:	e59f3118 	ldr	r3, [pc, #280]	; a0004798 <vCoRoutineSchedule+0x154>
a000467c:	e08f3003 	add	r3, pc, r3
a0004680:	e5933000 	ldr	r3, [r3]
a0004684:	e2432001 	sub	r2, r3, #1
a0004688:	e59f310c 	ldr	r3, [pc, #268]	; a000479c <vCoRoutineSchedule+0x158>
a000468c:	e08f3003 	add	r3, pc, r3
a0004690:	e5832000 	str	r2, [r3]
a0004694:	e59f3104 	ldr	r3, [pc, #260]	; a00047a0 <vCoRoutineSchedule+0x15c>
a0004698:	e08f3003 	add	r3, pc, r3
a000469c:	e5932000 	ldr	r2, [r3]
a00046a0:	e59f10fc 	ldr	r1, [pc, #252]	; a00047a4 <vCoRoutineSchedule+0x160>
a00046a4:	e08f1001 	add	r1, pc, r1
a00046a8:	e1a03002 	mov	r3, r2
a00046ac:	e1a03103 	lsl	r3, r3, #2
a00046b0:	e0833002 	add	r3, r3, r2
a00046b4:	e1a03103 	lsl	r3, r3, #2
a00046b8:	e0813003 	add	r3, r1, r3
a00046bc:	e5933000 	ldr	r3, [r3]
a00046c0:	e3530000 	cmp	r3, #0
a00046c4:	0affffe5 	beq	a0004660 <vCoRoutineSchedule+0x1c>
a00046c8:	e59f30d8 	ldr	r3, [pc, #216]	; a00047a8 <vCoRoutineSchedule+0x164>
a00046cc:	e08f3003 	add	r3, pc, r3
a00046d0:	e5932000 	ldr	r2, [r3]
a00046d4:	e1a03002 	mov	r3, r2
a00046d8:	e1a03103 	lsl	r3, r3, #2
a00046dc:	e0833002 	add	r3, r3, r2
a00046e0:	e1a03103 	lsl	r3, r3, #2
a00046e4:	e59f20c0 	ldr	r2, [pc, #192]	; a00047ac <vCoRoutineSchedule+0x168>
a00046e8:	e08f2002 	add	r2, pc, r2
a00046ec:	e0833002 	add	r3, r3, r2
a00046f0:	e58d3004 	str	r3, [sp, #4]
a00046f4:	e59d3004 	ldr	r3, [sp, #4]
a00046f8:	e5933004 	ldr	r3, [r3, #4]
a00046fc:	e5932004 	ldr	r2, [r3, #4]
a0004700:	e59d3004 	ldr	r3, [sp, #4]
a0004704:	e5832004 	str	r2, [r3, #4]
a0004708:	e59d3004 	ldr	r3, [sp, #4]
a000470c:	e5932004 	ldr	r2, [r3, #4]
a0004710:	e59d3004 	ldr	r3, [sp, #4]
a0004714:	e2833008 	add	r3, r3, #8
a0004718:	e1520003 	cmp	r2, r3
a000471c:	1a000004 	bne	a0004734 <vCoRoutineSchedule+0xf0>
a0004720:	e59d3004 	ldr	r3, [sp, #4]
a0004724:	e5933004 	ldr	r3, [r3, #4]
a0004728:	e5932004 	ldr	r2, [r3, #4]
a000472c:	e59d3004 	ldr	r3, [sp, #4]
a0004730:	e5832004 	str	r2, [r3, #4]
a0004734:	e59d3004 	ldr	r3, [sp, #4]
a0004738:	e5933004 	ldr	r3, [r3, #4]
a000473c:	e593200c 	ldr	r2, [r3, #12]
a0004740:	e59f3068 	ldr	r3, [pc, #104]	; a00047b0 <vCoRoutineSchedule+0x16c>
a0004744:	e7943003 	ldr	r3, [r4, r3]
a0004748:	e5832000 	str	r2, [r3]
a000474c:	e59f305c 	ldr	r3, [pc, #92]	; a00047b0 <vCoRoutineSchedule+0x16c>
a0004750:	e7943003 	ldr	r3, [r4, r3]
a0004754:	e5933000 	ldr	r3, [r3]
a0004758:	e5933000 	ldr	r3, [r3]
a000475c:	e59f204c 	ldr	r2, [pc, #76]	; a00047b0 <vCoRoutineSchedule+0x16c>
a0004760:	e7942002 	ldr	r2, [r4, r2]
a0004764:	e5921000 	ldr	r1, [r2]
a0004768:	e59f2040 	ldr	r2, [pc, #64]	; a00047b0 <vCoRoutineSchedule+0x16c>
a000476c:	e7942002 	ldr	r2, [r4, r2]
a0004770:	e5922000 	ldr	r2, [r2]
a0004774:	e5922030 	ldr	r2, [r2, #48]	; 0x30
a0004778:	e1a00001 	mov	r0, r1
a000477c:	e1a01002 	mov	r1, r2
a0004780:	e12fff33 	blx	r3
a0004784:	e1a00000 	nop			; (mov r0, r0)
a0004788:	e28dd008 	add	sp, sp, #8
a000478c:	e8bd8010 	pop	{r4, pc}
a0004790:	00005050 	andeq	r5, r0, r0, asr r0
a0004794:	00005300 	andeq	r5, r0, r0, lsl #6
a0004798:	000052e8 	andeq	r5, r0, r8, ror #5
a000479c:	000052d8 	ldrdeq	r5, [r0], -r8
a00047a0:	000052cc 	andeq	r5, r0, ip, asr #5
a00047a4:	00005250 	andeq	r5, r0, r0, asr r2
a00047a8:	00005298 	muleq	r0, r8, r2
a00047ac:	0000520c 	andeq	r5, r0, ip, lsl #4
a00047b0:	0000000c 	andeq	r0, r0, ip

a00047b4 <prvInitialiseCoRoutineLists>:
a00047b4:	e52de004 	push	{lr}		; (str lr, [sp, #-4]!)
a00047b8:	e24dd00c 	sub	sp, sp, #12
a00047bc:	e3a03000 	mov	r3, #0
a00047c0:	e58d3004 	str	r3, [sp, #4]
a00047c4:	ea00000c 	b	a00047fc <prvInitialiseCoRoutineLists+0x48>
a00047c8:	e59d2004 	ldr	r2, [sp, #4]
a00047cc:	e1a03002 	mov	r3, r2
a00047d0:	e1a03103 	lsl	r3, r3, #2
a00047d4:	e0833002 	add	r3, r3, r2
a00047d8:	e1a03103 	lsl	r3, r3, #2
a00047dc:	e59f2084 	ldr	r2, [pc, #132]	; a0004868 <prvInitialiseCoRoutineLists+0xb4>
a00047e0:	e08f2002 	add	r2, pc, r2
a00047e4:	e0833002 	add	r3, r3, r2
a00047e8:	e1a00003 	mov	r0, r3
a00047ec:	eb00004d 	bl	a0004928 <vListInitialise>
a00047f0:	e59d3004 	ldr	r3, [sp, #4]
a00047f4:	e2833001 	add	r3, r3, #1
a00047f8:	e58d3004 	str	r3, [sp, #4]
a00047fc:	e59d3004 	ldr	r3, [sp, #4]
a0004800:	e3530001 	cmp	r3, #1
a0004804:	9affffef 	bls	a00047c8 <prvInitialiseCoRoutineLists+0x14>
a0004808:	e59f305c 	ldr	r3, [pc, #92]	; a000486c <prvInitialiseCoRoutineLists+0xb8>
a000480c:	e08f3003 	add	r3, pc, r3
a0004810:	e1a00003 	mov	r0, r3
a0004814:	eb000043 	bl	a0004928 <vListInitialise>
a0004818:	e59f3050 	ldr	r3, [pc, #80]	; a0004870 <prvInitialiseCoRoutineLists+0xbc>
a000481c:	e08f3003 	add	r3, pc, r3
a0004820:	e1a00003 	mov	r0, r3
a0004824:	eb00003f 	bl	a0004928 <vListInitialise>
a0004828:	e59f3044 	ldr	r3, [pc, #68]	; a0004874 <prvInitialiseCoRoutineLists+0xc0>
a000482c:	e08f3003 	add	r3, pc, r3
a0004830:	e1a00003 	mov	r0, r3
a0004834:	eb00003b 	bl	a0004928 <vListInitialise>
a0004838:	e59f3038 	ldr	r3, [pc, #56]	; a0004878 <prvInitialiseCoRoutineLists+0xc4>
a000483c:	e08f3003 	add	r3, pc, r3
a0004840:	e59f2034 	ldr	r2, [pc, #52]	; a000487c <prvInitialiseCoRoutineLists+0xc8>
a0004844:	e08f2002 	add	r2, pc, r2
a0004848:	e5832000 	str	r2, [r3]
a000484c:	e59f302c 	ldr	r3, [pc, #44]	; a0004880 <prvInitialiseCoRoutineLists+0xcc>
a0004850:	e08f3003 	add	r3, pc, r3
a0004854:	e59f2028 	ldr	r2, [pc, #40]	; a0004884 <prvInitialiseCoRoutineLists+0xd0>
a0004858:	e08f2002 	add	r2, pc, r2
a000485c:	e5832000 	str	r2, [r3]
a0004860:	e28dd00c 	add	sp, sp, #12
a0004864:	e49df004 	pop	{pc}		; (ldr pc, [sp], #4)
a0004868:	00005114 	andeq	r5, r0, r4, lsl r1
a000486c:	00005110 	andeq	r5, r0, r0, lsl r1
a0004870:	00005114 	andeq	r5, r0, r4, lsl r1
a0004874:	00005120 	andeq	r5, r0, r0, lsr #2
a0004878:	00005108 	andeq	r5, r0, r8, lsl #2
a000487c:	000050d8 	ldrdeq	r5, [r0], -r8
a0004880:	000050f8 	strdeq	r5, [r0], -r8
a0004884:	000050d8 	ldrdeq	r5, [r0], -r8

a0004888 <xCoRoutineRemoveFromEventList>:
a0004888:	e92d4010 	push	{r4, lr}
a000488c:	e24dd010 	sub	sp, sp, #16
a0004890:	e58d0004 	str	r0, [sp, #4]
a0004894:	e59f4080 	ldr	r4, [pc, #128]	; a000491c <xCoRoutineRemoveFromEventList+0x94>
a0004898:	e08f4004 	add	r4, pc, r4
a000489c:	e59d3004 	ldr	r3, [sp, #4]
a00048a0:	e593300c 	ldr	r3, [r3, #12]
a00048a4:	e593300c 	ldr	r3, [r3, #12]
a00048a8:	e58d3008 	str	r3, [sp, #8]
a00048ac:	e59d3008 	ldr	r3, [sp, #8]
a00048b0:	e2833018 	add	r3, r3, #24
a00048b4:	e1a00003 	mov	r0, r3
a00048b8:	eb00008b 	bl	a0004aec <vListRemove>
a00048bc:	e59d3008 	ldr	r3, [sp, #8]
a00048c0:	e2833018 	add	r3, r3, #24
a00048c4:	e59f2054 	ldr	r2, [pc, #84]	; a0004920 <xCoRoutineRemoveFromEventList+0x98>
a00048c8:	e08f2002 	add	r2, pc, r2
a00048cc:	e1a00002 	mov	r0, r2
a00048d0:	e1a01003 	mov	r1, r3
a00048d4:	eb000030 	bl	a000499c <vListInsertEnd>
a00048d8:	e59d3008 	ldr	r3, [sp, #8]
a00048dc:	e593202c 	ldr	r2, [r3, #44]	; 0x2c
a00048e0:	e59f303c 	ldr	r3, [pc, #60]	; a0004924 <xCoRoutineRemoveFromEventList+0x9c>
a00048e4:	e7943003 	ldr	r3, [r4, r3]
a00048e8:	e5933000 	ldr	r3, [r3]
a00048ec:	e593302c 	ldr	r3, [r3, #44]	; 0x2c
a00048f0:	e1520003 	cmp	r2, r3
a00048f4:	3a000002 	bcc	a0004904 <xCoRoutineRemoveFromEventList+0x7c>
a00048f8:	e3a03001 	mov	r3, #1
a00048fc:	e58d300c 	str	r3, [sp, #12]
a0004900:	ea000001 	b	a000490c <xCoRoutineRemoveFromEventList+0x84>
a0004904:	e3a03000 	mov	r3, #0
a0004908:	e58d300c 	str	r3, [sp, #12]
a000490c:	e59d300c 	ldr	r3, [sp, #12]
a0004910:	e1a00003 	mov	r0, r3
a0004914:	e28dd010 	add	sp, sp, #16
a0004918:	e8bd8010 	pop	{r4, pc}
a000491c:	00004e08 	andeq	r4, r0, r8, lsl #28
a0004920:	00005084 	andeq	r5, r0, r4, lsl #1
a0004924:	0000000c 	andeq	r0, r0, ip

a0004928 <vListInitialise>:
a0004928:	e24dd008 	sub	sp, sp, #8
a000492c:	e58d0004 	str	r0, [sp, #4]
a0004930:	e59d3004 	ldr	r3, [sp, #4]
a0004934:	e2832008 	add	r2, r3, #8
a0004938:	e59d3004 	ldr	r3, [sp, #4]
a000493c:	e5832004 	str	r2, [r3, #4]
a0004940:	e59d3004 	ldr	r3, [sp, #4]
a0004944:	e3e02000 	mvn	r2, #0
a0004948:	e5832008 	str	r2, [r3, #8]
a000494c:	e59d3004 	ldr	r3, [sp, #4]
a0004950:	e2832008 	add	r2, r3, #8
a0004954:	e59d3004 	ldr	r3, [sp, #4]
a0004958:	e583200c 	str	r2, [r3, #12]
a000495c:	e59d3004 	ldr	r3, [sp, #4]
a0004960:	e2832008 	add	r2, r3, #8
a0004964:	e59d3004 	ldr	r3, [sp, #4]
a0004968:	e5832010 	str	r2, [r3, #16]
a000496c:	e59d3004 	ldr	r3, [sp, #4]
a0004970:	e3a02000 	mov	r2, #0
a0004974:	e5832000 	str	r2, [r3]
a0004978:	e28dd008 	add	sp, sp, #8
a000497c:	e12fff1e 	bx	lr

a0004980 <vListInitialiseItem>:
a0004980:	e24dd008 	sub	sp, sp, #8
a0004984:	e58d0004 	str	r0, [sp, #4]
a0004988:	e59d3004 	ldr	r3, [sp, #4]
a000498c:	e3a02000 	mov	r2, #0
a0004990:	e5832010 	str	r2, [r3, #16]
a0004994:	e28dd008 	add	sp, sp, #8
a0004998:	e12fff1e 	bx	lr

a000499c <vListInsertEnd>:
a000499c:	e24dd010 	sub	sp, sp, #16
a00049a0:	e58d0004 	str	r0, [sp, #4]
a00049a4:	e58d1000 	str	r1, [sp]
a00049a8:	e59d3004 	ldr	r3, [sp, #4]
a00049ac:	e5933004 	ldr	r3, [r3, #4]
a00049b0:	e58d300c 	str	r3, [sp, #12]
a00049b4:	e59d300c 	ldr	r3, [sp, #12]
a00049b8:	e5932004 	ldr	r2, [r3, #4]
a00049bc:	e59d3000 	ldr	r3, [sp]
a00049c0:	e5832004 	str	r2, [r3, #4]
a00049c4:	e59d3004 	ldr	r3, [sp, #4]
a00049c8:	e5932004 	ldr	r2, [r3, #4]
a00049cc:	e59d3000 	ldr	r3, [sp]
a00049d0:	e5832008 	str	r2, [r3, #8]
a00049d4:	e59d300c 	ldr	r3, [sp, #12]
a00049d8:	e5933004 	ldr	r3, [r3, #4]
a00049dc:	e59d2000 	ldr	r2, [sp]
a00049e0:	e5832008 	str	r2, [r3, #8]
a00049e4:	e59d300c 	ldr	r3, [sp, #12]
a00049e8:	e59d2000 	ldr	r2, [sp]
a00049ec:	e5832004 	str	r2, [r3, #4]
a00049f0:	e59d3004 	ldr	r3, [sp, #4]
a00049f4:	e59d2000 	ldr	r2, [sp]
a00049f8:	e5832004 	str	r2, [r3, #4]
a00049fc:	e59d3000 	ldr	r3, [sp]
a0004a00:	e59d2004 	ldr	r2, [sp, #4]
a0004a04:	e5832010 	str	r2, [r3, #16]
a0004a08:	e59d3004 	ldr	r3, [sp, #4]
a0004a0c:	e5933000 	ldr	r3, [r3]
a0004a10:	e2832001 	add	r2, r3, #1
a0004a14:	e59d3004 	ldr	r3, [sp, #4]
a0004a18:	e5832000 	str	r2, [r3]
a0004a1c:	e28dd010 	add	sp, sp, #16
a0004a20:	e12fff1e 	bx	lr

a0004a24 <vListInsert>:
a0004a24:	e24dd010 	sub	sp, sp, #16
a0004a28:	e58d0004 	str	r0, [sp, #4]
a0004a2c:	e58d1000 	str	r1, [sp]
a0004a30:	e59d3000 	ldr	r3, [sp]
a0004a34:	e5933000 	ldr	r3, [r3]
a0004a38:	e58d3008 	str	r3, [sp, #8]
a0004a3c:	e59d3008 	ldr	r3, [sp, #8]
a0004a40:	e3730001 	cmn	r3, #1
a0004a44:	1a000003 	bne	a0004a58 <vListInsert+0x34>
a0004a48:	e59d3004 	ldr	r3, [sp, #4]
a0004a4c:	e5933010 	ldr	r3, [r3, #16]
a0004a50:	e58d300c 	str	r3, [sp, #12]
a0004a54:	ea00000c 	b	a0004a8c <vListInsert+0x68>
a0004a58:	e59d3004 	ldr	r3, [sp, #4]
a0004a5c:	e2833008 	add	r3, r3, #8
a0004a60:	e58d300c 	str	r3, [sp, #12]
a0004a64:	ea000002 	b	a0004a74 <vListInsert+0x50>
a0004a68:	e59d300c 	ldr	r3, [sp, #12]
a0004a6c:	e5933004 	ldr	r3, [r3, #4]
a0004a70:	e58d300c 	str	r3, [sp, #12]
a0004a74:	e59d300c 	ldr	r3, [sp, #12]
a0004a78:	e5933004 	ldr	r3, [r3, #4]
a0004a7c:	e5932000 	ldr	r2, [r3]
a0004a80:	e59d3008 	ldr	r3, [sp, #8]
a0004a84:	e1520003 	cmp	r2, r3
a0004a88:	9afffff6 	bls	a0004a68 <vListInsert+0x44>
a0004a8c:	e59d300c 	ldr	r3, [sp, #12]
a0004a90:	e5932004 	ldr	r2, [r3, #4]
a0004a94:	e59d3000 	ldr	r3, [sp]
a0004a98:	e5832004 	str	r2, [r3, #4]
a0004a9c:	e59d3000 	ldr	r3, [sp]
a0004aa0:	e5933004 	ldr	r3, [r3, #4]
a0004aa4:	e59d2000 	ldr	r2, [sp]
a0004aa8:	e5832008 	str	r2, [r3, #8]
a0004aac:	e59d3000 	ldr	r3, [sp]
a0004ab0:	e59d200c 	ldr	r2, [sp, #12]
a0004ab4:	e5832008 	str	r2, [r3, #8]
a0004ab8:	e59d300c 	ldr	r3, [sp, #12]
a0004abc:	e59d2000 	ldr	r2, [sp]
a0004ac0:	e5832004 	str	r2, [r3, #4]
a0004ac4:	e59d3000 	ldr	r3, [sp]
a0004ac8:	e59d2004 	ldr	r2, [sp, #4]
a0004acc:	e5832010 	str	r2, [r3, #16]
a0004ad0:	e59d3004 	ldr	r3, [sp, #4]
a0004ad4:	e5933000 	ldr	r3, [r3]
a0004ad8:	e2832001 	add	r2, r3, #1
a0004adc:	e59d3004 	ldr	r3, [sp, #4]
a0004ae0:	e5832000 	str	r2, [r3]
a0004ae4:	e28dd010 	add	sp, sp, #16
a0004ae8:	e12fff1e 	bx	lr

a0004aec <vListRemove>:
a0004aec:	e24dd010 	sub	sp, sp, #16
a0004af0:	e58d0004 	str	r0, [sp, #4]
a0004af4:	e59d3004 	ldr	r3, [sp, #4]
a0004af8:	e5933004 	ldr	r3, [r3, #4]
a0004afc:	e59d2004 	ldr	r2, [sp, #4]
a0004b00:	e5922008 	ldr	r2, [r2, #8]
a0004b04:	e5832008 	str	r2, [r3, #8]
a0004b08:	e59d3004 	ldr	r3, [sp, #4]
a0004b0c:	e5933008 	ldr	r3, [r3, #8]
a0004b10:	e59d2004 	ldr	r2, [sp, #4]
a0004b14:	e5922004 	ldr	r2, [r2, #4]
a0004b18:	e5832004 	str	r2, [r3, #4]
a0004b1c:	e59d3004 	ldr	r3, [sp, #4]
a0004b20:	e5933010 	ldr	r3, [r3, #16]
a0004b24:	e58d300c 	str	r3, [sp, #12]
a0004b28:	e59d300c 	ldr	r3, [sp, #12]
a0004b2c:	e5932004 	ldr	r2, [r3, #4]
a0004b30:	e59d3004 	ldr	r3, [sp, #4]
a0004b34:	e1520003 	cmp	r2, r3
a0004b38:	1a000003 	bne	a0004b4c <vListRemove+0x60>
a0004b3c:	e59d3004 	ldr	r3, [sp, #4]
a0004b40:	e5932008 	ldr	r2, [r3, #8]
a0004b44:	e59d300c 	ldr	r3, [sp, #12]
a0004b48:	e5832004 	str	r2, [r3, #4]
a0004b4c:	e59d3004 	ldr	r3, [sp, #4]
a0004b50:	e3a02000 	mov	r2, #0
a0004b54:	e5832010 	str	r2, [r3, #16]
a0004b58:	e59d300c 	ldr	r3, [sp, #12]
a0004b5c:	e5933000 	ldr	r3, [r3]
a0004b60:	e2432001 	sub	r2, r3, #1
a0004b64:	e59d300c 	ldr	r3, [sp, #12]
a0004b68:	e5832000 	str	r2, [r3]
a0004b6c:	e28dd010 	add	sp, sp, #16
a0004b70:	e12fff1e 	bx	lr

a0004b74 <xQueueCreate>:
a0004b74:	e52de004 	push	{lr}		; (str lr, [sp, #-4]!)
a0004b78:	e24dd01c 	sub	sp, sp, #28
a0004b7c:	e58d0004 	str	r0, [sp, #4]
a0004b80:	e58d1000 	str	r1, [sp]
a0004b84:	e3a03000 	mov	r3, #0
a0004b88:	e58d3014 	str	r3, [sp, #20]
a0004b8c:	e59d3004 	ldr	r3, [sp, #4]
a0004b90:	e3530000 	cmp	r3, #0
a0004b94:	0a000044 	beq	a0004cac <xQueueCreate+0x138>
a0004b98:	e3a0004c 	mov	r0, #76	; 0x4c
a0004b9c:	eb0011ed 	bl	a0009358 <pvPortMalloc>
a0004ba0:	e58d0010 	str	r0, [sp, #16]
a0004ba4:	e59d3010 	ldr	r3, [sp, #16]
a0004ba8:	e3530000 	cmp	r3, #0
a0004bac:	0a00003e 	beq	a0004cac <xQueueCreate+0x138>
a0004bb0:	e59d3004 	ldr	r3, [sp, #4]
a0004bb4:	e59d2000 	ldr	r2, [sp]
a0004bb8:	e0030392 	mul	r3, r2, r3
a0004bbc:	e2833001 	add	r3, r3, #1
a0004bc0:	e58d300c 	str	r3, [sp, #12]
a0004bc4:	e59d000c 	ldr	r0, [sp, #12]
a0004bc8:	eb0011e2 	bl	a0009358 <pvPortMalloc>
a0004bcc:	e1a02000 	mov	r2, r0
a0004bd0:	e59d3010 	ldr	r3, [sp, #16]
a0004bd4:	e5832000 	str	r2, [r3]
a0004bd8:	e59d3010 	ldr	r3, [sp, #16]
a0004bdc:	e5933000 	ldr	r3, [r3]
a0004be0:	e3530000 	cmp	r3, #0
a0004be4:	0a00002e 	beq	a0004ca4 <xQueueCreate+0x130>
a0004be8:	e59d3010 	ldr	r3, [sp, #16]
a0004bec:	e5932000 	ldr	r2, [r3]
a0004bf0:	e59d3004 	ldr	r3, [sp, #4]
a0004bf4:	e59d1000 	ldr	r1, [sp]
a0004bf8:	e0030391 	mul	r3, r1, r3
a0004bfc:	e0822003 	add	r2, r2, r3
a0004c00:	e59d3010 	ldr	r3, [sp, #16]
a0004c04:	e5832004 	str	r2, [r3, #4]
a0004c08:	e59d3010 	ldr	r3, [sp, #16]
a0004c0c:	e3a02000 	mov	r2, #0
a0004c10:	e5832038 	str	r2, [r3, #56]	; 0x38
a0004c14:	e59d3010 	ldr	r3, [sp, #16]
a0004c18:	e5932000 	ldr	r2, [r3]
a0004c1c:	e59d3010 	ldr	r3, [sp, #16]
a0004c20:	e5832008 	str	r2, [r3, #8]
a0004c24:	e59d3010 	ldr	r3, [sp, #16]
a0004c28:	e5932000 	ldr	r2, [r3]
a0004c2c:	e59d3004 	ldr	r3, [sp, #4]
a0004c30:	e2433001 	sub	r3, r3, #1
a0004c34:	e59d1000 	ldr	r1, [sp]
a0004c38:	e0030391 	mul	r3, r1, r3
a0004c3c:	e0822003 	add	r2, r2, r3
a0004c40:	e59d3010 	ldr	r3, [sp, #16]
a0004c44:	e583200c 	str	r2, [r3, #12]
a0004c48:	e59d3010 	ldr	r3, [sp, #16]
a0004c4c:	e59d2004 	ldr	r2, [sp, #4]
a0004c50:	e583203c 	str	r2, [r3, #60]	; 0x3c
a0004c54:	e59d3010 	ldr	r3, [sp, #16]
a0004c58:	e59d2000 	ldr	r2, [sp]
a0004c5c:	e5832040 	str	r2, [r3, #64]	; 0x40
a0004c60:	e59d3010 	ldr	r3, [sp, #16]
a0004c64:	e3e02000 	mvn	r2, #0
a0004c68:	e5832044 	str	r2, [r3, #68]	; 0x44
a0004c6c:	e59d3010 	ldr	r3, [sp, #16]
a0004c70:	e3e02000 	mvn	r2, #0
a0004c74:	e5832048 	str	r2, [r3, #72]	; 0x48
a0004c78:	e59d3010 	ldr	r3, [sp, #16]
a0004c7c:	e2833010 	add	r3, r3, #16
a0004c80:	e1a00003 	mov	r0, r3
a0004c84:	ebffff27 	bl	a0004928 <vListInitialise>
a0004c88:	e59d3010 	ldr	r3, [sp, #16]
a0004c8c:	e2833024 	add	r3, r3, #36	; 0x24
a0004c90:	e1a00003 	mov	r0, r3
a0004c94:	ebffff23 	bl	a0004928 <vListInitialise>
a0004c98:	e59d3010 	ldr	r3, [sp, #16]
a0004c9c:	e58d3014 	str	r3, [sp, #20]
a0004ca0:	ea000001 	b	a0004cac <xQueueCreate+0x138>
a0004ca4:	e59d0010 	ldr	r0, [sp, #16]
a0004ca8:	eb0011e8 	bl	a0009450 <vPortFree>
a0004cac:	e59d3014 	ldr	r3, [sp, #20]
a0004cb0:	e1a00003 	mov	r0, r3
a0004cb4:	e28dd01c 	add	sp, sp, #28
a0004cb8:	e49df004 	pop	{pc}		; (ldr pc, [sp], #4)

a0004cbc <xQueueCreateMutex>:
a0004cbc:	e52de004 	push	{lr}		; (str lr, [sp, #-4]!)
a0004cc0:	e24dd00c 	sub	sp, sp, #12
a0004cc4:	e3a0004c 	mov	r0, #76	; 0x4c
a0004cc8:	eb0011a2 	bl	a0009358 <pvPortMalloc>
a0004ccc:	e58d0004 	str	r0, [sp, #4]
a0004cd0:	e59d3004 	ldr	r3, [sp, #4]
a0004cd4:	e3530000 	cmp	r3, #0
a0004cd8:	0a000027 	beq	a0004d7c <xQueueCreateMutex+0xc0>
a0004cdc:	e59d3004 	ldr	r3, [sp, #4]
a0004ce0:	e3a02000 	mov	r2, #0
a0004ce4:	e5832004 	str	r2, [r3, #4]
a0004ce8:	e59d3004 	ldr	r3, [sp, #4]
a0004cec:	e3a02000 	mov	r2, #0
a0004cf0:	e5832000 	str	r2, [r3]
a0004cf4:	e59d3004 	ldr	r3, [sp, #4]
a0004cf8:	e3a02000 	mov	r2, #0
a0004cfc:	e5832008 	str	r2, [r3, #8]
a0004d00:	e59d3004 	ldr	r3, [sp, #4]
a0004d04:	e3a02000 	mov	r2, #0
a0004d08:	e583200c 	str	r2, [r3, #12]
a0004d0c:	e59d3004 	ldr	r3, [sp, #4]
a0004d10:	e3a02000 	mov	r2, #0
a0004d14:	e5832038 	str	r2, [r3, #56]	; 0x38
a0004d18:	e59d3004 	ldr	r3, [sp, #4]
a0004d1c:	e3a02001 	mov	r2, #1
a0004d20:	e583203c 	str	r2, [r3, #60]	; 0x3c
a0004d24:	e59d3004 	ldr	r3, [sp, #4]
a0004d28:	e3a02000 	mov	r2, #0
a0004d2c:	e5832040 	str	r2, [r3, #64]	; 0x40
a0004d30:	e59d3004 	ldr	r3, [sp, #4]
a0004d34:	e3e02000 	mvn	r2, #0
a0004d38:	e5832044 	str	r2, [r3, #68]	; 0x44
a0004d3c:	e59d3004 	ldr	r3, [sp, #4]
a0004d40:	e3e02000 	mvn	r2, #0
a0004d44:	e5832048 	str	r2, [r3, #72]	; 0x48
a0004d48:	e59d3004 	ldr	r3, [sp, #4]
a0004d4c:	e2833010 	add	r3, r3, #16
a0004d50:	e1a00003 	mov	r0, r3
a0004d54:	ebfffef3 	bl	a0004928 <vListInitialise>
a0004d58:	e59d3004 	ldr	r3, [sp, #4]
a0004d5c:	e2833024 	add	r3, r3, #36	; 0x24
a0004d60:	e1a00003 	mov	r0, r3
a0004d64:	ebfffeef 	bl	a0004928 <vListInitialise>
a0004d68:	e59d0004 	ldr	r0, [sp, #4]
a0004d6c:	e3a01000 	mov	r1, #0
a0004d70:	e3a02000 	mov	r2, #0
a0004d74:	e3a03000 	mov	r3, #0
a0004d78:	eb000059 	bl	a0004ee4 <xQueueGenericSend>
a0004d7c:	e59d3004 	ldr	r3, [sp, #4]
a0004d80:	e1a00003 	mov	r0, r3
a0004d84:	e28dd00c 	add	sp, sp, #12
a0004d88:	e49df004 	pop	{pc}		; (ldr pc, [sp], #4)

a0004d8c <xQueueGiveMutexRecursive>:
a0004d8c:	e92d4010 	push	{r4, lr}
a0004d90:	e24dd010 	sub	sp, sp, #16
a0004d94:	e58d0004 	str	r0, [sp, #4]
a0004d98:	e59d3004 	ldr	r3, [sp, #4]
a0004d9c:	e5934004 	ldr	r4, [r3, #4]
a0004da0:	eb000b20 	bl	a0007a28 <xTaskGetCurrentTaskHandle>
a0004da4:	e1a03000 	mov	r3, r0
a0004da8:	e1540003 	cmp	r4, r3
a0004dac:	1a000010 	bne	a0004df4 <xQueueGiveMutexRecursive+0x68>
a0004db0:	e59d3004 	ldr	r3, [sp, #4]
a0004db4:	e593300c 	ldr	r3, [r3, #12]
a0004db8:	e2432001 	sub	r2, r3, #1
a0004dbc:	e59d3004 	ldr	r3, [sp, #4]
a0004dc0:	e583200c 	str	r2, [r3, #12]
a0004dc4:	e59d3004 	ldr	r3, [sp, #4]
a0004dc8:	e593300c 	ldr	r3, [r3, #12]
a0004dcc:	e3530000 	cmp	r3, #0
a0004dd0:	1a000004 	bne	a0004de8 <xQueueGiveMutexRecursive+0x5c>
a0004dd4:	e59d0004 	ldr	r0, [sp, #4]
a0004dd8:	e3a01000 	mov	r1, #0
a0004ddc:	e3a02000 	mov	r2, #0
a0004de0:	e3a03000 	mov	r3, #0
a0004de4:	eb00003e 	bl	a0004ee4 <xQueueGenericSend>
a0004de8:	e3a03001 	mov	r3, #1
a0004dec:	e58d300c 	str	r3, [sp, #12]
a0004df0:	ea000001 	b	a0004dfc <xQueueGiveMutexRecursive+0x70>
a0004df4:	e3a03000 	mov	r3, #0
a0004df8:	e58d300c 	str	r3, [sp, #12]
a0004dfc:	e59d300c 	ldr	r3, [sp, #12]
a0004e00:	e1a00003 	mov	r0, r3
a0004e04:	e28dd010 	add	sp, sp, #16
a0004e08:	e8bd8010 	pop	{r4, pc}

a0004e0c <xQueueTakeMutexRecursive>:
a0004e0c:	e92d4010 	push	{r4, lr}
a0004e10:	e24dd010 	sub	sp, sp, #16
a0004e14:	e58d0004 	str	r0, [sp, #4]
a0004e18:	e58d1000 	str	r1, [sp]
a0004e1c:	e59d3004 	ldr	r3, [sp, #4]
a0004e20:	e5934004 	ldr	r4, [r3, #4]
a0004e24:	eb000aff 	bl	a0007a28 <xTaskGetCurrentTaskHandle>
a0004e28:	e1a03000 	mov	r3, r0
a0004e2c:	e1540003 	cmp	r4, r3
a0004e30:	1a000007 	bne	a0004e54 <xQueueTakeMutexRecursive+0x48>
a0004e34:	e59d3004 	ldr	r3, [sp, #4]
a0004e38:	e593300c 	ldr	r3, [r3, #12]
a0004e3c:	e2832001 	add	r2, r3, #1
a0004e40:	e59d3004 	ldr	r3, [sp, #4]
a0004e44:	e583200c 	str	r2, [r3, #12]
a0004e48:	e3a03001 	mov	r3, #1
a0004e4c:	e58d300c 	str	r3, [sp, #12]
a0004e50:	ea00000d 	b	a0004e8c <xQueueTakeMutexRecursive+0x80>
a0004e54:	e59d0004 	ldr	r0, [sp, #4]
a0004e58:	e3a01000 	mov	r1, #0
a0004e5c:	e59d2000 	ldr	r2, [sp]
a0004e60:	e3a03000 	mov	r3, #0
a0004e64:	eb0000d3 	bl	a00051b8 <xQueueGenericReceive>
a0004e68:	e58d000c 	str	r0, [sp, #12]
a0004e6c:	e59d300c 	ldr	r3, [sp, #12]
a0004e70:	e3530001 	cmp	r3, #1
a0004e74:	1a000004 	bne	a0004e8c <xQueueTakeMutexRecursive+0x80>
a0004e78:	e59d3004 	ldr	r3, [sp, #4]
a0004e7c:	e593300c 	ldr	r3, [r3, #12]
a0004e80:	e2832001 	add	r2, r3, #1
a0004e84:	e59d3004 	ldr	r3, [sp, #4]
a0004e88:	e583200c 	str	r2, [r3, #12]
a0004e8c:	e59d300c 	ldr	r3, [sp, #12]
a0004e90:	e1a00003 	mov	r0, r3
a0004e94:	e28dd010 	add	sp, sp, #16
a0004e98:	e8bd8010 	pop	{r4, pc}

a0004e9c <xQueueCreateCountingSemaphore>:
a0004e9c:	e52de004 	push	{lr}		; (str lr, [sp, #-4]!)
a0004ea0:	e24dd014 	sub	sp, sp, #20
a0004ea4:	e58d0004 	str	r0, [sp, #4]
a0004ea8:	e58d1000 	str	r1, [sp]
a0004eac:	e59d0004 	ldr	r0, [sp, #4]
a0004eb0:	e3a01000 	mov	r1, #0
a0004eb4:	ebffff2e 	bl	a0004b74 <xQueueCreate>
a0004eb8:	e58d000c 	str	r0, [sp, #12]
a0004ebc:	e59d300c 	ldr	r3, [sp, #12]
a0004ec0:	e3530000 	cmp	r3, #0
a0004ec4:	0a000002 	beq	a0004ed4 <xQueueCreateCountingSemaphore+0x38>
a0004ec8:	e59d300c 	ldr	r3, [sp, #12]
a0004ecc:	e59d2000 	ldr	r2, [sp]
a0004ed0:	e5832038 	str	r2, [r3, #56]	; 0x38
a0004ed4:	e59d300c 	ldr	r3, [sp, #12]
a0004ed8:	e1a00003 	mov	r0, r3
a0004edc:	e28dd014 	add	sp, sp, #20
a0004ee0:	e49df004 	pop	{pc}		; (ldr pc, [sp], #4)

a0004ee4 <xQueueGenericSend>:
a0004ee4:	e52de004 	push	{lr}		; (str lr, [sp, #-4]!)
a0004ee8:	e24dd024 	sub	sp, sp, #36	; 0x24
a0004eec:	e58d000c 	str	r0, [sp, #12]
a0004ef0:	e58d1008 	str	r1, [sp, #8]
a0004ef4:	e58d2004 	str	r2, [sp, #4]
a0004ef8:	e58d3000 	str	r3, [sp]
a0004efc:	e3a03000 	mov	r3, #0
a0004f00:	e58d301c 	str	r3, [sp, #28]
a0004f04:	eb000b7d 	bl	a0007d00 <vTaskEnterCritical>
a0004f08:	e59d300c 	ldr	r3, [sp, #12]
a0004f0c:	e5932038 	ldr	r2, [r3, #56]	; 0x38
a0004f10:	e59d300c 	ldr	r3, [sp, #12]
a0004f14:	e593303c 	ldr	r3, [r3, #60]	; 0x3c
a0004f18:	e1520003 	cmp	r2, r3
a0004f1c:	2a00001c 	bcs	a0004f94 <xQueueGenericSend+0xb0>
a0004f20:	e59d000c 	ldr	r0, [sp, #12]
a0004f24:	e59d1008 	ldr	r1, [sp, #8]
a0004f28:	e59d2000 	ldr	r2, [sp]
a0004f2c:	eb0001ab 	bl	a00055e0 <prvCopyDataToQueue>
a0004f30:	e59d300c 	ldr	r3, [sp, #12]
a0004f34:	e5933024 	ldr	r3, [r3, #36]	; 0x24
a0004f38:	e3530000 	cmp	r3, #0
a0004f3c:	0a000011 	beq	a0004f88 <xQueueGenericSend+0xa4>
a0004f40:	e59d300c 	ldr	r3, [sp, #12]
a0004f44:	e2833024 	add	r3, r3, #36	; 0x24
a0004f48:	e1a00003 	mov	r0, r3
a0004f4c:	eb0008ca 	bl	a000727c <xTaskRemoveFromEventList>
a0004f50:	e1a03000 	mov	r3, r0
a0004f54:	e3530001 	cmp	r3, #1
a0004f58:	1a00000a 	bne	a0004f88 <xQueueGenericSend+0xa4>
a0004f5c:	e3a03c12 	mov	r3, #4608	; 0x1200
a0004f60:	e3453004 	movt	r3, #20484	; 0x5004
a0004f64:	e5933000 	ldr	r3, [r3]
a0004f68:	e2033001 	and	r3, r3, #1
a0004f6c:	e3530000 	cmp	r3, #0
a0004f70:	1a000004 	bne	a0004f88 <xQueueGenericSend+0xa4>
a0004f74:	e3a03c1f 	mov	r3, #7936	; 0x1f00
a0004f78:	e3453004 	movt	r3, #20484	; 0x5004
a0004f7c:	e3a02001 	mov	r2, #1
a0004f80:	e3402001 	movt	r2, #1
a0004f84:	e5832000 	str	r2, [r3]
a0004f88:	eb000b6f 	bl	a0007d4c <vTaskExitCritical>
a0004f8c:	e3a03001 	mov	r3, #1
a0004f90:	ea00004e 	b	a00050d0 <xQueueGenericSend+0x1ec>
a0004f94:	e59d3004 	ldr	r3, [sp, #4]
a0004f98:	e3530000 	cmp	r3, #0
a0004f9c:	1a000002 	bne	a0004fac <xQueueGenericSend+0xc8>
a0004fa0:	eb000b69 	bl	a0007d4c <vTaskExitCritical>
a0004fa4:	e3a03000 	mov	r3, #0
a0004fa8:	ea000048 	b	a00050d0 <xQueueGenericSend+0x1ec>
a0004fac:	e59d301c 	ldr	r3, [sp, #28]
a0004fb0:	e3530000 	cmp	r3, #0
a0004fb4:	1a000004 	bne	a0004fcc <xQueueGenericSend+0xe8>
a0004fb8:	e28d3014 	add	r3, sp, #20
a0004fbc:	e1a00003 	mov	r0, r3
a0004fc0:	eb0008fd 	bl	a00073bc <vTaskSetTimeOutState>
a0004fc4:	e3a03001 	mov	r3, #1
a0004fc8:	e58d301c 	str	r3, [sp, #28]
a0004fcc:	eb000b5e 	bl	a0007d4c <vTaskExitCritical>
a0004fd0:	eb0005bd 	bl	a00066cc <vTaskSuspendAll>
a0004fd4:	eb000b49 	bl	a0007d00 <vTaskEnterCritical>
a0004fd8:	e59d300c 	ldr	r3, [sp, #12]
a0004fdc:	e5933044 	ldr	r3, [r3, #68]	; 0x44
a0004fe0:	e3730001 	cmn	r3, #1
a0004fe4:	1a000002 	bne	a0004ff4 <xQueueGenericSend+0x110>
a0004fe8:	e59d300c 	ldr	r3, [sp, #12]
a0004fec:	e3a02000 	mov	r2, #0
a0004ff0:	e5832044 	str	r2, [r3, #68]	; 0x44
a0004ff4:	e59d300c 	ldr	r3, [sp, #12]
a0004ff8:	e5933048 	ldr	r3, [r3, #72]	; 0x48
a0004ffc:	e3730001 	cmn	r3, #1
a0005000:	1a000002 	bne	a0005010 <xQueueGenericSend+0x12c>
a0005004:	e59d300c 	ldr	r3, [sp, #12]
a0005008:	e3a02000 	mov	r2, #0
a000500c:	e5832048 	str	r2, [r3, #72]	; 0x48
a0005010:	eb000b4d 	bl	a0007d4c <vTaskExitCritical>
a0005014:	e28d2014 	add	r2, sp, #20
a0005018:	e28d3004 	add	r3, sp, #4
a000501c:	e1a00002 	mov	r0, r2
a0005020:	e1a01003 	mov	r1, r3
a0005024:	eb0008f4 	bl	a00073fc <xTaskCheckForTimeOut>
a0005028:	e1a03000 	mov	r3, r0
a000502c:	e3530000 	cmp	r3, #0
a0005030:	1a000020 	bne	a00050b8 <xQueueGenericSend+0x1d4>
a0005034:	e59d000c 	ldr	r0, [sp, #12]
a0005038:	eb00023e 	bl	a0005938 <prvIsQueueFull>
a000503c:	e1a03000 	mov	r3, r0
a0005040:	e3530000 	cmp	r3, #0
a0005044:	0a000017 	beq	a00050a8 <xQueueGenericSend+0x1c4>
a0005048:	e59d300c 	ldr	r3, [sp, #12]
a000504c:	e2832010 	add	r2, r3, #16
a0005050:	e59d3004 	ldr	r3, [sp, #4]
a0005054:	e1a00002 	mov	r0, r2
a0005058:	e1a01003 	mov	r1, r3
a000505c:	eb000838 	bl	a0007144 <vTaskPlaceOnEventList>
a0005060:	e59d000c 	ldr	r0, [sp, #12]
a0005064:	eb0001d7 	bl	a00057c8 <prvUnlockQueue>
a0005068:	eb0005a1 	bl	a00066f4 <xTaskResumeAll>
a000506c:	e1a03000 	mov	r3, r0
a0005070:	e3530000 	cmp	r3, #0
a0005074:	1a000014 	bne	a00050cc <xQueueGenericSend+0x1e8>
a0005078:	e3a03c12 	mov	r3, #4608	; 0x1200
a000507c:	e3453004 	movt	r3, #20484	; 0x5004
a0005080:	e5933000 	ldr	r3, [r3]
a0005084:	e2033001 	and	r3, r3, #1
a0005088:	e3530000 	cmp	r3, #0
a000508c:	1a00000e 	bne	a00050cc <xQueueGenericSend+0x1e8>
a0005090:	e3a03c1f 	mov	r3, #7936	; 0x1f00
a0005094:	e3453004 	movt	r3, #20484	; 0x5004
a0005098:	e3a02001 	mov	r2, #1
a000509c:	e3402001 	movt	r2, #1
a00050a0:	e5832000 	str	r2, [r3]
a00050a4:	ea000008 	b	a00050cc <xQueueGenericSend+0x1e8>
a00050a8:	e59d000c 	ldr	r0, [sp, #12]
a00050ac:	eb0001c5 	bl	a00057c8 <prvUnlockQueue>
a00050b0:	eb00058f 	bl	a00066f4 <xTaskResumeAll>
a00050b4:	eaffff92 	b	a0004f04 <xQueueGenericSend+0x20>
a00050b8:	e59d000c 	ldr	r0, [sp, #12]
a00050bc:	eb0001c1 	bl	a00057c8 <prvUnlockQueue>
a00050c0:	eb00058b 	bl	a00066f4 <xTaskResumeAll>
a00050c4:	e3a03000 	mov	r3, #0
a00050c8:	ea000000 	b	a00050d0 <xQueueGenericSend+0x1ec>
a00050cc:	eaffff8c 	b	a0004f04 <xQueueGenericSend+0x20>
a00050d0:	e1a00003 	mov	r0, r3
a00050d4:	e28dd024 	add	sp, sp, #36	; 0x24
a00050d8:	e49df004 	pop	{pc}		; (ldr pc, [sp], #4)

a00050dc <xQueueGenericSendFromISR>:
a00050dc:	e52de004 	push	{lr}		; (str lr, [sp, #-4]!)
a00050e0:	e24dd01c 	sub	sp, sp, #28
a00050e4:	e58d000c 	str	r0, [sp, #12]
a00050e8:	e58d1008 	str	r1, [sp, #8]
a00050ec:	e58d2004 	str	r2, [sp, #4]
a00050f0:	e58d3000 	str	r3, [sp]
a00050f4:	eb001013 	bl	a0009148 <xPortSetInterruptMask>
a00050f8:	e1a03000 	mov	r3, r0
a00050fc:	e58d3010 	str	r3, [sp, #16]
a0005100:	e59d300c 	ldr	r3, [sp, #12]
a0005104:	e5932038 	ldr	r2, [r3, #56]	; 0x38
a0005108:	e59d300c 	ldr	r3, [sp, #12]
a000510c:	e593303c 	ldr	r3, [r3, #60]	; 0x3c
a0005110:	e1520003 	cmp	r2, r3
a0005114:	2a00001e 	bcs	a0005194 <xQueueGenericSendFromISR+0xb8>
a0005118:	e59d000c 	ldr	r0, [sp, #12]
a000511c:	e59d1008 	ldr	r1, [sp, #8]
a0005120:	e59d2000 	ldr	r2, [sp]
a0005124:	eb00012d 	bl	a00055e0 <prvCopyDataToQueue>
a0005128:	e59d300c 	ldr	r3, [sp, #12]
a000512c:	e5933048 	ldr	r3, [r3, #72]	; 0x48
a0005130:	e3730001 	cmn	r3, #1
a0005134:	1a00000e 	bne	a0005174 <xQueueGenericSendFromISR+0x98>
a0005138:	e59d300c 	ldr	r3, [sp, #12]
a000513c:	e5933024 	ldr	r3, [r3, #36]	; 0x24
a0005140:	e3530000 	cmp	r3, #0
a0005144:	0a00000f 	beq	a0005188 <xQueueGenericSendFromISR+0xac>
a0005148:	e59d300c 	ldr	r3, [sp, #12]
a000514c:	e2833024 	add	r3, r3, #36	; 0x24
a0005150:	e1a00003 	mov	r0, r3
a0005154:	eb000848 	bl	a000727c <xTaskRemoveFromEventList>
a0005158:	e1a03000 	mov	r3, r0
a000515c:	e3530000 	cmp	r3, #0
a0005160:	0a000008 	beq	a0005188 <xQueueGenericSendFromISR+0xac>
a0005164:	e59d3004 	ldr	r3, [sp, #4]
a0005168:	e3a02001 	mov	r2, #1
a000516c:	e5832000 	str	r2, [r3]
a0005170:	ea000004 	b	a0005188 <xQueueGenericSendFromISR+0xac>
a0005174:	e59d300c 	ldr	r3, [sp, #12]
a0005178:	e5933048 	ldr	r3, [r3, #72]	; 0x48
a000517c:	e2832001 	add	r2, r3, #1
a0005180:	e59d300c 	ldr	r3, [sp, #12]
a0005184:	e5832048 	str	r2, [r3, #72]	; 0x48
a0005188:	e3a03001 	mov	r3, #1
a000518c:	e58d3014 	str	r3, [sp, #20]
a0005190:	ea000001 	b	a000519c <xQueueGenericSendFromISR+0xc0>
a0005194:	e3a03000 	mov	r3, #0
a0005198:	e58d3014 	str	r3, [sp, #20]
a000519c:	e59d3010 	ldr	r3, [sp, #16]
a00051a0:	e1a00003 	mov	r0, r3
a00051a4:	eb000ff4 	bl	a000917c <vPortClearInterruptMask>
a00051a8:	e59d3014 	ldr	r3, [sp, #20]
a00051ac:	e1a00003 	mov	r0, r3
a00051b0:	e28dd01c 	add	sp, sp, #28
a00051b4:	e49df004 	pop	{pc}		; (ldr pc, [sp], #4)

a00051b8 <xQueueGenericReceive>:
a00051b8:	e52de004 	push	{lr}		; (str lr, [sp, #-4]!)
a00051bc:	e24dd024 	sub	sp, sp, #36	; 0x24
a00051c0:	e58d000c 	str	r0, [sp, #12]
a00051c4:	e58d1008 	str	r1, [sp, #8]
a00051c8:	e58d2004 	str	r2, [sp, #4]
a00051cc:	e58d3000 	str	r3, [sp]
a00051d0:	e3a03000 	mov	r3, #0
a00051d4:	e58d301c 	str	r3, [sp, #28]
a00051d8:	eb000ac8 	bl	a0007d00 <vTaskEnterCritical>
a00051dc:	e59d300c 	ldr	r3, [sp, #12]
a00051e0:	e5933038 	ldr	r3, [r3, #56]	; 0x38
a00051e4:	e3530000 	cmp	r3, #0
a00051e8:	0a000048 	beq	a0005310 <xQueueGenericReceive+0x158>
a00051ec:	e59d300c 	ldr	r3, [sp, #12]
a00051f0:	e593300c 	ldr	r3, [r3, #12]
a00051f4:	e58d3018 	str	r3, [sp, #24]
a00051f8:	e59d000c 	ldr	r0, [sp, #12]
a00051fc:	e59d1008 	ldr	r1, [sp, #8]
a0005200:	eb00014d 	bl	a000573c <prvCopyDataFromQueue>
a0005204:	e59d3000 	ldr	r3, [sp]
a0005208:	e3530000 	cmp	r3, #0
a000520c:	1a000023 	bne	a00052a0 <xQueueGenericReceive+0xe8>
a0005210:	e59d300c 	ldr	r3, [sp, #12]
a0005214:	e5933038 	ldr	r3, [r3, #56]	; 0x38
a0005218:	e2432001 	sub	r2, r3, #1
a000521c:	e59d300c 	ldr	r3, [sp, #12]
a0005220:	e5832038 	str	r2, [r3, #56]	; 0x38
a0005224:	e59d300c 	ldr	r3, [sp, #12]
a0005228:	e5933000 	ldr	r3, [r3]
a000522c:	e3530000 	cmp	r3, #0
a0005230:	1a000003 	bne	a0005244 <xQueueGenericReceive+0x8c>
a0005234:	eb0009fb 	bl	a0007a28 <xTaskGetCurrentTaskHandle>
a0005238:	e1a02000 	mov	r2, r0
a000523c:	e59d300c 	ldr	r3, [sp, #12]
a0005240:	e5832004 	str	r2, [r3, #4]
a0005244:	e59d300c 	ldr	r3, [sp, #12]
a0005248:	e5933010 	ldr	r3, [r3, #16]
a000524c:	e3530000 	cmp	r3, #0
a0005250:	0a00002b 	beq	a0005304 <xQueueGenericReceive+0x14c>
a0005254:	e59d300c 	ldr	r3, [sp, #12]
a0005258:	e2833010 	add	r3, r3, #16
a000525c:	e1a00003 	mov	r0, r3
a0005260:	eb000805 	bl	a000727c <xTaskRemoveFromEventList>
a0005264:	e1a03000 	mov	r3, r0
a0005268:	e3530001 	cmp	r3, #1
a000526c:	1a000024 	bne	a0005304 <xQueueGenericReceive+0x14c>
a0005270:	e3a03c12 	mov	r3, #4608	; 0x1200
a0005274:	e3453004 	movt	r3, #20484	; 0x5004
a0005278:	e5933000 	ldr	r3, [r3]
a000527c:	e2033001 	and	r3, r3, #1
a0005280:	e3530000 	cmp	r3, #0
a0005284:	1a00001e 	bne	a0005304 <xQueueGenericReceive+0x14c>
a0005288:	e3a03c1f 	mov	r3, #7936	; 0x1f00
a000528c:	e3453004 	movt	r3, #20484	; 0x5004
a0005290:	e3a02001 	mov	r2, #1
a0005294:	e3402001 	movt	r2, #1
a0005298:	e5832000 	str	r2, [r3]
a000529c:	ea000018 	b	a0005304 <xQueueGenericReceive+0x14c>
a00052a0:	e59d300c 	ldr	r3, [sp, #12]
a00052a4:	e59d2018 	ldr	r2, [sp, #24]
a00052a8:	e583200c 	str	r2, [r3, #12]
a00052ac:	e59d300c 	ldr	r3, [sp, #12]
a00052b0:	e5933024 	ldr	r3, [r3, #36]	; 0x24
a00052b4:	e3530000 	cmp	r3, #0
a00052b8:	0a000011 	beq	a0005304 <xQueueGenericReceive+0x14c>
a00052bc:	e59d300c 	ldr	r3, [sp, #12]
a00052c0:	e2833024 	add	r3, r3, #36	; 0x24
a00052c4:	e1a00003 	mov	r0, r3
a00052c8:	eb0007eb 	bl	a000727c <xTaskRemoveFromEventList>
a00052cc:	e1a03000 	mov	r3, r0
a00052d0:	e3530000 	cmp	r3, #0
a00052d4:	0a00000a 	beq	a0005304 <xQueueGenericReceive+0x14c>
a00052d8:	e3a03c12 	mov	r3, #4608	; 0x1200
a00052dc:	e3453004 	movt	r3, #20484	; 0x5004
a00052e0:	e5933000 	ldr	r3, [r3]
a00052e4:	e2033001 	and	r3, r3, #1
a00052e8:	e3530000 	cmp	r3, #0
a00052ec:	1a000004 	bne	a0005304 <xQueueGenericReceive+0x14c>
a00052f0:	e3a03c1f 	mov	r3, #7936	; 0x1f00
a00052f4:	e3453004 	movt	r3, #20484	; 0x5004
a00052f8:	e3a02001 	mov	r2, #1
a00052fc:	e3402001 	movt	r2, #1
a0005300:	e5832000 	str	r2, [r3]
a0005304:	eb000a90 	bl	a0007d4c <vTaskExitCritical>
a0005308:	e3a03001 	mov	r3, #1
a000530c:	ea000058 	b	a0005474 <xQueueGenericReceive+0x2bc>
a0005310:	e59d3004 	ldr	r3, [sp, #4]
a0005314:	e3530000 	cmp	r3, #0
a0005318:	1a000002 	bne	a0005328 <xQueueGenericReceive+0x170>
a000531c:	eb000a8a 	bl	a0007d4c <vTaskExitCritical>
a0005320:	e3a03000 	mov	r3, #0
a0005324:	ea000052 	b	a0005474 <xQueueGenericReceive+0x2bc>
a0005328:	e59d301c 	ldr	r3, [sp, #28]
a000532c:	e3530000 	cmp	r3, #0
a0005330:	1a000004 	bne	a0005348 <xQueueGenericReceive+0x190>
a0005334:	e28d3010 	add	r3, sp, #16
a0005338:	e1a00003 	mov	r0, r3
a000533c:	eb00081e 	bl	a00073bc <vTaskSetTimeOutState>
a0005340:	e3a03001 	mov	r3, #1
a0005344:	e58d301c 	str	r3, [sp, #28]
a0005348:	eb000a7f 	bl	a0007d4c <vTaskExitCritical>
a000534c:	eb0004de 	bl	a00066cc <vTaskSuspendAll>
a0005350:	eb000a6a 	bl	a0007d00 <vTaskEnterCritical>
a0005354:	e59d300c 	ldr	r3, [sp, #12]
a0005358:	e5933044 	ldr	r3, [r3, #68]	; 0x44
a000535c:	e3730001 	cmn	r3, #1
a0005360:	1a000002 	bne	a0005370 <xQueueGenericReceive+0x1b8>
a0005364:	e59d300c 	ldr	r3, [sp, #12]
a0005368:	e3a02000 	mov	r2, #0
a000536c:	e5832044 	str	r2, [r3, #68]	; 0x44
a0005370:	e59d300c 	ldr	r3, [sp, #12]
a0005374:	e5933048 	ldr	r3, [r3, #72]	; 0x48
a0005378:	e3730001 	cmn	r3, #1
a000537c:	1a000002 	bne	a000538c <xQueueGenericReceive+0x1d4>
a0005380:	e59d300c 	ldr	r3, [sp, #12]
a0005384:	e3a02000 	mov	r2, #0
a0005388:	e5832048 	str	r2, [r3, #72]	; 0x48
a000538c:	eb000a6e 	bl	a0007d4c <vTaskExitCritical>
a0005390:	e28d2010 	add	r2, sp, #16
a0005394:	e28d3004 	add	r3, sp, #4
a0005398:	e1a00002 	mov	r0, r2
a000539c:	e1a01003 	mov	r1, r3
a00053a0:	eb000815 	bl	a00073fc <xTaskCheckForTimeOut>
a00053a4:	e1a03000 	mov	r3, r0
a00053a8:	e3530000 	cmp	r3, #0
a00053ac:	1a00002a 	bne	a000545c <xQueueGenericReceive+0x2a4>
a00053b0:	e59d000c 	ldr	r0, [sp, #12]
a00053b4:	eb000142 	bl	a00058c4 <prvIsQueueEmpty>
a00053b8:	e1a03000 	mov	r3, r0
a00053bc:	e3530000 	cmp	r3, #0
a00053c0:	0a000021 	beq	a000544c <xQueueGenericReceive+0x294>
a00053c4:	e59d300c 	ldr	r3, [sp, #12]
a00053c8:	e5933000 	ldr	r3, [r3]
a00053cc:	e3530000 	cmp	r3, #0
a00053d0:	1a000005 	bne	a00053ec <xQueueGenericReceive+0x234>
a00053d4:	eb000a49 	bl	a0007d00 <vTaskEnterCritical>
a00053d8:	e59d300c 	ldr	r3, [sp, #12]
a00053dc:	e5933004 	ldr	r3, [r3, #4]
a00053e0:	e1a00003 	mov	r0, r3
a00053e4:	eb0009b5 	bl	a0007ac0 <vTaskPriorityInherit>
a00053e8:	eb000a57 	bl	a0007d4c <vTaskExitCritical>
a00053ec:	e59d300c 	ldr	r3, [sp, #12]
a00053f0:	e2832024 	add	r2, r3, #36	; 0x24
a00053f4:	e59d3004 	ldr	r3, [sp, #4]
a00053f8:	e1a00002 	mov	r0, r2
a00053fc:	e1a01003 	mov	r1, r3
a0005400:	eb00074f 	bl	a0007144 <vTaskPlaceOnEventList>
a0005404:	e59d000c 	ldr	r0, [sp, #12]
a0005408:	eb0000ee 	bl	a00057c8 <prvUnlockQueue>
a000540c:	eb0004b8 	bl	a00066f4 <xTaskResumeAll>
a0005410:	e1a03000 	mov	r3, r0
a0005414:	e3530000 	cmp	r3, #0
a0005418:	1a000014 	bne	a0005470 <xQueueGenericReceive+0x2b8>
a000541c:	e3a03c12 	mov	r3, #4608	; 0x1200
a0005420:	e3453004 	movt	r3, #20484	; 0x5004
a0005424:	e5933000 	ldr	r3, [r3]
a0005428:	e2033001 	and	r3, r3, #1
a000542c:	e3530000 	cmp	r3, #0
a0005430:	1a00000e 	bne	a0005470 <xQueueGenericReceive+0x2b8>
a0005434:	e3a03c1f 	mov	r3, #7936	; 0x1f00
a0005438:	e3453004 	movt	r3, #20484	; 0x5004
a000543c:	e3a02001 	mov	r2, #1
a0005440:	e3402001 	movt	r2, #1
a0005444:	e5832000 	str	r2, [r3]
a0005448:	ea000008 	b	a0005470 <xQueueGenericReceive+0x2b8>
a000544c:	e59d000c 	ldr	r0, [sp, #12]
a0005450:	eb0000dc 	bl	a00057c8 <prvUnlockQueue>
a0005454:	eb0004a6 	bl	a00066f4 <xTaskResumeAll>
a0005458:	eaffff5e 	b	a00051d8 <xQueueGenericReceive+0x20>
a000545c:	e59d000c 	ldr	r0, [sp, #12]
a0005460:	eb0000d8 	bl	a00057c8 <prvUnlockQueue>
a0005464:	eb0004a2 	bl	a00066f4 <xTaskResumeAll>
a0005468:	e3a03000 	mov	r3, #0
a000546c:	ea000000 	b	a0005474 <xQueueGenericReceive+0x2bc>
a0005470:	eaffff58 	b	a00051d8 <xQueueGenericReceive+0x20>
a0005474:	e1a00003 	mov	r0, r3
a0005478:	e28dd024 	add	sp, sp, #36	; 0x24
a000547c:	e49df004 	pop	{pc}		; (ldr pc, [sp], #4)

a0005480 <xQueueReceiveFromISR>:
a0005480:	e52de004 	push	{lr}		; (str lr, [sp, #-4]!)
a0005484:	e24dd01c 	sub	sp, sp, #28
a0005488:	e58d000c 	str	r0, [sp, #12]
a000548c:	e58d1008 	str	r1, [sp, #8]
a0005490:	e58d2004 	str	r2, [sp, #4]
a0005494:	eb000f2b 	bl	a0009148 <xPortSetInterruptMask>
a0005498:	e1a03000 	mov	r3, r0
a000549c:	e58d3010 	str	r3, [sp, #16]
a00054a0:	e59d300c 	ldr	r3, [sp, #12]
a00054a4:	e5933038 	ldr	r3, [r3, #56]	; 0x38
a00054a8:	e3530000 	cmp	r3, #0
a00054ac:	0a000022 	beq	a000553c <xQueueReceiveFromISR+0xbc>
a00054b0:	e59d000c 	ldr	r0, [sp, #12]
a00054b4:	e59d1008 	ldr	r1, [sp, #8]
a00054b8:	eb00009f 	bl	a000573c <prvCopyDataFromQueue>
a00054bc:	e59d300c 	ldr	r3, [sp, #12]
a00054c0:	e5933038 	ldr	r3, [r3, #56]	; 0x38
a00054c4:	e2432001 	sub	r2, r3, #1
a00054c8:	e59d300c 	ldr	r3, [sp, #12]
a00054cc:	e5832038 	str	r2, [r3, #56]	; 0x38
a00054d0:	e59d300c 	ldr	r3, [sp, #12]
a00054d4:	e5933044 	ldr	r3, [r3, #68]	; 0x44
a00054d8:	e3730001 	cmn	r3, #1
a00054dc:	1a00000e 	bne	a000551c <xQueueReceiveFromISR+0x9c>
a00054e0:	e59d300c 	ldr	r3, [sp, #12]
a00054e4:	e5933010 	ldr	r3, [r3, #16]
a00054e8:	e3530000 	cmp	r3, #0
a00054ec:	0a00000f 	beq	a0005530 <xQueueReceiveFromISR+0xb0>
a00054f0:	e59d300c 	ldr	r3, [sp, #12]
a00054f4:	e2833010 	add	r3, r3, #16
a00054f8:	e1a00003 	mov	r0, r3
a00054fc:	eb00075e 	bl	a000727c <xTaskRemoveFromEventList>
a0005500:	e1a03000 	mov	r3, r0
a0005504:	e3530000 	cmp	r3, #0
a0005508:	0a000008 	beq	a0005530 <xQueueReceiveFromISR+0xb0>
a000550c:	e59d3004 	ldr	r3, [sp, #4]
a0005510:	e3a02001 	mov	r2, #1
a0005514:	e5832000 	str	r2, [r3]
a0005518:	ea000004 	b	a0005530 <xQueueReceiveFromISR+0xb0>
a000551c:	e59d300c 	ldr	r3, [sp, #12]
a0005520:	e5933044 	ldr	r3, [r3, #68]	; 0x44
a0005524:	e2832001 	add	r2, r3, #1
a0005528:	e59d300c 	ldr	r3, [sp, #12]
a000552c:	e5832044 	str	r2, [r3, #68]	; 0x44
a0005530:	e3a03001 	mov	r3, #1
a0005534:	e58d3014 	str	r3, [sp, #20]
a0005538:	ea000001 	b	a0005544 <xQueueReceiveFromISR+0xc4>
a000553c:	e3a03000 	mov	r3, #0
a0005540:	e58d3014 	str	r3, [sp, #20]
a0005544:	e59d3010 	ldr	r3, [sp, #16]
a0005548:	e1a00003 	mov	r0, r3
a000554c:	eb000f0a 	bl	a000917c <vPortClearInterruptMask>
a0005550:	e59d3014 	ldr	r3, [sp, #20]
a0005554:	e1a00003 	mov	r0, r3
a0005558:	e28dd01c 	add	sp, sp, #28
a000555c:	e49df004 	pop	{pc}		; (ldr pc, [sp], #4)

a0005560 <uxQueueMessagesWaiting>:
a0005560:	e52de004 	push	{lr}		; (str lr, [sp, #-4]!)
a0005564:	e24dd014 	sub	sp, sp, #20
a0005568:	e58d0004 	str	r0, [sp, #4]
a000556c:	eb0009e3 	bl	a0007d00 <vTaskEnterCritical>
a0005570:	e59d3004 	ldr	r3, [sp, #4]
a0005574:	e5933038 	ldr	r3, [r3, #56]	; 0x38
a0005578:	e58d300c 	str	r3, [sp, #12]
a000557c:	eb0009f2 	bl	a0007d4c <vTaskExitCritical>
a0005580:	e59d300c 	ldr	r3, [sp, #12]
a0005584:	e1a00003 	mov	r0, r3
a0005588:	e28dd014 	add	sp, sp, #20
a000558c:	e49df004 	pop	{pc}		; (ldr pc, [sp], #4)

a0005590 <uxQueueMessagesWaitingFromISR>:
a0005590:	e24dd010 	sub	sp, sp, #16
a0005594:	e58d0004 	str	r0, [sp, #4]
a0005598:	e59d3004 	ldr	r3, [sp, #4]
a000559c:	e5933038 	ldr	r3, [r3, #56]	; 0x38
a00055a0:	e58d300c 	str	r3, [sp, #12]
a00055a4:	e59d300c 	ldr	r3, [sp, #12]
a00055a8:	e1a00003 	mov	r0, r3
a00055ac:	e28dd010 	add	sp, sp, #16
a00055b0:	e12fff1e 	bx	lr

a00055b4 <vQueueDelete>:
a00055b4:	e52de004 	push	{lr}		; (str lr, [sp, #-4]!)
a00055b8:	e24dd00c 	sub	sp, sp, #12
a00055bc:	e58d0004 	str	r0, [sp, #4]
a00055c0:	e59d3004 	ldr	r3, [sp, #4]
a00055c4:	e5933000 	ldr	r3, [r3]
a00055c8:	e1a00003 	mov	r0, r3
a00055cc:	eb000f9f 	bl	a0009450 <vPortFree>
a00055d0:	e59d0004 	ldr	r0, [sp, #4]
a00055d4:	eb000f9d 	bl	a0009450 <vPortFree>
a00055d8:	e28dd00c 	add	sp, sp, #12
a00055dc:	e49df004 	pop	{pc}		; (ldr pc, [sp], #4)

a00055e0 <prvCopyDataToQueue>:
a00055e0:	e52de004 	push	{lr}		; (str lr, [sp, #-4]!)
a00055e4:	e24dd014 	sub	sp, sp, #20
a00055e8:	e58d000c 	str	r0, [sp, #12]
a00055ec:	e58d1008 	str	r1, [sp, #8]
a00055f0:	e58d2004 	str	r2, [sp, #4]
a00055f4:	e59d300c 	ldr	r3, [sp, #12]
a00055f8:	e5933040 	ldr	r3, [r3, #64]	; 0x40
a00055fc:	e3530000 	cmp	r3, #0
a0005600:	1a00000b 	bne	a0005634 <prvCopyDataToQueue+0x54>
a0005604:	e59d300c 	ldr	r3, [sp, #12]
a0005608:	e5933000 	ldr	r3, [r3]
a000560c:	e3530000 	cmp	r3, #0
a0005610:	1a000042 	bne	a0005720 <prvCopyDataToQueue+0x140>
a0005614:	e59d300c 	ldr	r3, [sp, #12]
a0005618:	e5933004 	ldr	r3, [r3, #4]
a000561c:	e1a00003 	mov	r0, r3
a0005620:	eb00097c 	bl	a0007c18 <vTaskPriorityDisinherit>
a0005624:	e59d300c 	ldr	r3, [sp, #12]
a0005628:	e3a02000 	mov	r2, #0
a000562c:	e5832004 	str	r2, [r3, #4]
a0005630:	ea00003a 	b	a0005720 <prvCopyDataToQueue+0x140>
a0005634:	e59d3004 	ldr	r3, [sp, #4]
a0005638:	e3530000 	cmp	r3, #0
a000563c:	1a000019 	bne	a00056a8 <prvCopyDataToQueue+0xc8>
a0005640:	e59d300c 	ldr	r3, [sp, #12]
a0005644:	e5932008 	ldr	r2, [r3, #8]
a0005648:	e59d300c 	ldr	r3, [sp, #12]
a000564c:	e5933040 	ldr	r3, [r3, #64]	; 0x40
a0005650:	e1a00002 	mov	r0, r2
a0005654:	e59d1008 	ldr	r1, [sp, #8]
a0005658:	e1a02003 	mov	r2, r3
a000565c:	ebfff57e 	bl	a0002c5c <memcpy>
a0005660:	e59d300c 	ldr	r3, [sp, #12]
a0005664:	e5932008 	ldr	r2, [r3, #8]
a0005668:	e59d300c 	ldr	r3, [sp, #12]
a000566c:	e5933040 	ldr	r3, [r3, #64]	; 0x40
a0005670:	e0822003 	add	r2, r2, r3
a0005674:	e59d300c 	ldr	r3, [sp, #12]
a0005678:	e5832008 	str	r2, [r3, #8]
a000567c:	e59d300c 	ldr	r3, [sp, #12]
a0005680:	e5932008 	ldr	r2, [r3, #8]
a0005684:	e59d300c 	ldr	r3, [sp, #12]
a0005688:	e5933004 	ldr	r3, [r3, #4]
a000568c:	e1520003 	cmp	r2, r3
a0005690:	3a000022 	bcc	a0005720 <prvCopyDataToQueue+0x140>
a0005694:	e59d300c 	ldr	r3, [sp, #12]
a0005698:	e5932000 	ldr	r2, [r3]
a000569c:	e59d300c 	ldr	r3, [sp, #12]
a00056a0:	e5832008 	str	r2, [r3, #8]
a00056a4:	ea00001d 	b	a0005720 <prvCopyDataToQueue+0x140>
a00056a8:	e59d300c 	ldr	r3, [sp, #12]
a00056ac:	e593200c 	ldr	r2, [r3, #12]
a00056b0:	e59d300c 	ldr	r3, [sp, #12]
a00056b4:	e5933040 	ldr	r3, [r3, #64]	; 0x40
a00056b8:	e1a00002 	mov	r0, r2
a00056bc:	e59d1008 	ldr	r1, [sp, #8]
a00056c0:	e1a02003 	mov	r2, r3
a00056c4:	ebfff564 	bl	a0002c5c <memcpy>
a00056c8:	e59d300c 	ldr	r3, [sp, #12]
a00056cc:	e593200c 	ldr	r2, [r3, #12]
a00056d0:	e59d300c 	ldr	r3, [sp, #12]
a00056d4:	e5933040 	ldr	r3, [r3, #64]	; 0x40
a00056d8:	e2633000 	rsb	r3, r3, #0
a00056dc:	e0822003 	add	r2, r2, r3
a00056e0:	e59d300c 	ldr	r3, [sp, #12]
a00056e4:	e583200c 	str	r2, [r3, #12]
a00056e8:	e59d300c 	ldr	r3, [sp, #12]
a00056ec:	e593200c 	ldr	r2, [r3, #12]
a00056f0:	e59d300c 	ldr	r3, [sp, #12]
a00056f4:	e5933000 	ldr	r3, [r3]
a00056f8:	e1520003 	cmp	r2, r3
a00056fc:	2a000007 	bcs	a0005720 <prvCopyDataToQueue+0x140>
a0005700:	e59d300c 	ldr	r3, [sp, #12]
a0005704:	e5932004 	ldr	r2, [r3, #4]
a0005708:	e59d300c 	ldr	r3, [sp, #12]
a000570c:	e5933040 	ldr	r3, [r3, #64]	; 0x40
a0005710:	e2633000 	rsb	r3, r3, #0
a0005714:	e0822003 	add	r2, r2, r3
a0005718:	e59d300c 	ldr	r3, [sp, #12]
a000571c:	e583200c 	str	r2, [r3, #12]
a0005720:	e59d300c 	ldr	r3, [sp, #12]
a0005724:	e5933038 	ldr	r3, [r3, #56]	; 0x38
a0005728:	e2832001 	add	r2, r3, #1
a000572c:	e59d300c 	ldr	r3, [sp, #12]
a0005730:	e5832038 	str	r2, [r3, #56]	; 0x38
a0005734:	e28dd014 	add	sp, sp, #20
a0005738:	e49df004 	pop	{pc}		; (ldr pc, [sp], #4)

a000573c <prvCopyDataFromQueue>:
a000573c:	e52de004 	push	{lr}		; (str lr, [sp, #-4]!)
a0005740:	e24dd00c 	sub	sp, sp, #12
a0005744:	e58d0004 	str	r0, [sp, #4]
a0005748:	e58d1000 	str	r1, [sp]
a000574c:	e59d3004 	ldr	r3, [sp, #4]
a0005750:	e5933000 	ldr	r3, [r3]
a0005754:	e3530000 	cmp	r3, #0
a0005758:	0a000018 	beq	a00057c0 <prvCopyDataFromQueue+0x84>
a000575c:	e59d3004 	ldr	r3, [sp, #4]
a0005760:	e593200c 	ldr	r2, [r3, #12]
a0005764:	e59d3004 	ldr	r3, [sp, #4]
a0005768:	e5933040 	ldr	r3, [r3, #64]	; 0x40
a000576c:	e0822003 	add	r2, r2, r3
a0005770:	e59d3004 	ldr	r3, [sp, #4]
a0005774:	e583200c 	str	r2, [r3, #12]
a0005778:	e59d3004 	ldr	r3, [sp, #4]
a000577c:	e593200c 	ldr	r2, [r3, #12]
a0005780:	e59d3004 	ldr	r3, [sp, #4]
a0005784:	e5933004 	ldr	r3, [r3, #4]
a0005788:	e1520003 	cmp	r2, r3
a000578c:	3a000003 	bcc	a00057a0 <prvCopyDataFromQueue+0x64>
a0005790:	e59d3004 	ldr	r3, [sp, #4]
a0005794:	e5932000 	ldr	r2, [r3]
a0005798:	e59d3004 	ldr	r3, [sp, #4]
a000579c:	e583200c 	str	r2, [r3, #12]
a00057a0:	e59d3004 	ldr	r3, [sp, #4]
a00057a4:	e593200c 	ldr	r2, [r3, #12]
a00057a8:	e59d3004 	ldr	r3, [sp, #4]
a00057ac:	e5933040 	ldr	r3, [r3, #64]	; 0x40
a00057b0:	e59d0000 	ldr	r0, [sp]
a00057b4:	e1a01002 	mov	r1, r2
a00057b8:	e1a02003 	mov	r2, r3
a00057bc:	ebfff526 	bl	a0002c5c <memcpy>
a00057c0:	e28dd00c 	add	sp, sp, #12
a00057c4:	e49df004 	pop	{pc}		; (ldr pc, [sp], #4)

a00057c8 <prvUnlockQueue>:
a00057c8:	e52de004 	push	{lr}		; (str lr, [sp, #-4]!)
a00057cc:	e24dd00c 	sub	sp, sp, #12
a00057d0:	e58d0004 	str	r0, [sp, #4]
a00057d4:	eb000949 	bl	a0007d00 <vTaskEnterCritical>
a00057d8:	ea000012 	b	a0005828 <prvUnlockQueue+0x60>
a00057dc:	e59d3004 	ldr	r3, [sp, #4]
a00057e0:	e5933024 	ldr	r3, [r3, #36]	; 0x24
a00057e4:	e3530000 	cmp	r3, #0
a00057e8:	0a00000d 	beq	a0005824 <prvUnlockQueue+0x5c>
a00057ec:	e59d3004 	ldr	r3, [sp, #4]
a00057f0:	e2833024 	add	r3, r3, #36	; 0x24
a00057f4:	e1a00003 	mov	r0, r3
a00057f8:	eb00069f 	bl	a000727c <xTaskRemoveFromEventList>
a00057fc:	e1a03000 	mov	r3, r0
a0005800:	e3530000 	cmp	r3, #0
a0005804:	0a000000 	beq	a000580c <prvUnlockQueue+0x44>
a0005808:	eb00073d 	bl	a0007504 <vTaskMissedYield>
a000580c:	e59d3004 	ldr	r3, [sp, #4]
a0005810:	e5933048 	ldr	r3, [r3, #72]	; 0x48
a0005814:	e2432001 	sub	r2, r3, #1
a0005818:	e59d3004 	ldr	r3, [sp, #4]
a000581c:	e5832048 	str	r2, [r3, #72]	; 0x48
a0005820:	ea000000 	b	a0005828 <prvUnlockQueue+0x60>
a0005824:	ea000003 	b	a0005838 <prvUnlockQueue+0x70>
a0005828:	e59d3004 	ldr	r3, [sp, #4]
a000582c:	e5933048 	ldr	r3, [r3, #72]	; 0x48
a0005830:	e3530000 	cmp	r3, #0
a0005834:	caffffe8 	bgt	a00057dc <prvUnlockQueue+0x14>
a0005838:	e59d3004 	ldr	r3, [sp, #4]
a000583c:	e3e02000 	mvn	r2, #0
a0005840:	e5832048 	str	r2, [r3, #72]	; 0x48
a0005844:	eb000940 	bl	a0007d4c <vTaskExitCritical>
a0005848:	eb00092c 	bl	a0007d00 <vTaskEnterCritical>
a000584c:	ea000012 	b	a000589c <prvUnlockQueue+0xd4>
a0005850:	e59d3004 	ldr	r3, [sp, #4]
a0005854:	e5933010 	ldr	r3, [r3, #16]
a0005858:	e3530000 	cmp	r3, #0
a000585c:	0a00000d 	beq	a0005898 <prvUnlockQueue+0xd0>
a0005860:	e59d3004 	ldr	r3, [sp, #4]
a0005864:	e2833010 	add	r3, r3, #16
a0005868:	e1a00003 	mov	r0, r3
a000586c:	eb000682 	bl	a000727c <xTaskRemoveFromEventList>
a0005870:	e1a03000 	mov	r3, r0
a0005874:	e3530000 	cmp	r3, #0
a0005878:	0a000000 	beq	a0005880 <prvUnlockQueue+0xb8>
a000587c:	eb000720 	bl	a0007504 <vTaskMissedYield>
a0005880:	e59d3004 	ldr	r3, [sp, #4]
a0005884:	e5933044 	ldr	r3, [r3, #68]	; 0x44
a0005888:	e2432001 	sub	r2, r3, #1
a000588c:	e59d3004 	ldr	r3, [sp, #4]
a0005890:	e5832044 	str	r2, [r3, #68]	; 0x44
a0005894:	ea000000 	b	a000589c <prvUnlockQueue+0xd4>
a0005898:	ea000003 	b	a00058ac <prvUnlockQueue+0xe4>
a000589c:	e59d3004 	ldr	r3, [sp, #4]
a00058a0:	e5933044 	ldr	r3, [r3, #68]	; 0x44
a00058a4:	e3530000 	cmp	r3, #0
a00058a8:	caffffe8 	bgt	a0005850 <prvUnlockQueue+0x88>
a00058ac:	e59d3004 	ldr	r3, [sp, #4]
a00058b0:	e3e02000 	mvn	r2, #0
a00058b4:	e5832044 	str	r2, [r3, #68]	; 0x44
a00058b8:	eb000923 	bl	a0007d4c <vTaskExitCritical>
a00058bc:	e28dd00c 	add	sp, sp, #12
a00058c0:	e49df004 	pop	{pc}		; (ldr pc, [sp], #4)

a00058c4 <prvIsQueueEmpty>:
a00058c4:	e52de004 	push	{lr}		; (str lr, [sp, #-4]!)
a00058c8:	e24dd014 	sub	sp, sp, #20
a00058cc:	e58d0004 	str	r0, [sp, #4]
a00058d0:	eb00090a 	bl	a0007d00 <vTaskEnterCritical>
a00058d4:	e59d3004 	ldr	r3, [sp, #4]
a00058d8:	e5933038 	ldr	r3, [r3, #56]	; 0x38
a00058dc:	e3530000 	cmp	r3, #0
a00058e0:	13a03000 	movne	r3, #0
a00058e4:	03a03001 	moveq	r3, #1
a00058e8:	e6ef3073 	uxtb	r3, r3
a00058ec:	e58d300c 	str	r3, [sp, #12]
a00058f0:	eb000915 	bl	a0007d4c <vTaskExitCritical>
a00058f4:	e59d300c 	ldr	r3, [sp, #12]
a00058f8:	e1a00003 	mov	r0, r3
a00058fc:	e28dd014 	add	sp, sp, #20
a0005900:	e49df004 	pop	{pc}		; (ldr pc, [sp], #4)

a0005904 <xQueueIsQueueEmptyFromISR>:
a0005904:	e24dd010 	sub	sp, sp, #16
a0005908:	e58d0004 	str	r0, [sp, #4]
a000590c:	e59d3004 	ldr	r3, [sp, #4]
a0005910:	e5933038 	ldr	r3, [r3, #56]	; 0x38
a0005914:	e3530000 	cmp	r3, #0
a0005918:	13a03000 	movne	r3, #0
a000591c:	03a03001 	moveq	r3, #1
a0005920:	e6ef3073 	uxtb	r3, r3
a0005924:	e58d300c 	str	r3, [sp, #12]
a0005928:	e59d300c 	ldr	r3, [sp, #12]
a000592c:	e1a00003 	mov	r0, r3
a0005930:	e28dd010 	add	sp, sp, #16
a0005934:	e12fff1e 	bx	lr

a0005938 <prvIsQueueFull>:
a0005938:	e52de004 	push	{lr}		; (str lr, [sp, #-4]!)
a000593c:	e24dd014 	sub	sp, sp, #20
a0005940:	e58d0004 	str	r0, [sp, #4]
a0005944:	eb0008ed 	bl	a0007d00 <vTaskEnterCritical>
a0005948:	e59d3004 	ldr	r3, [sp, #4]
a000594c:	e5932038 	ldr	r2, [r3, #56]	; 0x38
a0005950:	e59d3004 	ldr	r3, [sp, #4]
a0005954:	e593303c 	ldr	r3, [r3, #60]	; 0x3c
a0005958:	e1520003 	cmp	r2, r3
a000595c:	13a03000 	movne	r3, #0
a0005960:	03a03001 	moveq	r3, #1
a0005964:	e6ef3073 	uxtb	r3, r3
a0005968:	e58d300c 	str	r3, [sp, #12]
a000596c:	eb0008f6 	bl	a0007d4c <vTaskExitCritical>
a0005970:	e59d300c 	ldr	r3, [sp, #12]
a0005974:	e1a00003 	mov	r0, r3
a0005978:	e28dd014 	add	sp, sp, #20
a000597c:	e49df004 	pop	{pc}		; (ldr pc, [sp], #4)

a0005980 <xQueueIsQueueFullFromISR>:
a0005980:	e24dd010 	sub	sp, sp, #16
a0005984:	e58d0004 	str	r0, [sp, #4]
a0005988:	e59d3004 	ldr	r3, [sp, #4]
a000598c:	e5932038 	ldr	r2, [r3, #56]	; 0x38
a0005990:	e59d3004 	ldr	r3, [sp, #4]
a0005994:	e593303c 	ldr	r3, [r3, #60]	; 0x3c
a0005998:	e1520003 	cmp	r2, r3
a000599c:	13a03000 	movne	r3, #0
a00059a0:	03a03001 	moveq	r3, #1
a00059a4:	e6ef3073 	uxtb	r3, r3
a00059a8:	e58d300c 	str	r3, [sp, #12]
a00059ac:	e59d300c 	ldr	r3, [sp, #12]
a00059b0:	e1a00003 	mov	r0, r3
a00059b4:	e28dd010 	add	sp, sp, #16
a00059b8:	e12fff1e 	bx	lr

a00059bc <vQueueWaitForMessageRestricted>:
a00059bc:	e52de004 	push	{lr}		; (str lr, [sp, #-4]!)
a00059c0:	e24dd00c 	sub	sp, sp, #12
a00059c4:	e58d0004 	str	r0, [sp, #4]
a00059c8:	e58d1000 	str	r1, [sp]
a00059cc:	eb0008cb 	bl	a0007d00 <vTaskEnterCritical>
a00059d0:	e59d3004 	ldr	r3, [sp, #4]
a00059d4:	e5933044 	ldr	r3, [r3, #68]	; 0x44
a00059d8:	e3730001 	cmn	r3, #1
a00059dc:	1a000002 	bne	a00059ec <vQueueWaitForMessageRestricted+0x30>
a00059e0:	e59d3004 	ldr	r3, [sp, #4]
a00059e4:	e3a02000 	mov	r2, #0
a00059e8:	e5832044 	str	r2, [r3, #68]	; 0x44
a00059ec:	e59d3004 	ldr	r3, [sp, #4]
a00059f0:	e5933048 	ldr	r3, [r3, #72]	; 0x48
a00059f4:	e3730001 	cmn	r3, #1
a00059f8:	1a000002 	bne	a0005a08 <vQueueWaitForMessageRestricted+0x4c>
a00059fc:	e59d3004 	ldr	r3, [sp, #4]
a0005a00:	e3a02000 	mov	r2, #0
a0005a04:	e5832048 	str	r2, [r3, #72]	; 0x48
a0005a08:	eb0008cf 	bl	a0007d4c <vTaskExitCritical>
a0005a0c:	e59d3004 	ldr	r3, [sp, #4]
a0005a10:	e5933038 	ldr	r3, [r3, #56]	; 0x38
a0005a14:	e3530000 	cmp	r3, #0
a0005a18:	1a000004 	bne	a0005a30 <vQueueWaitForMessageRestricted+0x74>
a0005a1c:	e59d3004 	ldr	r3, [sp, #4]
a0005a20:	e2833024 	add	r3, r3, #36	; 0x24
a0005a24:	e1a00003 	mov	r0, r3
a0005a28:	e59d1000 	ldr	r1, [sp]
a0005a2c:	eb0005f2 	bl	a00071fc <vTaskPlaceOnEventListRestricted>
a0005a30:	e59d0004 	ldr	r0, [sp, #4]
a0005a34:	ebffff63 	bl	a00057c8 <prvUnlockQueue>
a0005a38:	e28dd00c 	add	sp, sp, #12
a0005a3c:	e49df004 	pop	{pc}		; (ldr pc, [sp], #4)

a0005a40 <xTaskGenericCreate>:
a0005a40:	e92d4010 	push	{r4, lr}
a0005a44:	e24dd028 	sub	sp, sp, #40	; 0x28
a0005a48:	e58d0014 	str	r0, [sp, #20]
a0005a4c:	e58d1010 	str	r1, [sp, #16]
a0005a50:	e58d3008 	str	r3, [sp, #8]
a0005a54:	e1cd20be 	strh	r2, [sp, #14]
a0005a58:	e59f4290 	ldr	r4, [pc, #656]	; a0005cf0 <xTaskGenericCreate+0x2b0>
a0005a5c:	e08f4004 	add	r4, pc, r4
a0005a60:	e1dd30be 	ldrh	r3, [sp, #14]
a0005a64:	e1a00003 	mov	r0, r3
a0005a68:	e59d1038 	ldr	r1, [sp, #56]	; 0x38
a0005a6c:	eb000754 	bl	a00077c4 <prvAllocateTCBAndStack>
a0005a70:	e58d0020 	str	r0, [sp, #32]
a0005a74:	e59d3020 	ldr	r3, [sp, #32]
a0005a78:	e3530000 	cmp	r3, #0
a0005a7c:	0a00007b 	beq	a0005c70 <xTaskGenericCreate+0x230>
a0005a80:	e59d3020 	ldr	r3, [sp, #32]
a0005a84:	e5932030 	ldr	r2, [r3, #48]	; 0x30
a0005a88:	e1dd30be 	ldrh	r3, [sp, #14]
a0005a8c:	e2433107 	sub	r3, r3, #-1073741823	; 0xc0000001
a0005a90:	e1a03103 	lsl	r3, r3, #2
a0005a94:	e0823003 	add	r3, r2, r3
a0005a98:	e58d301c 	str	r3, [sp, #28]
a0005a9c:	e59d301c 	ldr	r3, [sp, #28]
a0005aa0:	e3c33007 	bic	r3, r3, #7
a0005aa4:	e58d301c 	str	r3, [sp, #28]
a0005aa8:	e1dd30be 	ldrh	r3, [sp, #14]
a0005aac:	e58d3000 	str	r3, [sp]
a0005ab0:	e59d0020 	ldr	r0, [sp, #32]
a0005ab4:	e59d1010 	ldr	r1, [sp, #16]
a0005ab8:	e59d2030 	ldr	r2, [sp, #48]	; 0x30
a0005abc:	e59d303c 	ldr	r3, [sp, #60]	; 0x3c
a0005ac0:	eb00069b 	bl	a0007534 <prvInitialiseTCBVariables>
a0005ac4:	e59d001c 	ldr	r0, [sp, #28]
a0005ac8:	e59d1014 	ldr	r1, [sp, #20]
a0005acc:	e59d2008 	ldr	r2, [sp, #8]
a0005ad0:	eb000b6a 	bl	a0008880 <pxPortInitialiseStack>
a0005ad4:	e1a02000 	mov	r2, r0
a0005ad8:	e59d3020 	ldr	r3, [sp, #32]
a0005adc:	e5832000 	str	r2, [r3]
a0005ae0:	e59d3034 	ldr	r3, [sp, #52]	; 0x34
a0005ae4:	e3530000 	cmp	r3, #0
a0005ae8:	0a000002 	beq	a0005af8 <xTaskGenericCreate+0xb8>
a0005aec:	e59d3034 	ldr	r3, [sp, #52]	; 0x34
a0005af0:	e59d2020 	ldr	r2, [sp, #32]
a0005af4:	e5832000 	str	r2, [r3]
a0005af8:	eb000880 	bl	a0007d00 <vTaskEnterCritical>
a0005afc:	e59f31f0 	ldr	r3, [pc, #496]	; a0005cf4 <xTaskGenericCreate+0x2b4>
a0005b00:	e08f3003 	add	r3, pc, r3
a0005b04:	e5933000 	ldr	r3, [r3]
a0005b08:	e2832001 	add	r2, r3, #1
a0005b0c:	e59f31e4 	ldr	r3, [pc, #484]	; a0005cf8 <xTaskGenericCreate+0x2b8>
a0005b10:	e08f3003 	add	r3, pc, r3
a0005b14:	e5832000 	str	r2, [r3]
a0005b18:	e59f31dc 	ldr	r3, [pc, #476]	; a0005cfc <xTaskGenericCreate+0x2bc>
a0005b1c:	e7943003 	ldr	r3, [r4, r3]
a0005b20:	e5933000 	ldr	r3, [r3]
a0005b24:	e3530000 	cmp	r3, #0
a0005b28:	1a00000a 	bne	a0005b58 <xTaskGenericCreate+0x118>
a0005b2c:	e59f31c8 	ldr	r3, [pc, #456]	; a0005cfc <xTaskGenericCreate+0x2bc>
a0005b30:	e7943003 	ldr	r3, [r4, r3]
a0005b34:	e59d2020 	ldr	r2, [sp, #32]
a0005b38:	e5832000 	str	r2, [r3]
a0005b3c:	e59f31bc 	ldr	r3, [pc, #444]	; a0005d00 <xTaskGenericCreate+0x2c0>
a0005b40:	e08f3003 	add	r3, pc, r3
a0005b44:	e5933000 	ldr	r3, [r3]
a0005b48:	e3530001 	cmp	r3, #1
a0005b4c:	1a000011 	bne	a0005b98 <xTaskGenericCreate+0x158>
a0005b50:	eb0006a8 	bl	a00075f8 <prvInitialiseTaskLists>
a0005b54:	ea00000f 	b	a0005b98 <xTaskGenericCreate+0x158>
a0005b58:	e59f31a4 	ldr	r3, [pc, #420]	; a0005d04 <xTaskGenericCreate+0x2c4>
a0005b5c:	e08f3003 	add	r3, pc, r3
a0005b60:	e5933000 	ldr	r3, [r3]
a0005b64:	e3530000 	cmp	r3, #0
a0005b68:	1a00000a 	bne	a0005b98 <xTaskGenericCreate+0x158>
a0005b6c:	e59f3188 	ldr	r3, [pc, #392]	; a0005cfc <xTaskGenericCreate+0x2bc>
a0005b70:	e7943003 	ldr	r3, [r4, r3]
a0005b74:	e5933000 	ldr	r3, [r3]
a0005b78:	e593202c 	ldr	r2, [r3, #44]	; 0x2c
a0005b7c:	e59d3030 	ldr	r3, [sp, #48]	; 0x30
a0005b80:	e1520003 	cmp	r2, r3
a0005b84:	8a000003 	bhi	a0005b98 <xTaskGenericCreate+0x158>
a0005b88:	e59f316c 	ldr	r3, [pc, #364]	; a0005cfc <xTaskGenericCreate+0x2bc>
a0005b8c:	e7943003 	ldr	r3, [r4, r3]
a0005b90:	e59d2020 	ldr	r2, [sp, #32]
a0005b94:	e5832000 	str	r2, [r3]
a0005b98:	e59d3020 	ldr	r3, [sp, #32]
a0005b9c:	e593202c 	ldr	r2, [r3, #44]	; 0x2c
a0005ba0:	e59f3160 	ldr	r3, [pc, #352]	; a0005d08 <xTaskGenericCreate+0x2c8>
a0005ba4:	e08f3003 	add	r3, pc, r3
a0005ba8:	e5933000 	ldr	r3, [r3]
a0005bac:	e1520003 	cmp	r2, r3
a0005bb0:	9a000004 	bls	a0005bc8 <xTaskGenericCreate+0x188>
a0005bb4:	e59d3020 	ldr	r3, [sp, #32]
a0005bb8:	e593202c 	ldr	r2, [r3, #44]	; 0x2c
a0005bbc:	e59f3148 	ldr	r3, [pc, #328]	; a0005d0c <xTaskGenericCreate+0x2cc>
a0005bc0:	e08f3003 	add	r3, pc, r3
a0005bc4:	e5832000 	str	r2, [r3]
a0005bc8:	e59f3140 	ldr	r3, [pc, #320]	; a0005d10 <xTaskGenericCreate+0x2d0>
a0005bcc:	e08f3003 	add	r3, pc, r3
a0005bd0:	e5932000 	ldr	r2, [r3]
a0005bd4:	e59d3020 	ldr	r3, [sp, #32]
a0005bd8:	e5832048 	str	r2, [r3, #72]	; 0x48
a0005bdc:	e59f3130 	ldr	r3, [pc, #304]	; a0005d14 <xTaskGenericCreate+0x2d4>
a0005be0:	e08f3003 	add	r3, pc, r3
a0005be4:	e5933000 	ldr	r3, [r3]
a0005be8:	e2832001 	add	r2, r3, #1
a0005bec:	e59f3124 	ldr	r3, [pc, #292]	; a0005d18 <xTaskGenericCreate+0x2d8>
a0005bf0:	e08f3003 	add	r3, pc, r3
a0005bf4:	e5832000 	str	r2, [r3]
a0005bf8:	e59d3020 	ldr	r3, [sp, #32]
a0005bfc:	e593202c 	ldr	r2, [r3, #44]	; 0x2c
a0005c00:	e59f3114 	ldr	r3, [pc, #276]	; a0005d1c <xTaskGenericCreate+0x2dc>
a0005c04:	e08f3003 	add	r3, pc, r3
a0005c08:	e5933000 	ldr	r3, [r3]
a0005c0c:	e1520003 	cmp	r2, r3
a0005c10:	9a000004 	bls	a0005c28 <xTaskGenericCreate+0x1e8>
a0005c14:	e59d3020 	ldr	r3, [sp, #32]
a0005c18:	e593202c 	ldr	r2, [r3, #44]	; 0x2c
a0005c1c:	e59f30fc 	ldr	r3, [pc, #252]	; a0005d20 <xTaskGenericCreate+0x2e0>
a0005c20:	e08f3003 	add	r3, pc, r3
a0005c24:	e5832000 	str	r2, [r3]
a0005c28:	e59d3020 	ldr	r3, [sp, #32]
a0005c2c:	e593202c 	ldr	r2, [r3, #44]	; 0x2c
a0005c30:	e1a03002 	mov	r3, r2
a0005c34:	e1a03103 	lsl	r3, r3, #2
a0005c38:	e0833002 	add	r3, r3, r2
a0005c3c:	e1a03103 	lsl	r3, r3, #2
a0005c40:	e59f20dc 	ldr	r2, [pc, #220]	; a0005d24 <xTaskGenericCreate+0x2e4>
a0005c44:	e08f2002 	add	r2, pc, r2
a0005c48:	e0832002 	add	r2, r3, r2
a0005c4c:	e59d3020 	ldr	r3, [sp, #32]
a0005c50:	e2833004 	add	r3, r3, #4
a0005c54:	e1a00002 	mov	r0, r2
a0005c58:	e1a01003 	mov	r1, r3
a0005c5c:	ebfffb4e 	bl	a000499c <vListInsertEnd>
a0005c60:	e3a03001 	mov	r3, #1
a0005c64:	e58d3024 	str	r3, [sp, #36]	; 0x24
a0005c68:	eb000837 	bl	a0007d4c <vTaskExitCritical>
a0005c6c:	ea000001 	b	a0005c78 <xTaskGenericCreate+0x238>
a0005c70:	e3e03000 	mvn	r3, #0
a0005c74:	e58d3024 	str	r3, [sp, #36]	; 0x24
a0005c78:	e59d3024 	ldr	r3, [sp, #36]	; 0x24
a0005c7c:	e3530001 	cmp	r3, #1
a0005c80:	1a000016 	bne	a0005ce0 <xTaskGenericCreate+0x2a0>
a0005c84:	e59f309c 	ldr	r3, [pc, #156]	; a0005d28 <xTaskGenericCreate+0x2e8>
a0005c88:	e08f3003 	add	r3, pc, r3
a0005c8c:	e5933000 	ldr	r3, [r3]
a0005c90:	e3530000 	cmp	r3, #0
a0005c94:	0a000011 	beq	a0005ce0 <xTaskGenericCreate+0x2a0>
a0005c98:	e59f305c 	ldr	r3, [pc, #92]	; a0005cfc <xTaskGenericCreate+0x2bc>
a0005c9c:	e7943003 	ldr	r3, [r4, r3]
a0005ca0:	e5933000 	ldr	r3, [r3]
a0005ca4:	e593202c 	ldr	r2, [r3, #44]	; 0x2c
a0005ca8:	e59d3030 	ldr	r3, [sp, #48]	; 0x30
a0005cac:	e1520003 	cmp	r2, r3
a0005cb0:	2a00000a 	bcs	a0005ce0 <xTaskGenericCreate+0x2a0>
a0005cb4:	e3a03c12 	mov	r3, #4608	; 0x1200
a0005cb8:	e3453004 	movt	r3, #20484	; 0x5004
a0005cbc:	e5933000 	ldr	r3, [r3]
a0005cc0:	e2033001 	and	r3, r3, #1
a0005cc4:	e3530000 	cmp	r3, #0
a0005cc8:	1a000004 	bne	a0005ce0 <xTaskGenericCreate+0x2a0>
a0005ccc:	e3a03c1f 	mov	r3, #7936	; 0x1f00
a0005cd0:	e3453004 	movt	r3, #20484	; 0x5004
a0005cd4:	e3a02001 	mov	r2, #1
a0005cd8:	e3402001 	movt	r2, #1
a0005cdc:	e5832000 	str	r2, [r3]
a0005ce0:	e59d3024 	ldr	r3, [sp, #36]	; 0x24
a0005ce4:	e1a00003 	mov	r0, r3
a0005ce8:	e28dd028 	add	sp, sp, #40	; 0x28
a0005cec:	e8bd8010 	pop	{r4, pc}
a0005cf0:	00003c44 	andeq	r3, r0, r4, asr #24
a0005cf4:	00003f98 	muleq	r0, r8, pc	; <UNPREDICTABLE>
a0005cf8:	00003f88 	andeq	r3, r0, r8, lsl #31
a0005cfc:	00000000 	andeq	r0, r0, r0
a0005d00:	00003f58 	andeq	r3, r0, r8, asr pc
a0005d04:	00003f4c 	andeq	r3, r0, ip, asr #30
a0005d08:	00003efc 	strdeq	r3, [r0], -ip
a0005d0c:	00003ee0 	andeq	r3, r0, r0, ror #29
a0005d10:	00003ef0 	strdeq	r3, [r0], -r0
a0005d14:	00003edc 	ldrdeq	r3, [r0], -ip
a0005d18:	00003ecc 	andeq	r3, r0, ip, asr #29
a0005d1c:	00003ea0 	andeq	r3, r0, r0, lsr #29
a0005d20:	00003e84 	andeq	r3, r0, r4, lsl #29
a0005d24:	00003d34 	andeq	r3, r0, r4, lsr sp
a0005d28:	00003e20 	andeq	r3, r0, r0, lsr #28

a0005d2c <vTaskDelayUntil>:
a0005d2c:	e92d4010 	push	{r4, lr}
a0005d30:	e24dd018 	sub	sp, sp, #24
a0005d34:	e58d0004 	str	r0, [sp, #4]
a0005d38:	e58d1000 	str	r1, [sp]
a0005d3c:	e59f4128 	ldr	r4, [pc, #296]	; a0005e6c <vTaskDelayUntil+0x140>
a0005d40:	e08f4004 	add	r4, pc, r4
a0005d44:	e3a03000 	mov	r3, #0
a0005d48:	e58d3014 	str	r3, [sp, #20]
a0005d4c:	eb00025e 	bl	a00066cc <vTaskSuspendAll>
a0005d50:	e59d3004 	ldr	r3, [sp, #4]
a0005d54:	e5932000 	ldr	r2, [r3]
a0005d58:	e59d3000 	ldr	r3, [sp]
a0005d5c:	e0823003 	add	r3, r2, r3
a0005d60:	e58d3010 	str	r3, [sp, #16]
a0005d64:	e59d3004 	ldr	r3, [sp, #4]
a0005d68:	e5932000 	ldr	r2, [r3]
a0005d6c:	e59f30fc 	ldr	r3, [pc, #252]	; a0005e70 <vTaskDelayUntil+0x144>
a0005d70:	e08f3003 	add	r3, pc, r3
a0005d74:	e5933000 	ldr	r3, [r3]
a0005d78:	e1520003 	cmp	r2, r3
a0005d7c:	9a00000d 	bls	a0005db8 <vTaskDelayUntil+0x8c>
a0005d80:	e59d3004 	ldr	r3, [sp, #4]
a0005d84:	e5932000 	ldr	r2, [r3]
a0005d88:	e59d3010 	ldr	r3, [sp, #16]
a0005d8c:	e1520003 	cmp	r2, r3
a0005d90:	9a000015 	bls	a0005dec <vTaskDelayUntil+0xc0>
a0005d94:	e59f30d8 	ldr	r3, [pc, #216]	; a0005e74 <vTaskDelayUntil+0x148>
a0005d98:	e08f3003 	add	r3, pc, r3
a0005d9c:	e5933000 	ldr	r3, [r3]
a0005da0:	e59d2010 	ldr	r2, [sp, #16]
a0005da4:	e1520003 	cmp	r2, r3
a0005da8:	9a00000f 	bls	a0005dec <vTaskDelayUntil+0xc0>
a0005dac:	e3a03001 	mov	r3, #1
a0005db0:	e58d3014 	str	r3, [sp, #20]
a0005db4:	ea00000c 	b	a0005dec <vTaskDelayUntil+0xc0>
a0005db8:	e59d3004 	ldr	r3, [sp, #4]
a0005dbc:	e5932000 	ldr	r2, [r3]
a0005dc0:	e59d3010 	ldr	r3, [sp, #16]
a0005dc4:	e1520003 	cmp	r2, r3
a0005dc8:	8a000005 	bhi	a0005de4 <vTaskDelayUntil+0xb8>
a0005dcc:	e59f30a4 	ldr	r3, [pc, #164]	; a0005e78 <vTaskDelayUntil+0x14c>
a0005dd0:	e08f3003 	add	r3, pc, r3
a0005dd4:	e5933000 	ldr	r3, [r3]
a0005dd8:	e59d2010 	ldr	r2, [sp, #16]
a0005ddc:	e1520003 	cmp	r2, r3
a0005de0:	9a000001 	bls	a0005dec <vTaskDelayUntil+0xc0>
a0005de4:	e3a03001 	mov	r3, #1
a0005de8:	e58d3014 	str	r3, [sp, #20]
a0005dec:	e59d3004 	ldr	r3, [sp, #4]
a0005df0:	e59d2010 	ldr	r2, [sp, #16]
a0005df4:	e5832000 	str	r2, [r3]
a0005df8:	e59d3014 	ldr	r3, [sp, #20]
a0005dfc:	e3530000 	cmp	r3, #0
a0005e00:	0a000007 	beq	a0005e24 <vTaskDelayUntil+0xf8>
a0005e04:	e59f3070 	ldr	r3, [pc, #112]	; a0005e7c <vTaskDelayUntil+0x150>
a0005e08:	e7943003 	ldr	r3, [r4, r3]
a0005e0c:	e5933000 	ldr	r3, [r3]
a0005e10:	e2833004 	add	r3, r3, #4
a0005e14:	e1a00003 	mov	r0, r3
a0005e18:	ebfffb33 	bl	a0004aec <vListRemove>
a0005e1c:	e59d0010 	ldr	r0, [sp, #16]
a0005e20:	eb00062f 	bl	a00076e4 <prvAddCurrentTaskToDelayedList>
a0005e24:	eb000232 	bl	a00066f4 <xTaskResumeAll>
a0005e28:	e58d000c 	str	r0, [sp, #12]
a0005e2c:	e59d300c 	ldr	r3, [sp, #12]
a0005e30:	e3530000 	cmp	r3, #0
a0005e34:	1a00000a 	bne	a0005e64 <vTaskDelayUntil+0x138>
a0005e38:	e3a03c12 	mov	r3, #4608	; 0x1200
a0005e3c:	e3453004 	movt	r3, #20484	; 0x5004
a0005e40:	e5933000 	ldr	r3, [r3]
a0005e44:	e2033001 	and	r3, r3, #1
a0005e48:	e3530000 	cmp	r3, #0
a0005e4c:	1a000004 	bne	a0005e64 <vTaskDelayUntil+0x138>
a0005e50:	e3a03c1f 	mov	r3, #7936	; 0x1f00
a0005e54:	e3453004 	movt	r3, #20484	; 0x5004
a0005e58:	e3a02001 	mov	r2, #1
a0005e5c:	e3402001 	movt	r2, #1
a0005e60:	e5832000 	str	r2, [r3]
a0005e64:	e28dd018 	add	sp, sp, #24
a0005e68:	e8bd8010 	pop	{r4, pc}
a0005e6c:	00003960 	andeq	r3, r0, r0, ror #18
a0005e70:	00003d2c 	andeq	r3, r0, ip, lsr #26
a0005e74:	00003d04 	andeq	r3, r0, r4, lsl #26
a0005e78:	00003ccc 	andeq	r3, r0, ip, asr #25
a0005e7c:	00000000 	andeq	r0, r0, r0

a0005e80 <vTaskDelay>:
a0005e80:	e92d4010 	push	{r4, lr}
a0005e84:	e24dd010 	sub	sp, sp, #16
a0005e88:	e58d0004 	str	r0, [sp, #4]
a0005e8c:	e59f4098 	ldr	r4, [pc, #152]	; a0005f2c <vTaskDelay+0xac>
a0005e90:	e08f4004 	add	r4, pc, r4
a0005e94:	e3a03000 	mov	r3, #0
a0005e98:	e58d300c 	str	r3, [sp, #12]
a0005e9c:	e59d3004 	ldr	r3, [sp, #4]
a0005ea0:	e3530000 	cmp	r3, #0
a0005ea4:	0a000010 	beq	a0005eec <vTaskDelay+0x6c>
a0005ea8:	eb000207 	bl	a00066cc <vTaskSuspendAll>
a0005eac:	e59f307c 	ldr	r3, [pc, #124]	; a0005f30 <vTaskDelay+0xb0>
a0005eb0:	e08f3003 	add	r3, pc, r3
a0005eb4:	e5932000 	ldr	r2, [r3]
a0005eb8:	e59d3004 	ldr	r3, [sp, #4]
a0005ebc:	e0823003 	add	r3, r2, r3
a0005ec0:	e58d3008 	str	r3, [sp, #8]
a0005ec4:	e59f3068 	ldr	r3, [pc, #104]	; a0005f34 <vTaskDelay+0xb4>
a0005ec8:	e7943003 	ldr	r3, [r4, r3]
a0005ecc:	e5933000 	ldr	r3, [r3]
a0005ed0:	e2833004 	add	r3, r3, #4
a0005ed4:	e1a00003 	mov	r0, r3
a0005ed8:	ebfffb03 	bl	a0004aec <vListRemove>
a0005edc:	e59d0008 	ldr	r0, [sp, #8]
a0005ee0:	eb0005ff 	bl	a00076e4 <prvAddCurrentTaskToDelayedList>
a0005ee4:	eb000202 	bl	a00066f4 <xTaskResumeAll>
a0005ee8:	e58d000c 	str	r0, [sp, #12]
a0005eec:	e59d300c 	ldr	r3, [sp, #12]
a0005ef0:	e3530000 	cmp	r3, #0
a0005ef4:	1a00000a 	bne	a0005f24 <vTaskDelay+0xa4>
a0005ef8:	e3a03c12 	mov	r3, #4608	; 0x1200
a0005efc:	e3453004 	movt	r3, #20484	; 0x5004
a0005f00:	e5933000 	ldr	r3, [r3]
a0005f04:	e2033001 	and	r3, r3, #1
a0005f08:	e3530000 	cmp	r3, #0
a0005f0c:	1a000004 	bne	a0005f24 <vTaskDelay+0xa4>
a0005f10:	e3a03c1f 	mov	r3, #7936	; 0x1f00
a0005f14:	e3453004 	movt	r3, #20484	; 0x5004
a0005f18:	e3a02001 	mov	r2, #1
a0005f1c:	e3402001 	movt	r2, #1
a0005f20:	e5832000 	str	r2, [r3]
a0005f24:	e28dd010 	add	sp, sp, #16
a0005f28:	e8bd8010 	pop	{r4, pc}
a0005f2c:	00003810 	andeq	r3, r0, r0, lsl r8
a0005f30:	00003bec 	andeq	r3, r0, ip, ror #23
a0005f34:	00000000 	andeq	r0, r0, r0

a0005f38 <uxTaskPriorityGet>:
a0005f38:	e92d4010 	push	{r4, lr}
a0005f3c:	e24dd010 	sub	sp, sp, #16
a0005f40:	e58d0004 	str	r0, [sp, #4]
a0005f44:	e59f4048 	ldr	r4, [pc, #72]	; a0005f94 <uxTaskPriorityGet+0x5c>
a0005f48:	e08f4004 	add	r4, pc, r4
a0005f4c:	eb00076b 	bl	a0007d00 <vTaskEnterCritical>
a0005f50:	e59d3004 	ldr	r3, [sp, #4]
a0005f54:	e3530000 	cmp	r3, #0
a0005f58:	1a000003 	bne	a0005f6c <uxTaskPriorityGet+0x34>
a0005f5c:	e59f3034 	ldr	r3, [pc, #52]	; a0005f98 <uxTaskPriorityGet+0x60>
a0005f60:	e7943003 	ldr	r3, [r4, r3]
a0005f64:	e5933000 	ldr	r3, [r3]
a0005f68:	ea000000 	b	a0005f70 <uxTaskPriorityGet+0x38>
a0005f6c:	e59d3004 	ldr	r3, [sp, #4]
a0005f70:	e58d300c 	str	r3, [sp, #12]
a0005f74:	e59d300c 	ldr	r3, [sp, #12]
a0005f78:	e593302c 	ldr	r3, [r3, #44]	; 0x2c
a0005f7c:	e58d3008 	str	r3, [sp, #8]
a0005f80:	eb000771 	bl	a0007d4c <vTaskExitCritical>
a0005f84:	e59d3008 	ldr	r3, [sp, #8]
a0005f88:	e1a00003 	mov	r0, r3
a0005f8c:	e28dd010 	add	sp, sp, #16
a0005f90:	e8bd8010 	pop	{r4, pc}
a0005f94:	00003758 	andeq	r3, r0, r8, asr r7
a0005f98:	00000000 	andeq	r0, r0, r0

a0005f9c <vTaskPrioritySet>:
a0005f9c:	e92d4010 	push	{r4, lr}
a0005fa0:	e24dd018 	sub	sp, sp, #24
a0005fa4:	e58d0004 	str	r0, [sp, #4]
a0005fa8:	e58d1000 	str	r1, [sp]
a0005fac:	e59f41e8 	ldr	r4, [pc, #488]	; a000619c <vTaskPrioritySet+0x200>
a0005fb0:	e08f4004 	add	r4, pc, r4
a0005fb4:	e3a03000 	mov	r3, #0
a0005fb8:	e58d3014 	str	r3, [sp, #20]
a0005fbc:	e59d3000 	ldr	r3, [sp]
a0005fc0:	e3530009 	cmp	r3, #9
a0005fc4:	9a000001 	bls	a0005fd0 <vTaskPrioritySet+0x34>
a0005fc8:	e3a03009 	mov	r3, #9
a0005fcc:	e58d3000 	str	r3, [sp]
a0005fd0:	eb00074a 	bl	a0007d00 <vTaskEnterCritical>
a0005fd4:	e59f31c4 	ldr	r3, [pc, #452]	; a00061a0 <vTaskPrioritySet+0x204>
a0005fd8:	e7943003 	ldr	r3, [r4, r3]
a0005fdc:	e5933000 	ldr	r3, [r3]
a0005fe0:	e59d2004 	ldr	r2, [sp, #4]
a0005fe4:	e1520003 	cmp	r2, r3
a0005fe8:	1a000001 	bne	a0005ff4 <vTaskPrioritySet+0x58>
a0005fec:	e3a03000 	mov	r3, #0
a0005ff0:	e58d3004 	str	r3, [sp, #4]
a0005ff4:	e59d3004 	ldr	r3, [sp, #4]
a0005ff8:	e3530000 	cmp	r3, #0
a0005ffc:	1a000003 	bne	a0006010 <vTaskPrioritySet+0x74>
a0006000:	e59f3198 	ldr	r3, [pc, #408]	; a00061a0 <vTaskPrioritySet+0x204>
a0006004:	e7943003 	ldr	r3, [r4, r3]
a0006008:	e5933000 	ldr	r3, [r3]
a000600c:	ea000000 	b	a0006014 <vTaskPrioritySet+0x78>
a0006010:	e59d3004 	ldr	r3, [sp, #4]
a0006014:	e58d3010 	str	r3, [sp, #16]
a0006018:	e59d3010 	ldr	r3, [sp, #16]
a000601c:	e593304c 	ldr	r3, [r3, #76]	; 0x4c
a0006020:	e58d300c 	str	r3, [sp, #12]
a0006024:	e59d200c 	ldr	r2, [sp, #12]
a0006028:	e59d3000 	ldr	r3, [sp]
a000602c:	e1520003 	cmp	r2, r3
a0006030:	0a000056 	beq	a0006190 <vTaskPrioritySet+0x1f4>
a0006034:	e59d2000 	ldr	r2, [sp]
a0006038:	e59d300c 	ldr	r3, [sp, #12]
a000603c:	e1520003 	cmp	r2, r3
a0006040:	9a000005 	bls	a000605c <vTaskPrioritySet+0xc0>
a0006044:	e59d3004 	ldr	r3, [sp, #4]
a0006048:	e3530000 	cmp	r3, #0
a000604c:	0a000007 	beq	a0006070 <vTaskPrioritySet+0xd4>
a0006050:	e3a03001 	mov	r3, #1
a0006054:	e58d3014 	str	r3, [sp, #20]
a0006058:	ea000004 	b	a0006070 <vTaskPrioritySet+0xd4>
a000605c:	e59d3004 	ldr	r3, [sp, #4]
a0006060:	e3530000 	cmp	r3, #0
a0006064:	1a000001 	bne	a0006070 <vTaskPrioritySet+0xd4>
a0006068:	e3a03001 	mov	r3, #1
a000606c:	e58d3014 	str	r3, [sp, #20]
a0006070:	e59d3010 	ldr	r3, [sp, #16]
a0006074:	e593204c 	ldr	r2, [r3, #76]	; 0x4c
a0006078:	e59d3010 	ldr	r3, [sp, #16]
a000607c:	e593302c 	ldr	r3, [r3, #44]	; 0x2c
a0006080:	e1520003 	cmp	r2, r3
a0006084:	1a000002 	bne	a0006094 <vTaskPrioritySet+0xf8>
a0006088:	e59d3010 	ldr	r3, [sp, #16]
a000608c:	e59d2000 	ldr	r2, [sp]
a0006090:	e583202c 	str	r2, [r3, #44]	; 0x2c
a0006094:	e59d3010 	ldr	r3, [sp, #16]
a0006098:	e59d2000 	ldr	r2, [sp]
a000609c:	e583204c 	str	r2, [r3, #76]	; 0x4c
a00060a0:	e59d3000 	ldr	r3, [sp]
a00060a4:	e263200a 	rsb	r2, r3, #10
a00060a8:	e59d3010 	ldr	r3, [sp, #16]
a00060ac:	e5832018 	str	r2, [r3, #24]
a00060b0:	e59d3010 	ldr	r3, [sp, #16]
a00060b4:	e5931014 	ldr	r1, [r3, #20]
a00060b8:	e59d200c 	ldr	r2, [sp, #12]
a00060bc:	e1a03002 	mov	r3, r2
a00060c0:	e1a03103 	lsl	r3, r3, #2
a00060c4:	e0833002 	add	r3, r3, r2
a00060c8:	e1a03103 	lsl	r3, r3, #2
a00060cc:	e59f20d0 	ldr	r2, [pc, #208]	; a00061a4 <vTaskPrioritySet+0x208>
a00060d0:	e08f2002 	add	r2, pc, r2
a00060d4:	e0833002 	add	r3, r3, r2
a00060d8:	e1510003 	cmp	r1, r3
a00060dc:	1a00001d 	bne	a0006158 <vTaskPrioritySet+0x1bc>
a00060e0:	e59d3010 	ldr	r3, [sp, #16]
a00060e4:	e2833004 	add	r3, r3, #4
a00060e8:	e1a00003 	mov	r0, r3
a00060ec:	ebfffa7e 	bl	a0004aec <vListRemove>
a00060f0:	e59d3010 	ldr	r3, [sp, #16]
a00060f4:	e593202c 	ldr	r2, [r3, #44]	; 0x2c
a00060f8:	e59f30a8 	ldr	r3, [pc, #168]	; a00061a8 <vTaskPrioritySet+0x20c>
a00060fc:	e08f3003 	add	r3, pc, r3
a0006100:	e5933000 	ldr	r3, [r3]
a0006104:	e1520003 	cmp	r2, r3
a0006108:	9a000004 	bls	a0006120 <vTaskPrioritySet+0x184>
a000610c:	e59d3010 	ldr	r3, [sp, #16]
a0006110:	e593202c 	ldr	r2, [r3, #44]	; 0x2c
a0006114:	e59f3090 	ldr	r3, [pc, #144]	; a00061ac <vTaskPrioritySet+0x210>
a0006118:	e08f3003 	add	r3, pc, r3
a000611c:	e5832000 	str	r2, [r3]
a0006120:	e59d3010 	ldr	r3, [sp, #16]
a0006124:	e593202c 	ldr	r2, [r3, #44]	; 0x2c
a0006128:	e1a03002 	mov	r3, r2
a000612c:	e1a03103 	lsl	r3, r3, #2
a0006130:	e0833002 	add	r3, r3, r2
a0006134:	e1a03103 	lsl	r3, r3, #2
a0006138:	e59f2070 	ldr	r2, [pc, #112]	; a00061b0 <vTaskPrioritySet+0x214>
a000613c:	e08f2002 	add	r2, pc, r2
a0006140:	e0832002 	add	r2, r3, r2
a0006144:	e59d3010 	ldr	r3, [sp, #16]
a0006148:	e2833004 	add	r3, r3, #4
a000614c:	e1a00002 	mov	r0, r2
a0006150:	e1a01003 	mov	r1, r3
a0006154:	ebfffa10 	bl	a000499c <vListInsertEnd>
a0006158:	e59d3014 	ldr	r3, [sp, #20]
a000615c:	e3530001 	cmp	r3, #1
a0006160:	1a00000a 	bne	a0006190 <vTaskPrioritySet+0x1f4>
a0006164:	e3a03c12 	mov	r3, #4608	; 0x1200
a0006168:	e3453004 	movt	r3, #20484	; 0x5004
a000616c:	e5933000 	ldr	r3, [r3]
a0006170:	e2033001 	and	r3, r3, #1
a0006174:	e3530000 	cmp	r3, #0
a0006178:	1a000004 	bne	a0006190 <vTaskPrioritySet+0x1f4>
a000617c:	e3a03c1f 	mov	r3, #7936	; 0x1f00
a0006180:	e3453004 	movt	r3, #20484	; 0x5004
a0006184:	e3a02001 	mov	r2, #1
a0006188:	e3402001 	movt	r2, #1
a000618c:	e5832000 	str	r2, [r3]
a0006190:	eb0006ed 	bl	a0007d4c <vTaskExitCritical>
a0006194:	e28dd018 	add	sp, sp, #24
a0006198:	e8bd8010 	pop	{r4, pc}
a000619c:	000036f0 	strdeq	r3, [r0], -r0
a00061a0:	00000000 	andeq	r0, r0, r0
a00061a4:	000038a8 	andeq	r3, r0, r8, lsr #17
a00061a8:	000039a8 	andeq	r3, r0, r8, lsr #19
a00061ac:	0000398c 	andeq	r3, r0, ip, lsl #19
a00061b0:	0000383c 	andeq	r3, r0, ip, lsr r8

a00061b4 <vTaskSuspend>:
a00061b4:	e92d4010 	push	{r4, lr}
a00061b8:	e24dd010 	sub	sp, sp, #16
a00061bc:	e58d0004 	str	r0, [sp, #4]
a00061c0:	e59f4128 	ldr	r4, [pc, #296]	; a00062f0 <vTaskSuspend+0x13c>
a00061c4:	e08f4004 	add	r4, pc, r4
a00061c8:	eb0006cc 	bl	a0007d00 <vTaskEnterCritical>
a00061cc:	e59f3120 	ldr	r3, [pc, #288]	; a00062f4 <vTaskSuspend+0x140>
a00061d0:	e7943003 	ldr	r3, [r4, r3]
a00061d4:	e5933000 	ldr	r3, [r3]
a00061d8:	e59d2004 	ldr	r2, [sp, #4]
a00061dc:	e1520003 	cmp	r2, r3
a00061e0:	1a000001 	bne	a00061ec <vTaskSuspend+0x38>
a00061e4:	e3a03000 	mov	r3, #0
a00061e8:	e58d3004 	str	r3, [sp, #4]
a00061ec:	e59d3004 	ldr	r3, [sp, #4]
a00061f0:	e3530000 	cmp	r3, #0
a00061f4:	1a000003 	bne	a0006208 <vTaskSuspend+0x54>
a00061f8:	e59f30f4 	ldr	r3, [pc, #244]	; a00062f4 <vTaskSuspend+0x140>
a00061fc:	e7943003 	ldr	r3, [r4, r3]
a0006200:	e5933000 	ldr	r3, [r3]
a0006204:	ea000000 	b	a000620c <vTaskSuspend+0x58>
a0006208:	e59d3004 	ldr	r3, [sp, #4]
a000620c:	e58d300c 	str	r3, [sp, #12]
a0006210:	e59d300c 	ldr	r3, [sp, #12]
a0006214:	e2833004 	add	r3, r3, #4
a0006218:	e1a00003 	mov	r0, r3
a000621c:	ebfffa32 	bl	a0004aec <vListRemove>
a0006220:	e59d300c 	ldr	r3, [sp, #12]
a0006224:	e5933028 	ldr	r3, [r3, #40]	; 0x28
a0006228:	e3530000 	cmp	r3, #0
a000622c:	0a000003 	beq	a0006240 <vTaskSuspend+0x8c>
a0006230:	e59d300c 	ldr	r3, [sp, #12]
a0006234:	e2833018 	add	r3, r3, #24
a0006238:	e1a00003 	mov	r0, r3
a000623c:	ebfffa2a 	bl	a0004aec <vListRemove>
a0006240:	e59d300c 	ldr	r3, [sp, #12]
a0006244:	e2833004 	add	r3, r3, #4
a0006248:	e59f20a8 	ldr	r2, [pc, #168]	; a00062f8 <vTaskSuspend+0x144>
a000624c:	e08f2002 	add	r2, pc, r2
a0006250:	e1a00002 	mov	r0, r2
a0006254:	e1a01003 	mov	r1, r3
a0006258:	ebfff9cf 	bl	a000499c <vListInsertEnd>
a000625c:	eb0006ba 	bl	a0007d4c <vTaskExitCritical>
a0006260:	e59d3004 	ldr	r3, [sp, #4]
a0006264:	e3530000 	cmp	r3, #0
a0006268:	1a00001e 	bne	a00062e8 <vTaskSuspend+0x134>
a000626c:	e59f3088 	ldr	r3, [pc, #136]	; a00062fc <vTaskSuspend+0x148>
a0006270:	e08f3003 	add	r3, pc, r3
a0006274:	e5933000 	ldr	r3, [r3]
a0006278:	e3530000 	cmp	r3, #0
a000627c:	0a00000b 	beq	a00062b0 <vTaskSuspend+0xfc>
a0006280:	e3a03c12 	mov	r3, #4608	; 0x1200
a0006284:	e3453004 	movt	r3, #20484	; 0x5004
a0006288:	e5933000 	ldr	r3, [r3]
a000628c:	e2033001 	and	r3, r3, #1
a0006290:	e3530000 	cmp	r3, #0
a0006294:	1a000013 	bne	a00062e8 <vTaskSuspend+0x134>
a0006298:	e3a03c1f 	mov	r3, #7936	; 0x1f00
a000629c:	e3453004 	movt	r3, #20484	; 0x5004
a00062a0:	e3a02001 	mov	r2, #1
a00062a4:	e3402001 	movt	r2, #1
a00062a8:	e5832000 	str	r2, [r3]
a00062ac:	ea00000d 	b	a00062e8 <vTaskSuspend+0x134>
a00062b0:	e59f3048 	ldr	r3, [pc, #72]	; a0006300 <vTaskSuspend+0x14c>
a00062b4:	e08f3003 	add	r3, pc, r3
a00062b8:	e5932000 	ldr	r2, [r3]
a00062bc:	e59f3040 	ldr	r3, [pc, #64]	; a0006304 <vTaskSuspend+0x150>
a00062c0:	e08f3003 	add	r3, pc, r3
a00062c4:	e5933000 	ldr	r3, [r3]
a00062c8:	e1520003 	cmp	r2, r3
a00062cc:	1a000004 	bne	a00062e4 <vTaskSuspend+0x130>
a00062d0:	e59f301c 	ldr	r3, [pc, #28]	; a00062f4 <vTaskSuspend+0x140>
a00062d4:	e7943003 	ldr	r3, [r4, r3]
a00062d8:	e3a02000 	mov	r2, #0
a00062dc:	e5832000 	str	r2, [r3]
a00062e0:	ea000000 	b	a00062e8 <vTaskSuspend+0x134>
a00062e4:	eb0002fa 	bl	a0006ed4 <vTaskSwitchContext>
a00062e8:	e28dd010 	add	sp, sp, #16
a00062ec:	e8bd8010 	pop	{r4, pc}
a00062f0:	000034dc 	ldrdeq	r3, [r0], -ip
a00062f4:	00000000 	andeq	r0, r0, r0
a00062f8:	00003838 	andeq	r3, r0, r8, lsr r8
a00062fc:	00003838 	andeq	r3, r0, r8, lsr r8
a0006300:	000037d0 	ldrdeq	r3, [r0], -r0
a0006304:	000037d8 	ldrdeq	r3, [r0], -r8

a0006308 <xTaskIsTaskSuspended>:
a0006308:	e24dd010 	sub	sp, sp, #16
a000630c:	e58d0004 	str	r0, [sp, #4]
a0006310:	e3a03000 	mov	r3, #0
a0006314:	e58d300c 	str	r3, [sp, #12]
a0006318:	e59d3004 	ldr	r3, [sp, #4]
a000631c:	e58d3008 	str	r3, [sp, #8]
a0006320:	e59d3008 	ldr	r3, [sp, #8]
a0006324:	e5932014 	ldr	r2, [r3, #20]
a0006328:	e59f3048 	ldr	r3, [pc, #72]	; a0006378 <xTaskIsTaskSuspended+0x70>
a000632c:	e08f3003 	add	r3, pc, r3
a0006330:	e1520003 	cmp	r2, r3
a0006334:	1a00000b 	bne	a0006368 <xTaskIsTaskSuspended+0x60>
a0006338:	e59d3008 	ldr	r3, [sp, #8]
a000633c:	e5932028 	ldr	r2, [r3, #40]	; 0x28
a0006340:	e59f3034 	ldr	r3, [pc, #52]	; a000637c <xTaskIsTaskSuspended+0x74>
a0006344:	e08f3003 	add	r3, pc, r3
a0006348:	e1520003 	cmp	r2, r3
a000634c:	0a000005 	beq	a0006368 <xTaskIsTaskSuspended+0x60>
a0006350:	e59d3008 	ldr	r3, [sp, #8]
a0006354:	e5933028 	ldr	r3, [r3, #40]	; 0x28
a0006358:	e3530000 	cmp	r3, #0
a000635c:	1a000001 	bne	a0006368 <xTaskIsTaskSuspended+0x60>
a0006360:	e3a03001 	mov	r3, #1
a0006364:	e58d300c 	str	r3, [sp, #12]
a0006368:	e59d300c 	ldr	r3, [sp, #12]
a000636c:	e1a00003 	mov	r0, r3
a0006370:	e28dd010 	add	sp, sp, #16
a0006374:	e12fff1e 	bx	lr
a0006378:	00003758 	andeq	r3, r0, r8, asr r7
a000637c:	0000372c 	andeq	r3, r0, ip, lsr #14

a0006380 <vTaskResume>:
a0006380:	e92d4010 	push	{r4, lr}
a0006384:	e24dd010 	sub	sp, sp, #16
a0006388:	e58d0004 	str	r0, [sp, #4]
a000638c:	e59f4114 	ldr	r4, [pc, #276]	; a00064a8 <vTaskResume+0x128>
a0006390:	e08f4004 	add	r4, pc, r4
a0006394:	e59d3004 	ldr	r3, [sp, #4]
a0006398:	e58d300c 	str	r3, [sp, #12]
a000639c:	e59d300c 	ldr	r3, [sp, #12]
a00063a0:	e3530000 	cmp	r3, #0
a00063a4:	0a00003d 	beq	a00064a0 <vTaskResume+0x120>
a00063a8:	e59f30fc 	ldr	r3, [pc, #252]	; a00064ac <vTaskResume+0x12c>
a00063ac:	e7943003 	ldr	r3, [r4, r3]
a00063b0:	e5933000 	ldr	r3, [r3]
a00063b4:	e59d200c 	ldr	r2, [sp, #12]
a00063b8:	e1520003 	cmp	r2, r3
a00063bc:	0a000037 	beq	a00064a0 <vTaskResume+0x120>
a00063c0:	eb00064e 	bl	a0007d00 <vTaskEnterCritical>
a00063c4:	e59d000c 	ldr	r0, [sp, #12]
a00063c8:	ebffffce 	bl	a0006308 <xTaskIsTaskSuspended>
a00063cc:	e1a03000 	mov	r3, r0
a00063d0:	e3530001 	cmp	r3, #1
a00063d4:	1a000030 	bne	a000649c <vTaskResume+0x11c>
a00063d8:	e59d300c 	ldr	r3, [sp, #12]
a00063dc:	e2833004 	add	r3, r3, #4
a00063e0:	e1a00003 	mov	r0, r3
a00063e4:	ebfff9c0 	bl	a0004aec <vListRemove>
a00063e8:	e59d300c 	ldr	r3, [sp, #12]
a00063ec:	e593202c 	ldr	r2, [r3, #44]	; 0x2c
a00063f0:	e59f30b8 	ldr	r3, [pc, #184]	; a00064b0 <vTaskResume+0x130>
a00063f4:	e08f3003 	add	r3, pc, r3
a00063f8:	e5933000 	ldr	r3, [r3]
a00063fc:	e1520003 	cmp	r2, r3
a0006400:	9a000004 	bls	a0006418 <vTaskResume+0x98>
a0006404:	e59d300c 	ldr	r3, [sp, #12]
a0006408:	e593202c 	ldr	r2, [r3, #44]	; 0x2c
a000640c:	e59f30a0 	ldr	r3, [pc, #160]	; a00064b4 <vTaskResume+0x134>
a0006410:	e08f3003 	add	r3, pc, r3
a0006414:	e5832000 	str	r2, [r3]
a0006418:	e59d300c 	ldr	r3, [sp, #12]
a000641c:	e593202c 	ldr	r2, [r3, #44]	; 0x2c
a0006420:	e1a03002 	mov	r3, r2
a0006424:	e1a03103 	lsl	r3, r3, #2
a0006428:	e0833002 	add	r3, r3, r2
a000642c:	e1a03103 	lsl	r3, r3, #2
a0006430:	e59f2080 	ldr	r2, [pc, #128]	; a00064b8 <vTaskResume+0x138>
a0006434:	e08f2002 	add	r2, pc, r2
a0006438:	e0832002 	add	r2, r3, r2
a000643c:	e59d300c 	ldr	r3, [sp, #12]
a0006440:	e2833004 	add	r3, r3, #4
a0006444:	e1a00002 	mov	r0, r2
a0006448:	e1a01003 	mov	r1, r3
a000644c:	ebfff952 	bl	a000499c <vListInsertEnd>
a0006450:	e59d300c 	ldr	r3, [sp, #12]
a0006454:	e593202c 	ldr	r2, [r3, #44]	; 0x2c
a0006458:	e59f304c 	ldr	r3, [pc, #76]	; a00064ac <vTaskResume+0x12c>
a000645c:	e7943003 	ldr	r3, [r4, r3]
a0006460:	e5933000 	ldr	r3, [r3]
a0006464:	e593302c 	ldr	r3, [r3, #44]	; 0x2c
a0006468:	e1520003 	cmp	r2, r3
a000646c:	3a00000a 	bcc	a000649c <vTaskResume+0x11c>
a0006470:	e3a03c12 	mov	r3, #4608	; 0x1200
a0006474:	e3453004 	movt	r3, #20484	; 0x5004
a0006478:	e5933000 	ldr	r3, [r3]
a000647c:	e2033001 	and	r3, r3, #1
a0006480:	e3530000 	cmp	r3, #0
a0006484:	1a000004 	bne	a000649c <vTaskResume+0x11c>
a0006488:	e3a03c1f 	mov	r3, #7936	; 0x1f00
a000648c:	e3453004 	movt	r3, #20484	; 0x5004
a0006490:	e3a02001 	mov	r2, #1
a0006494:	e3402001 	movt	r2, #1
a0006498:	e5832000 	str	r2, [r3]
a000649c:	eb00062a 	bl	a0007d4c <vTaskExitCritical>
a00064a0:	e28dd010 	add	sp, sp, #16
a00064a4:	e8bd8010 	pop	{r4, pc}
a00064a8:	00003310 	andeq	r3, r0, r0, lsl r3
a00064ac:	00000000 	andeq	r0, r0, r0
a00064b0:	000036b0 			; <UNDEFINED> instruction: 0x000036b0
a00064b4:	00003694 	muleq	r0, r4, r6
a00064b8:	00003544 	andeq	r3, r0, r4, asr #10

a00064bc <xTaskResumeFromISR>:
a00064bc:	e92d4010 	push	{r4, lr}
a00064c0:	e24dd010 	sub	sp, sp, #16
a00064c4:	e58d0004 	str	r0, [sp, #4]
a00064c8:	e59f410c 	ldr	r4, [pc, #268]	; a00065dc <xTaskResumeFromISR+0x120>
a00064cc:	e08f4004 	add	r4, pc, r4
a00064d0:	e3a03000 	mov	r3, #0
a00064d4:	e58d300c 	str	r3, [sp, #12]
a00064d8:	e59d3004 	ldr	r3, [sp, #4]
a00064dc:	e58d3008 	str	r3, [sp, #8]
a00064e0:	e59d0008 	ldr	r0, [sp, #8]
a00064e4:	ebffff87 	bl	a0006308 <xTaskIsTaskSuspended>
a00064e8:	e1a03000 	mov	r3, r0
a00064ec:	e3530001 	cmp	r3, #1
a00064f0:	1a000035 	bne	a00065cc <xTaskResumeFromISR+0x110>
a00064f4:	e59f30e4 	ldr	r3, [pc, #228]	; a00065e0 <xTaskResumeFromISR+0x124>
a00064f8:	e08f3003 	add	r3, pc, r3
a00064fc:	e5933000 	ldr	r3, [r3]
a0006500:	e3530000 	cmp	r3, #0
a0006504:	1a000029 	bne	a00065b0 <xTaskResumeFromISR+0xf4>
a0006508:	e59d3008 	ldr	r3, [sp, #8]
a000650c:	e593202c 	ldr	r2, [r3, #44]	; 0x2c
a0006510:	e59f30cc 	ldr	r3, [pc, #204]	; a00065e4 <xTaskResumeFromISR+0x128>
a0006514:	e7943003 	ldr	r3, [r4, r3]
a0006518:	e5933000 	ldr	r3, [r3]
a000651c:	e593302c 	ldr	r3, [r3, #44]	; 0x2c
a0006520:	e1520003 	cmp	r2, r3
a0006524:	33a03000 	movcc	r3, #0
a0006528:	23a03001 	movcs	r3, #1
a000652c:	e6ef3073 	uxtb	r3, r3
a0006530:	e58d300c 	str	r3, [sp, #12]
a0006534:	e59d3008 	ldr	r3, [sp, #8]
a0006538:	e2833004 	add	r3, r3, #4
a000653c:	e1a00003 	mov	r0, r3
a0006540:	ebfff969 	bl	a0004aec <vListRemove>
a0006544:	e59d3008 	ldr	r3, [sp, #8]
a0006548:	e593202c 	ldr	r2, [r3, #44]	; 0x2c
a000654c:	e59f3094 	ldr	r3, [pc, #148]	; a00065e8 <xTaskResumeFromISR+0x12c>
a0006550:	e08f3003 	add	r3, pc, r3
a0006554:	e5933000 	ldr	r3, [r3]
a0006558:	e1520003 	cmp	r2, r3
a000655c:	9a000004 	bls	a0006574 <xTaskResumeFromISR+0xb8>
a0006560:	e59d3008 	ldr	r3, [sp, #8]
a0006564:	e593202c 	ldr	r2, [r3, #44]	; 0x2c
a0006568:	e59f307c 	ldr	r3, [pc, #124]	; a00065ec <xTaskResumeFromISR+0x130>
a000656c:	e08f3003 	add	r3, pc, r3
a0006570:	e5832000 	str	r2, [r3]
a0006574:	e59d3008 	ldr	r3, [sp, #8]
a0006578:	e593202c 	ldr	r2, [r3, #44]	; 0x2c
a000657c:	e1a03002 	mov	r3, r2
a0006580:	e1a03103 	lsl	r3, r3, #2
a0006584:	e0833002 	add	r3, r3, r2
a0006588:	e1a03103 	lsl	r3, r3, #2
a000658c:	e59f205c 	ldr	r2, [pc, #92]	; a00065f0 <xTaskResumeFromISR+0x134>
a0006590:	e08f2002 	add	r2, pc, r2
a0006594:	e0832002 	add	r2, r3, r2
a0006598:	e59d3008 	ldr	r3, [sp, #8]
a000659c:	e2833004 	add	r3, r3, #4
a00065a0:	e1a00002 	mov	r0, r2
a00065a4:	e1a01003 	mov	r1, r3
a00065a8:	ebfff8fb 	bl	a000499c <vListInsertEnd>
a00065ac:	ea000006 	b	a00065cc <xTaskResumeFromISR+0x110>
a00065b0:	e59d3008 	ldr	r3, [sp, #8]
a00065b4:	e2833018 	add	r3, r3, #24
a00065b8:	e59f2034 	ldr	r2, [pc, #52]	; a00065f4 <xTaskResumeFromISR+0x138>
a00065bc:	e08f2002 	add	r2, pc, r2
a00065c0:	e1a00002 	mov	r0, r2
a00065c4:	e1a01003 	mov	r1, r3
a00065c8:	ebfff8f3 	bl	a000499c <vListInsertEnd>
a00065cc:	e59d300c 	ldr	r3, [sp, #12]
a00065d0:	e1a00003 	mov	r0, r3
a00065d4:	e28dd010 	add	sp, sp, #16
a00065d8:	e8bd8010 	pop	{r4, pc}
a00065dc:	000031d4 	ldrdeq	r3, [r0], -r4
a00065e0:	000035b4 			; <UNDEFINED> instruction: 0x000035b4
a00065e4:	00000000 	andeq	r0, r0, r0
a00065e8:	00003554 	andeq	r3, r0, r4, asr r5
a00065ec:	00003538 	andeq	r3, r0, r8, lsr r5
a00065f0:	000033e8 	andeq	r3, r0, r8, ror #7
a00065f4:	000034b4 			; <UNDEFINED> instruction: 0x000034b4

a00065f8 <vTaskStartScheduler>:
a00065f8:	e52de004 	push	{lr}		; (str lr, [sp, #-4]!)
a00065fc:	e24dd01c 	sub	sp, sp, #28
a0006600:	e3a03000 	mov	r3, #0
a0006604:	e58d3000 	str	r3, [sp]
a0006608:	e3a03000 	mov	r3, #0
a000660c:	e58d3004 	str	r3, [sp, #4]
a0006610:	e3a03000 	mov	r3, #0
a0006614:	e58d3008 	str	r3, [sp, #8]
a0006618:	e3a03000 	mov	r3, #0
a000661c:	e58d300c 	str	r3, [sp, #12]
a0006620:	e59f3070 	ldr	r3, [pc, #112]	; a0006698 <vTaskStartScheduler+0xa0>
a0006624:	e08f3003 	add	r3, pc, r3
a0006628:	e1a00003 	mov	r0, r3
a000662c:	e59f3068 	ldr	r3, [pc, #104]	; a000669c <vTaskStartScheduler+0xa4>
a0006630:	e08f3003 	add	r3, pc, r3
a0006634:	e1a01003 	mov	r1, r3
a0006638:	e3a02b01 	mov	r2, #1024	; 0x400
a000663c:	e3a03000 	mov	r3, #0
a0006640:	ebfffcfe 	bl	a0005a40 <xTaskGenericCreate>
a0006644:	e58d0014 	str	r0, [sp, #20]
a0006648:	e59d3014 	ldr	r3, [sp, #20]
a000664c:	e3530001 	cmp	r3, #1
a0006650:	1a000001 	bne	a000665c <vTaskStartScheduler+0x64>
a0006654:	eb0005dc 	bl	a0007dcc <xTimerCreateTimerTask>
a0006658:	e58d0014 	str	r0, [sp, #20]
a000665c:	e59d3014 	ldr	r3, [sp, #20]
a0006660:	e3530001 	cmp	r3, #1
a0006664:	1a000009 	bne	a0006690 <vTaskStartScheduler+0x98>
a0006668:	eb000ab6 	bl	a0009148 <xPortSetInterruptMask>
a000666c:	e59f302c 	ldr	r3, [pc, #44]	; a00066a0 <vTaskStartScheduler+0xa8>
a0006670:	e08f3003 	add	r3, pc, r3
a0006674:	e3a02001 	mov	r2, #1
a0006678:	e5832000 	str	r2, [r3]
a000667c:	e59f3020 	ldr	r3, [pc, #32]	; a00066a4 <vTaskStartScheduler+0xac>
a0006680:	e08f3003 	add	r3, pc, r3
a0006684:	e3a02000 	mov	r2, #0
a0006688:	e5832000 	str	r2, [r3]
a000668c:	eb000924 	bl	a0008b24 <xPortStartScheduler>
a0006690:	e28dd01c 	add	sp, sp, #28
a0006694:	e49df004 	pop	{pc}		; (ldr pc, [sp], #4)
a0006698:	00000ef0 	strdeq	r0, [r0], -r0	; <UNPREDICTABLE>
a000669c:	00002f90 	muleq	r0, r0, pc	; <UNPREDICTABLE>
a00066a0:	00003438 	andeq	r3, r0, r8, lsr r4
a00066a4:	0000341c 	andeq	r3, r0, ip, lsl r4

a00066a8 <vTaskEndScheduler>:
a00066a8:	e92d4008 	push	{r3, lr}
a00066ac:	eb000aa5 	bl	a0009148 <xPortSetInterruptMask>
a00066b0:	e59f3010 	ldr	r3, [pc, #16]	; a00066c8 <vTaskEndScheduler+0x20>
a00066b4:	e08f3003 	add	r3, pc, r3
a00066b8:	e3a02000 	mov	r2, #0
a00066bc:	e5832000 	str	r2, [r3]
a00066c0:	eb000944 	bl	a0008bd8 <vPortEndScheduler>
a00066c4:	e8bd8008 	pop	{r3, pc}
a00066c8:	000033f4 	strdeq	r3, [r0], -r4

a00066cc <vTaskSuspendAll>:
a00066cc:	e59f3018 	ldr	r3, [pc, #24]	; a00066ec <vTaskSuspendAll+0x20>
a00066d0:	e08f3003 	add	r3, pc, r3
a00066d4:	e5933000 	ldr	r3, [r3]
a00066d8:	e2832001 	add	r2, r3, #1
a00066dc:	e59f300c 	ldr	r3, [pc, #12]	; a00066f0 <vTaskSuspendAll+0x24>
a00066e0:	e08f3003 	add	r3, pc, r3
a00066e4:	e5832000 	str	r2, [r3]
a00066e8:	e12fff1e 	bx	lr
a00066ec:	000033dc 	ldrdeq	r3, [r0], -ip
a00066f0:	000033cc 	andeq	r3, r0, ip, asr #7

a00066f4 <xTaskResumeAll>:
a00066f4:	e92d4030 	push	{r4, r5, lr}
a00066f8:	e24dd00c 	sub	sp, sp, #12
a00066fc:	e59f51e0 	ldr	r5, [pc, #480]	; a00068e4 <xTaskResumeAll+0x1f0>
a0006700:	e08f5005 	add	r5, pc, r5
a0006704:	e3a03000 	mov	r3, #0
a0006708:	e58d3004 	str	r3, [sp, #4]
a000670c:	eb00057b 	bl	a0007d00 <vTaskEnterCritical>
a0006710:	e59f31d0 	ldr	r3, [pc, #464]	; a00068e8 <xTaskResumeAll+0x1f4>
a0006714:	e08f3003 	add	r3, pc, r3
a0006718:	e5933000 	ldr	r3, [r3]
a000671c:	e2432001 	sub	r2, r3, #1
a0006720:	e59f31c4 	ldr	r3, [pc, #452]	; a00068ec <xTaskResumeAll+0x1f8>
a0006724:	e08f3003 	add	r3, pc, r3
a0006728:	e5832000 	str	r2, [r3]
a000672c:	e59f31bc 	ldr	r3, [pc, #444]	; a00068f0 <xTaskResumeAll+0x1fc>
a0006730:	e08f3003 	add	r3, pc, r3
a0006734:	e5933000 	ldr	r3, [r3]
a0006738:	e3530000 	cmp	r3, #0
a000673c:	1a000063 	bne	a00068d0 <xTaskResumeAll+0x1dc>
a0006740:	e59f31ac 	ldr	r3, [pc, #428]	; a00068f4 <xTaskResumeAll+0x200>
a0006744:	e08f3003 	add	r3, pc, r3
a0006748:	e5933000 	ldr	r3, [r3]
a000674c:	e3530000 	cmp	r3, #0
a0006750:	0a00005e 	beq	a00068d0 <xTaskResumeAll+0x1dc>
a0006754:	e3a03000 	mov	r3, #0
a0006758:	e58d3000 	str	r3, [sp]
a000675c:	ea000028 	b	a0006804 <xTaskResumeAll+0x110>
a0006760:	e59f3190 	ldr	r3, [pc, #400]	; a00068f8 <xTaskResumeAll+0x204>
a0006764:	e08f3003 	add	r3, pc, r3
a0006768:	e593300c 	ldr	r3, [r3, #12]
a000676c:	e593400c 	ldr	r4, [r3, #12]
a0006770:	e2843018 	add	r3, r4, #24
a0006774:	e1a00003 	mov	r0, r3
a0006778:	ebfff8db 	bl	a0004aec <vListRemove>
a000677c:	e2843004 	add	r3, r4, #4
a0006780:	e1a00003 	mov	r0, r3
a0006784:	ebfff8d8 	bl	a0004aec <vListRemove>
a0006788:	e594202c 	ldr	r2, [r4, #44]	; 0x2c
a000678c:	e59f3168 	ldr	r3, [pc, #360]	; a00068fc <xTaskResumeAll+0x208>
a0006790:	e08f3003 	add	r3, pc, r3
a0006794:	e5933000 	ldr	r3, [r3]
a0006798:	e1520003 	cmp	r2, r3
a000679c:	9a000003 	bls	a00067b0 <xTaskResumeAll+0xbc>
a00067a0:	e594202c 	ldr	r2, [r4, #44]	; 0x2c
a00067a4:	e59f3154 	ldr	r3, [pc, #340]	; a0006900 <xTaskResumeAll+0x20c>
a00067a8:	e08f3003 	add	r3, pc, r3
a00067ac:	e5832000 	str	r2, [r3]
a00067b0:	e594202c 	ldr	r2, [r4, #44]	; 0x2c
a00067b4:	e1a03002 	mov	r3, r2
a00067b8:	e1a03103 	lsl	r3, r3, #2
a00067bc:	e0833002 	add	r3, r3, r2
a00067c0:	e1a03103 	lsl	r3, r3, #2
a00067c4:	e59f2138 	ldr	r2, [pc, #312]	; a0006904 <xTaskResumeAll+0x210>
a00067c8:	e08f2002 	add	r2, pc, r2
a00067cc:	e0832002 	add	r2, r3, r2
a00067d0:	e2843004 	add	r3, r4, #4
a00067d4:	e1a00002 	mov	r0, r2
a00067d8:	e1a01003 	mov	r1, r3
a00067dc:	ebfff86e 	bl	a000499c <vListInsertEnd>
a00067e0:	e594202c 	ldr	r2, [r4, #44]	; 0x2c
a00067e4:	e59f311c 	ldr	r3, [pc, #284]	; a0006908 <xTaskResumeAll+0x214>
a00067e8:	e7953003 	ldr	r3, [r5, r3]
a00067ec:	e5933000 	ldr	r3, [r3]
a00067f0:	e593302c 	ldr	r3, [r3, #44]	; 0x2c
a00067f4:	e1520003 	cmp	r2, r3
a00067f8:	3a000001 	bcc	a0006804 <xTaskResumeAll+0x110>
a00067fc:	e3a03001 	mov	r3, #1
a0006800:	e58d3000 	str	r3, [sp]
a0006804:	e59f3100 	ldr	r3, [pc, #256]	; a000690c <xTaskResumeAll+0x218>
a0006808:	e08f3003 	add	r3, pc, r3
a000680c:	e5933000 	ldr	r3, [r3]
a0006810:	e3530000 	cmp	r3, #0
a0006814:	1affffd1 	bne	a0006760 <xTaskResumeAll+0x6c>
a0006818:	e59f30f0 	ldr	r3, [pc, #240]	; a0006910 <xTaskResumeAll+0x21c>
a000681c:	e08f3003 	add	r3, pc, r3
a0006820:	e5933000 	ldr	r3, [r3]
a0006824:	e3530000 	cmp	r3, #0
a0006828:	0a00000f 	beq	a000686c <xTaskResumeAll+0x178>
a000682c:	ea000007 	b	a0006850 <xTaskResumeAll+0x15c>
a0006830:	eb0000f7 	bl	a0006c14 <vTaskIncrementTick>
a0006834:	e59f30d8 	ldr	r3, [pc, #216]	; a0006914 <xTaskResumeAll+0x220>
a0006838:	e08f3003 	add	r3, pc, r3
a000683c:	e5933000 	ldr	r3, [r3]
a0006840:	e2432001 	sub	r2, r3, #1
a0006844:	e59f30cc 	ldr	r3, [pc, #204]	; a0006918 <xTaskResumeAll+0x224>
a0006848:	e08f3003 	add	r3, pc, r3
a000684c:	e5832000 	str	r2, [r3]
a0006850:	e59f30c4 	ldr	r3, [pc, #196]	; a000691c <xTaskResumeAll+0x228>
a0006854:	e08f3003 	add	r3, pc, r3
a0006858:	e5933000 	ldr	r3, [r3]
a000685c:	e3530000 	cmp	r3, #0
a0006860:	1afffff2 	bne	a0006830 <xTaskResumeAll+0x13c>
a0006864:	e3a03001 	mov	r3, #1
a0006868:	e58d3000 	str	r3, [sp]
a000686c:	e59d3000 	ldr	r3, [sp]
a0006870:	e3530001 	cmp	r3, #1
a0006874:	0a000004 	beq	a000688c <xTaskResumeAll+0x198>
a0006878:	e59f30a0 	ldr	r3, [pc, #160]	; a0006920 <xTaskResumeAll+0x22c>
a000687c:	e08f3003 	add	r3, pc, r3
a0006880:	e5933000 	ldr	r3, [r3]
a0006884:	e3530001 	cmp	r3, #1
a0006888:	1a000010 	bne	a00068d0 <xTaskResumeAll+0x1dc>
a000688c:	e3a03001 	mov	r3, #1
a0006890:	e58d3004 	str	r3, [sp, #4]
a0006894:	e59f3088 	ldr	r3, [pc, #136]	; a0006924 <xTaskResumeAll+0x230>
a0006898:	e08f3003 	add	r3, pc, r3
a000689c:	e3a02000 	mov	r2, #0
a00068a0:	e5832000 	str	r2, [r3]
a00068a4:	e3a03c12 	mov	r3, #4608	; 0x1200
a00068a8:	e3453004 	movt	r3, #20484	; 0x5004
a00068ac:	e5933000 	ldr	r3, [r3]
a00068b0:	e2033001 	and	r3, r3, #1
a00068b4:	e3530000 	cmp	r3, #0
a00068b8:	1a000004 	bne	a00068d0 <xTaskResumeAll+0x1dc>
a00068bc:	e3a03c1f 	mov	r3, #7936	; 0x1f00
a00068c0:	e3453004 	movt	r3, #20484	; 0x5004
a00068c4:	e3a02001 	mov	r2, #1
a00068c8:	e3402001 	movt	r2, #1
a00068cc:	e5832000 	str	r2, [r3]
a00068d0:	eb00051d 	bl	a0007d4c <vTaskExitCritical>
a00068d4:	e59d3004 	ldr	r3, [sp, #4]
a00068d8:	e1a00003 	mov	r0, r3
a00068dc:	e28dd00c 	add	sp, sp, #12
a00068e0:	e8bd8030 	pop	{r4, r5, pc}
a00068e4:	00002fa0 	andeq	r2, r0, r0, lsr #31
a00068e8:	00003398 	muleq	r0, r8, r3
a00068ec:	00003388 	andeq	r3, r0, r8, lsl #7
a00068f0:	0000337c 	andeq	r3, r0, ip, ror r3
a00068f4:	00003354 	andeq	r3, r0, r4, asr r3
a00068f8:	0000330c 	andeq	r3, r0, ip, lsl #6
a00068fc:	00003314 	andeq	r3, r0, r4, lsl r3
a0006900:	000032fc 	strdeq	r3, [r0], -ip
a0006904:	000031b0 			; <UNDEFINED> instruction: 0x000031b0
a0006908:	00000000 	andeq	r0, r0, r0
a000690c:	00003268 	andeq	r3, r0, r8, ror #4
a0006910:	00003294 	muleq	r0, r4, r2
a0006914:	00003278 	andeq	r3, r0, r8, ror r2
a0006918:	00003268 	andeq	r3, r0, r8, ror #4
a000691c:	0000325c 	andeq	r3, r0, ip, asr r2
a0006920:	00003238 	andeq	r3, r0, r8, lsr r2
a0006924:	0000321c 	andeq	r3, r0, ip, lsl r2

a0006928 <xTaskGetTickCount>:
a0006928:	e52de004 	push	{lr}		; (str lr, [sp, #-4]!)
a000692c:	e24dd00c 	sub	sp, sp, #12
a0006930:	eb0004f2 	bl	a0007d00 <vTaskEnterCritical>
a0006934:	e59f301c 	ldr	r3, [pc, #28]	; a0006958 <xTaskGetTickCount+0x30>
a0006938:	e08f3003 	add	r3, pc, r3
a000693c:	e5933000 	ldr	r3, [r3]
a0006940:	e58d3004 	str	r3, [sp, #4]
a0006944:	eb000500 	bl	a0007d4c <vTaskExitCritical>
a0006948:	e59d3004 	ldr	r3, [sp, #4]
a000694c:	e1a00003 	mov	r0, r3
a0006950:	e28dd00c 	add	sp, sp, #12
a0006954:	e49df004 	pop	{pc}		; (ldr pc, [sp], #4)
a0006958:	00003164 	andeq	r3, r0, r4, ror #2

a000695c <xTaskGetTickCountFromISR>:
a000695c:	e52de004 	push	{lr}		; (str lr, [sp, #-4]!)
a0006960:	e24dd00c 	sub	sp, sp, #12
a0006964:	eb0009f7 	bl	a0009148 <xPortSetInterruptMask>
a0006968:	e1a03000 	mov	r3, r0
a000696c:	e58d3004 	str	r3, [sp, #4]
a0006970:	e59f3024 	ldr	r3, [pc, #36]	; a000699c <xTaskGetTickCountFromISR+0x40>
a0006974:	e08f3003 	add	r3, pc, r3
a0006978:	e5933000 	ldr	r3, [r3]
a000697c:	e58d3000 	str	r3, [sp]
a0006980:	e59d3004 	ldr	r3, [sp, #4]
a0006984:	e1a00003 	mov	r0, r3
a0006988:	eb0009fb 	bl	a000917c <vPortClearInterruptMask>
a000698c:	e59d3000 	ldr	r3, [sp]
a0006990:	e1a00003 	mov	r0, r3
a0006994:	e28dd00c 	add	sp, sp, #12
a0006998:	e49df004 	pop	{pc}		; (ldr pc, [sp], #4)
a000699c:	00003128 	andeq	r3, r0, r8, lsr #2

a00069a0 <uxTaskGetNumberOfTasks>:
a00069a0:	e59f300c 	ldr	r3, [pc, #12]	; a00069b4 <uxTaskGetNumberOfTasks+0x14>
a00069a4:	e08f3003 	add	r3, pc, r3
a00069a8:	e5933000 	ldr	r3, [r3]
a00069ac:	e1a00003 	mov	r0, r3
a00069b0:	e12fff1e 	bx	lr
a00069b4:	000030f4 	strdeq	r3, [r0], -r4

a00069b8 <vTaskList>:
a00069b8:	e52de004 	push	{lr}		; (str lr, [sp, #-4]!)
a00069bc:	e24dd014 	sub	sp, sp, #20
a00069c0:	e58d0004 	str	r0, [sp, #4]
a00069c4:	ebffff40 	bl	a00066cc <vTaskSuspendAll>
a00069c8:	e59d3004 	ldr	r3, [sp, #4]
a00069cc:	e3a02000 	mov	r2, #0
a00069d0:	e5c32000 	strb	r2, [r3]
a00069d4:	e59d0004 	ldr	r0, [sp, #4]
a00069d8:	e59f3130 	ldr	r3, [pc, #304]	; a0006b10 <vTaskList+0x158>
a00069dc:	e08f3003 	add	r3, pc, r3
a00069e0:	e1a01003 	mov	r1, r3
a00069e4:	ebffeedc 	bl	a000255c <strcat>
a00069e8:	e59f3124 	ldr	r3, [pc, #292]	; a0006b14 <vTaskList+0x15c>
a00069ec:	e08f3003 	add	r3, pc, r3
a00069f0:	e5933000 	ldr	r3, [r3]
a00069f4:	e2833001 	add	r3, r3, #1
a00069f8:	e58d300c 	str	r3, [sp, #12]
a00069fc:	e59d300c 	ldr	r3, [sp, #12]
a0006a00:	e2433001 	sub	r3, r3, #1
a0006a04:	e58d300c 	str	r3, [sp, #12]
a0006a08:	e59f1108 	ldr	r1, [pc, #264]	; a0006b18 <vTaskList+0x160>
a0006a0c:	e08f1001 	add	r1, pc, r1
a0006a10:	e59d200c 	ldr	r2, [sp, #12]
a0006a14:	e1a03002 	mov	r3, r2
a0006a18:	e1a03103 	lsl	r3, r3, #2
a0006a1c:	e0833002 	add	r3, r3, r2
a0006a20:	e1a03103 	lsl	r3, r3, #2
a0006a24:	e0813003 	add	r3, r1, r3
a0006a28:	e5933000 	ldr	r3, [r3]
a0006a2c:	e3530000 	cmp	r3, #0
a0006a30:	0a00000b 	beq	a0006a64 <vTaskList+0xac>
a0006a34:	e59d200c 	ldr	r2, [sp, #12]
a0006a38:	e1a03002 	mov	r3, r2
a0006a3c:	e1a03103 	lsl	r3, r3, #2
a0006a40:	e0833002 	add	r3, r3, r2
a0006a44:	e1a03103 	lsl	r3, r3, #2
a0006a48:	e59f20cc 	ldr	r2, [pc, #204]	; a0006b1c <vTaskList+0x164>
a0006a4c:	e08f2002 	add	r2, pc, r2
a0006a50:	e0833002 	add	r3, r3, r2
a0006a54:	e59d0004 	ldr	r0, [sp, #4]
a0006a58:	e1a01003 	mov	r1, r3
a0006a5c:	e3a02052 	mov	r2, #82	; 0x52
a0006a60:	eb000383 	bl	a0007874 <prvListTaskWithinSingleList>
a0006a64:	e59d300c 	ldr	r3, [sp, #12]
a0006a68:	e3530000 	cmp	r3, #0
a0006a6c:	1affffe2 	bne	a00069fc <vTaskList+0x44>
a0006a70:	e59f30a8 	ldr	r3, [pc, #168]	; a0006b20 <vTaskList+0x168>
a0006a74:	e08f3003 	add	r3, pc, r3
a0006a78:	e5933000 	ldr	r3, [r3]
a0006a7c:	e5933000 	ldr	r3, [r3]
a0006a80:	e3530000 	cmp	r3, #0
a0006a84:	0a000006 	beq	a0006aa4 <vTaskList+0xec>
a0006a88:	e59f3094 	ldr	r3, [pc, #148]	; a0006b24 <vTaskList+0x16c>
a0006a8c:	e08f3003 	add	r3, pc, r3
a0006a90:	e5933000 	ldr	r3, [r3]
a0006a94:	e59d0004 	ldr	r0, [sp, #4]
a0006a98:	e1a01003 	mov	r1, r3
a0006a9c:	e3a02042 	mov	r2, #66	; 0x42
a0006aa0:	eb000373 	bl	a0007874 <prvListTaskWithinSingleList>
a0006aa4:	e59f307c 	ldr	r3, [pc, #124]	; a0006b28 <vTaskList+0x170>
a0006aa8:	e08f3003 	add	r3, pc, r3
a0006aac:	e5933000 	ldr	r3, [r3]
a0006ab0:	e5933000 	ldr	r3, [r3]
a0006ab4:	e3530000 	cmp	r3, #0
a0006ab8:	0a000006 	beq	a0006ad8 <vTaskList+0x120>
a0006abc:	e59f3068 	ldr	r3, [pc, #104]	; a0006b2c <vTaskList+0x174>
a0006ac0:	e08f3003 	add	r3, pc, r3
a0006ac4:	e5933000 	ldr	r3, [r3]
a0006ac8:	e59d0004 	ldr	r0, [sp, #4]
a0006acc:	e1a01003 	mov	r1, r3
a0006ad0:	e3a02042 	mov	r2, #66	; 0x42
a0006ad4:	eb000366 	bl	a0007874 <prvListTaskWithinSingleList>
a0006ad8:	e59f3050 	ldr	r3, [pc, #80]	; a0006b30 <vTaskList+0x178>
a0006adc:	e08f3003 	add	r3, pc, r3
a0006ae0:	e5933000 	ldr	r3, [r3]
a0006ae4:	e3530000 	cmp	r3, #0
a0006ae8:	0a000005 	beq	a0006b04 <vTaskList+0x14c>
a0006aec:	e59d0004 	ldr	r0, [sp, #4]
a0006af0:	e59f303c 	ldr	r3, [pc, #60]	; a0006b34 <vTaskList+0x17c>
a0006af4:	e08f3003 	add	r3, pc, r3
a0006af8:	e1a01003 	mov	r1, r3
a0006afc:	e3a02053 	mov	r2, #83	; 0x53
a0006b00:	eb00035b 	bl	a0007874 <prvListTaskWithinSingleList>
a0006b04:	ebfffefa 	bl	a00066f4 <xTaskResumeAll>
a0006b08:	e28dd014 	add	sp, sp, #20
a0006b0c:	e49df004 	pop	{pc}		; (ldr pc, [sp], #4)
a0006b10:	00002bec 	andeq	r2, r0, ip, ror #23
a0006b14:	000030b4 	strheq	r3, [r0], -r4
a0006b18:	00002f6c 	andeq	r2, r0, ip, ror #30
a0006b1c:	00002f2c 	andeq	r2, r0, ip, lsr #30
a0006b20:	00002ff4 	strdeq	r2, [r0], -r4
a0006b24:	00002fdc 	ldrdeq	r2, [r0], -ip
a0006b28:	00002fc4 	andeq	r2, r0, r4, asr #31
a0006b2c:	00002fac 	andeq	r2, r0, ip, lsr #31
a0006b30:	00002fa8 	andeq	r2, r0, r8, lsr #31
a0006b34:	00002f90 	muleq	r0, r0, pc	; <UNPREDICTABLE>

a0006b38 <vTaskStartTrace>:
a0006b38:	e52de004 	push	{lr}		; (str lr, [sp, #-4]!)
a0006b3c:	e24dd00c 	sub	sp, sp, #12
a0006b40:	e58d0004 	str	r0, [sp, #4]
a0006b44:	e58d1000 	str	r1, [sp]
a0006b48:	eb00046c 	bl	a0007d00 <vTaskEnterCritical>
a0006b4c:	e59f3050 	ldr	r3, [pc, #80]	; a0006ba4 <vTaskStartTrace+0x6c>
a0006b50:	e08f3003 	add	r3, pc, r3
a0006b54:	e59d2004 	ldr	r2, [sp, #4]
a0006b58:	e5832000 	str	r2, [r3]
a0006b5c:	e59f3044 	ldr	r3, [pc, #68]	; a0006ba8 <vTaskStartTrace+0x70>
a0006b60:	e08f3003 	add	r3, pc, r3
a0006b64:	e59d2004 	ldr	r2, [sp, #4]
a0006b68:	e5832000 	str	r2, [r3]
a0006b6c:	e59d3000 	ldr	r3, [sp]
a0006b70:	e2433008 	sub	r3, r3, #8
a0006b74:	e59d2004 	ldr	r2, [sp, #4]
a0006b78:	e0822003 	add	r2, r2, r3
a0006b7c:	e59f3028 	ldr	r3, [pc, #40]	; a0006bac <vTaskStartTrace+0x74>
a0006b80:	e08f3003 	add	r3, pc, r3
a0006b84:	e5832000 	str	r2, [r3]
a0006b88:	e59f3020 	ldr	r3, [pc, #32]	; a0006bb0 <vTaskStartTrace+0x78>
a0006b8c:	e08f3003 	add	r3, pc, r3
a0006b90:	e3a02001 	mov	r2, #1
a0006b94:	e5832000 	str	r2, [r3]
a0006b98:	eb00046b 	bl	a0007d4c <vTaskExitCritical>
a0006b9c:	e28dd00c 	add	sp, sp, #12
a0006ba0:	e49df004 	pop	{pc}		; (ldr pc, [sp], #4)
a0006ba4:	00002f70 	andeq	r2, r0, r0, ror pc
a0006ba8:	00002f64 	andeq	r2, r0, r4, ror #30
a0006bac:	00002f48 	andeq	r2, r0, r8, asr #30
a0006bb0:	00002f40 	andeq	r2, r0, r0, asr #30

a0006bb4 <ulTaskEndTrace>:
a0006bb4:	e52de004 	push	{lr}		; (str lr, [sp, #-4]!)
a0006bb8:	e24dd00c 	sub	sp, sp, #12
a0006bbc:	eb00044f 	bl	a0007d00 <vTaskEnterCritical>
a0006bc0:	e59f3040 	ldr	r3, [pc, #64]	; a0006c08 <ulTaskEndTrace+0x54>
a0006bc4:	e08f3003 	add	r3, pc, r3
a0006bc8:	e3a02000 	mov	r2, #0
a0006bcc:	e5832000 	str	r2, [r3]
a0006bd0:	eb00045d 	bl	a0007d4c <vTaskExitCritical>
a0006bd4:	e59f3030 	ldr	r3, [pc, #48]	; a0006c0c <ulTaskEndTrace+0x58>
a0006bd8:	e08f3003 	add	r3, pc, r3
a0006bdc:	e5933000 	ldr	r3, [r3]
a0006be0:	e1a02003 	mov	r2, r3
a0006be4:	e59f3024 	ldr	r3, [pc, #36]	; a0006c10 <ulTaskEndTrace+0x5c>
a0006be8:	e08f3003 	add	r3, pc, r3
a0006bec:	e5933000 	ldr	r3, [r3]
a0006bf0:	e0633002 	rsb	r3, r3, r2
a0006bf4:	e58d3004 	str	r3, [sp, #4]
a0006bf8:	e59d3004 	ldr	r3, [sp, #4]
a0006bfc:	e1a00003 	mov	r0, r3
a0006c00:	e28dd00c 	add	sp, sp, #12
a0006c04:	e49df004 	pop	{pc}		; (ldr pc, [sp], #4)
a0006c08:	00002f08 	andeq	r2, r0, r8, lsl #30
a0006c0c:	00002ee8 	andeq	r2, r0, r8, ror #29
a0006c10:	00002edc 	ldrdeq	r2, [r0], -ip

a0006c14 <vTaskIncrementTick>:
a0006c14:	e52de004 	push	{lr}		; (str lr, [sp, #-4]!)
a0006c18:	e24dd014 	sub	sp, sp, #20
a0006c1c:	e59f3248 	ldr	r3, [pc, #584]	; a0006e6c <vTaskIncrementTick+0x258>
a0006c20:	e08f3003 	add	r3, pc, r3
a0006c24:	e5933000 	ldr	r3, [r3]
a0006c28:	e3530000 	cmp	r3, #0
a0006c2c:	1a000085 	bne	a0006e48 <vTaskIncrementTick+0x234>
a0006c30:	e59f3238 	ldr	r3, [pc, #568]	; a0006e70 <vTaskIncrementTick+0x25c>
a0006c34:	e08f3003 	add	r3, pc, r3
a0006c38:	e5933000 	ldr	r3, [r3]
a0006c3c:	e2832001 	add	r2, r3, #1
a0006c40:	e59f322c 	ldr	r3, [pc, #556]	; a0006e74 <vTaskIncrementTick+0x260>
a0006c44:	e08f3003 	add	r3, pc, r3
a0006c48:	e5832000 	str	r2, [r3]
a0006c4c:	e59f3224 	ldr	r3, [pc, #548]	; a0006e78 <vTaskIncrementTick+0x264>
a0006c50:	e08f3003 	add	r3, pc, r3
a0006c54:	e5933000 	ldr	r3, [r3]
a0006c58:	e3530000 	cmp	r3, #0
a0006c5c:	1a00002a 	bne	a0006d0c <vTaskIncrementTick+0xf8>
a0006c60:	e59f3214 	ldr	r3, [pc, #532]	; a0006e7c <vTaskIncrementTick+0x268>
a0006c64:	e08f3003 	add	r3, pc, r3
a0006c68:	e5933000 	ldr	r3, [r3]
a0006c6c:	e58d300c 	str	r3, [sp, #12]
a0006c70:	e59f3208 	ldr	r3, [pc, #520]	; a0006e80 <vTaskIncrementTick+0x26c>
a0006c74:	e08f3003 	add	r3, pc, r3
a0006c78:	e5932000 	ldr	r2, [r3]
a0006c7c:	e59f3200 	ldr	r3, [pc, #512]	; a0006e84 <vTaskIncrementTick+0x270>
a0006c80:	e08f3003 	add	r3, pc, r3
a0006c84:	e5832000 	str	r2, [r3]
a0006c88:	e59f31f8 	ldr	r3, [pc, #504]	; a0006e88 <vTaskIncrementTick+0x274>
a0006c8c:	e08f3003 	add	r3, pc, r3
a0006c90:	e59d200c 	ldr	r2, [sp, #12]
a0006c94:	e5832000 	str	r2, [r3]
a0006c98:	e59f31ec 	ldr	r3, [pc, #492]	; a0006e8c <vTaskIncrementTick+0x278>
a0006c9c:	e08f3003 	add	r3, pc, r3
a0006ca0:	e5933000 	ldr	r3, [r3]
a0006ca4:	e2832001 	add	r2, r3, #1
a0006ca8:	e59f31e0 	ldr	r3, [pc, #480]	; a0006e90 <vTaskIncrementTick+0x27c>
a0006cac:	e08f3003 	add	r3, pc, r3
a0006cb0:	e5832000 	str	r2, [r3]
a0006cb4:	e59f31d8 	ldr	r3, [pc, #472]	; a0006e94 <vTaskIncrementTick+0x280>
a0006cb8:	e08f3003 	add	r3, pc, r3
a0006cbc:	e5933000 	ldr	r3, [r3]
a0006cc0:	e5933000 	ldr	r3, [r3]
a0006cc4:	e3530000 	cmp	r3, #0
a0006cc8:	1a000004 	bne	a0006ce0 <vTaskIncrementTick+0xcc>
a0006ccc:	e59f31c4 	ldr	r3, [pc, #452]	; a0006e98 <vTaskIncrementTick+0x284>
a0006cd0:	e08f3003 	add	r3, pc, r3
a0006cd4:	e3e02000 	mvn	r2, #0
a0006cd8:	e5832000 	str	r2, [r3]
a0006cdc:	ea00000a 	b	a0006d0c <vTaskIncrementTick+0xf8>
a0006ce0:	e59f31b4 	ldr	r3, [pc, #436]	; a0006e9c <vTaskIncrementTick+0x288>
a0006ce4:	e08f3003 	add	r3, pc, r3
a0006ce8:	e5933000 	ldr	r3, [r3]
a0006cec:	e593300c 	ldr	r3, [r3, #12]
a0006cf0:	e593300c 	ldr	r3, [r3, #12]
a0006cf4:	e58d3008 	str	r3, [sp, #8]
a0006cf8:	e59d3008 	ldr	r3, [sp, #8]
a0006cfc:	e5932004 	ldr	r2, [r3, #4]
a0006d00:	e59f3198 	ldr	r3, [pc, #408]	; a0006ea0 <vTaskIncrementTick+0x28c>
a0006d04:	e08f3003 	add	r3, pc, r3
a0006d08:	e5832000 	str	r2, [r3]
a0006d0c:	e59f3190 	ldr	r3, [pc, #400]	; a0006ea4 <vTaskIncrementTick+0x290>
a0006d10:	e08f3003 	add	r3, pc, r3
a0006d14:	e5932000 	ldr	r2, [r3]
a0006d18:	e59f3188 	ldr	r3, [pc, #392]	; a0006ea8 <vTaskIncrementTick+0x294>
a0006d1c:	e08f3003 	add	r3, pc, r3
a0006d20:	e5933000 	ldr	r3, [r3]
a0006d24:	e1520003 	cmp	r2, r3
a0006d28:	3a000045 	bcc	a0006e44 <vTaskIncrementTick+0x230>
a0006d2c:	e59f3178 	ldr	r3, [pc, #376]	; a0006eac <vTaskIncrementTick+0x298>
a0006d30:	e08f3003 	add	r3, pc, r3
a0006d34:	e5933000 	ldr	r3, [r3]
a0006d38:	e5933000 	ldr	r3, [r3]
a0006d3c:	e3530000 	cmp	r3, #0
a0006d40:	1a000004 	bne	a0006d58 <vTaskIncrementTick+0x144>
a0006d44:	e59f3164 	ldr	r3, [pc, #356]	; a0006eb0 <vTaskIncrementTick+0x29c>
a0006d48:	e08f3003 	add	r3, pc, r3
a0006d4c:	e3e02000 	mvn	r2, #0
a0006d50:	e5832000 	str	r2, [r3]
a0006d54:	ea00003a 	b	a0006e44 <vTaskIncrementTick+0x230>
a0006d58:	e59f3154 	ldr	r3, [pc, #340]	; a0006eb4 <vTaskIncrementTick+0x2a0>
a0006d5c:	e08f3003 	add	r3, pc, r3
a0006d60:	e5933000 	ldr	r3, [r3]
a0006d64:	e593300c 	ldr	r3, [r3, #12]
a0006d68:	e593300c 	ldr	r3, [r3, #12]
a0006d6c:	e58d3008 	str	r3, [sp, #8]
a0006d70:	e59d3008 	ldr	r3, [sp, #8]
a0006d74:	e5933004 	ldr	r3, [r3, #4]
a0006d78:	e58d3004 	str	r3, [sp, #4]
a0006d7c:	e59f3134 	ldr	r3, [pc, #308]	; a0006eb8 <vTaskIncrementTick+0x2a4>
a0006d80:	e08f3003 	add	r3, pc, r3
a0006d84:	e5932000 	ldr	r2, [r3]
a0006d88:	e59d3004 	ldr	r3, [sp, #4]
a0006d8c:	e1520003 	cmp	r2, r3
a0006d90:	2a000004 	bcs	a0006da8 <vTaskIncrementTick+0x194>
a0006d94:	e59f3120 	ldr	r3, [pc, #288]	; a0006ebc <vTaskIncrementTick+0x2a8>
a0006d98:	e08f3003 	add	r3, pc, r3
a0006d9c:	e59d2004 	ldr	r2, [sp, #4]
a0006da0:	e5832000 	str	r2, [r3]
a0006da4:	ea000026 	b	a0006e44 <vTaskIncrementTick+0x230>
a0006da8:	e59d3008 	ldr	r3, [sp, #8]
a0006dac:	e2833004 	add	r3, r3, #4
a0006db0:	e1a00003 	mov	r0, r3
a0006db4:	ebfff74c 	bl	a0004aec <vListRemove>
a0006db8:	e59d3008 	ldr	r3, [sp, #8]
a0006dbc:	e5933028 	ldr	r3, [r3, #40]	; 0x28
a0006dc0:	e3530000 	cmp	r3, #0
a0006dc4:	0a000003 	beq	a0006dd8 <vTaskIncrementTick+0x1c4>
a0006dc8:	e59d3008 	ldr	r3, [sp, #8]
a0006dcc:	e2833018 	add	r3, r3, #24
a0006dd0:	e1a00003 	mov	r0, r3
a0006dd4:	ebfff744 	bl	a0004aec <vListRemove>
a0006dd8:	e59d3008 	ldr	r3, [sp, #8]
a0006ddc:	e593202c 	ldr	r2, [r3, #44]	; 0x2c
a0006de0:	e59f30d8 	ldr	r3, [pc, #216]	; a0006ec0 <vTaskIncrementTick+0x2ac>
a0006de4:	e08f3003 	add	r3, pc, r3
a0006de8:	e5933000 	ldr	r3, [r3]
a0006dec:	e1520003 	cmp	r2, r3
a0006df0:	9a000004 	bls	a0006e08 <vTaskIncrementTick+0x1f4>
a0006df4:	e59d3008 	ldr	r3, [sp, #8]
a0006df8:	e593202c 	ldr	r2, [r3, #44]	; 0x2c
a0006dfc:	e59f30c0 	ldr	r3, [pc, #192]	; a0006ec4 <vTaskIncrementTick+0x2b0>
a0006e00:	e08f3003 	add	r3, pc, r3
a0006e04:	e5832000 	str	r2, [r3]
a0006e08:	e59d3008 	ldr	r3, [sp, #8]
a0006e0c:	e593202c 	ldr	r2, [r3, #44]	; 0x2c
a0006e10:	e1a03002 	mov	r3, r2
a0006e14:	e1a03103 	lsl	r3, r3, #2
a0006e18:	e0833002 	add	r3, r3, r2
a0006e1c:	e1a03103 	lsl	r3, r3, #2
a0006e20:	e59f20a0 	ldr	r2, [pc, #160]	; a0006ec8 <vTaskIncrementTick+0x2b4>
a0006e24:	e08f2002 	add	r2, pc, r2
a0006e28:	e0832002 	add	r2, r3, r2
a0006e2c:	e59d3008 	ldr	r3, [sp, #8]
a0006e30:	e2833004 	add	r3, r3, #4
a0006e34:	e1a00002 	mov	r0, r2
a0006e38:	e1a01003 	mov	r1, r3
a0006e3c:	ebfff6d6 	bl	a000499c <vListInsertEnd>
a0006e40:	eaffffb9 	b	a0006d2c <vTaskIncrementTick+0x118>
a0006e44:	ea000006 	b	a0006e64 <vTaskIncrementTick+0x250>
a0006e48:	e59f307c 	ldr	r3, [pc, #124]	; a0006ecc <vTaskIncrementTick+0x2b8>
a0006e4c:	e08f3003 	add	r3, pc, r3
a0006e50:	e5933000 	ldr	r3, [r3]
a0006e54:	e2832001 	add	r2, r3, #1
a0006e58:	e59f3070 	ldr	r3, [pc, #112]	; a0006ed0 <vTaskIncrementTick+0x2bc>
a0006e5c:	e08f3003 	add	r3, pc, r3
a0006e60:	e5832000 	str	r2, [r3]
a0006e64:	e28dd014 	add	sp, sp, #20
a0006e68:	e49df004 	pop	{pc}		; (ldr pc, [sp], #4)
a0006e6c:	00002e8c 	andeq	r2, r0, ip, lsl #29
a0006e70:	00002e68 	andeq	r2, r0, r8, ror #28
a0006e74:	00002e58 	andeq	r2, r0, r8, asr lr
a0006e78:	00002e4c 	andeq	r2, r0, ip, asr #28
a0006e7c:	00002e04 	andeq	r2, r0, r4, lsl #28
a0006e80:	00002df8 	strdeq	r2, [r0], -r8
a0006e84:	00002de8 	andeq	r2, r0, r8, ror #27
a0006e88:	00002de0 	andeq	r2, r0, r0, ror #27
a0006e8c:	00002e1c 	andeq	r2, r0, ip, lsl lr
a0006e90:	00002e0c 	andeq	r2, r0, ip, lsl #28
a0006e94:	00002db0 			; <UNDEFINED> instruction: 0x00002db0
a0006e98:	00002b10 	andeq	r2, r0, r0, lsl fp
a0006e9c:	00002d84 	andeq	r2, r0, r4, lsl #27
a0006ea0:	00002adc 	ldrdeq	r2, [r0], -ip
a0006ea4:	00002d8c 	andeq	r2, r0, ip, lsl #27
a0006ea8:	00002ac4 	andeq	r2, r0, r4, asr #21
a0006eac:	00002d38 	andeq	r2, r0, r8, lsr sp
a0006eb0:	00002a98 	muleq	r0, r8, sl
a0006eb4:	00002d0c 	andeq	r2, r0, ip, lsl #26
a0006eb8:	00002d1c 	andeq	r2, r0, ip, lsl sp
a0006ebc:	00002a48 	andeq	r2, r0, r8, asr #20
a0006ec0:	00002cc0 	andeq	r2, r0, r0, asr #25
a0006ec4:	00002ca4 	andeq	r2, r0, r4, lsr #25
a0006ec8:	00002b54 	andeq	r2, r0, r4, asr fp
a0006ecc:	00002c64 	andeq	r2, r0, r4, ror #24
a0006ed0:	00002c54 	andeq	r2, r0, r4, asr ip

a0006ed4 <vTaskSwitchContext>:
a0006ed4:	e24dd008 	sub	sp, sp, #8
a0006ed8:	e59f2204 	ldr	r2, [pc, #516]	; a00070e4 <vTaskSwitchContext+0x210>
a0006edc:	e08f2002 	add	r2, pc, r2
a0006ee0:	e59f3200 	ldr	r3, [pc, #512]	; a00070e8 <vTaskSwitchContext+0x214>
a0006ee4:	e08f3003 	add	r3, pc, r3
a0006ee8:	e5933000 	ldr	r3, [r3]
a0006eec:	e3530000 	cmp	r3, #0
a0006ef0:	0a000004 	beq	a0006f08 <vTaskSwitchContext+0x34>
a0006ef4:	e59f31f0 	ldr	r3, [pc, #496]	; a00070ec <vTaskSwitchContext+0x218>
a0006ef8:	e08f3003 	add	r3, pc, r3
a0006efc:	e3a02001 	mov	r2, #1
a0006f00:	e5832000 	str	r2, [r3]
a0006f04:	ea000074 	b	a00070dc <vTaskSwitchContext+0x208>
a0006f08:	ea000006 	b	a0006f28 <vTaskSwitchContext+0x54>
a0006f0c:	e59f31dc 	ldr	r3, [pc, #476]	; a00070f0 <vTaskSwitchContext+0x21c>
a0006f10:	e08f3003 	add	r3, pc, r3
a0006f14:	e5933000 	ldr	r3, [r3]
a0006f18:	e2431001 	sub	r1, r3, #1
a0006f1c:	e59f31d0 	ldr	r3, [pc, #464]	; a00070f4 <vTaskSwitchContext+0x220>
a0006f20:	e08f3003 	add	r3, pc, r3
a0006f24:	e5831000 	str	r1, [r3]
a0006f28:	e59f31c8 	ldr	r3, [pc, #456]	; a00070f8 <vTaskSwitchContext+0x224>
a0006f2c:	e08f3003 	add	r3, pc, r3
a0006f30:	e5931000 	ldr	r1, [r3]
a0006f34:	e59f01c0 	ldr	r0, [pc, #448]	; a00070fc <vTaskSwitchContext+0x228>
a0006f38:	e08f0000 	add	r0, pc, r0
a0006f3c:	e1a03001 	mov	r3, r1
a0006f40:	e1a03103 	lsl	r3, r3, #2
a0006f44:	e0833001 	add	r3, r3, r1
a0006f48:	e1a03103 	lsl	r3, r3, #2
a0006f4c:	e0803003 	add	r3, r0, r3
a0006f50:	e5933000 	ldr	r3, [r3]
a0006f54:	e3530000 	cmp	r3, #0
a0006f58:	0affffeb 	beq	a0006f0c <vTaskSwitchContext+0x38>
a0006f5c:	e59f319c 	ldr	r3, [pc, #412]	; a0007100 <vTaskSwitchContext+0x22c>
a0006f60:	e08f3003 	add	r3, pc, r3
a0006f64:	e5931000 	ldr	r1, [r3]
a0006f68:	e1a03001 	mov	r3, r1
a0006f6c:	e1a03103 	lsl	r3, r3, #2
a0006f70:	e0833001 	add	r3, r3, r1
a0006f74:	e1a03103 	lsl	r3, r3, #2
a0006f78:	e59f1184 	ldr	r1, [pc, #388]	; a0007104 <vTaskSwitchContext+0x230>
a0006f7c:	e08f1001 	add	r1, pc, r1
a0006f80:	e0833001 	add	r3, r3, r1
a0006f84:	e58d3004 	str	r3, [sp, #4]
a0006f88:	e59d3004 	ldr	r3, [sp, #4]
a0006f8c:	e5933004 	ldr	r3, [r3, #4]
a0006f90:	e5931004 	ldr	r1, [r3, #4]
a0006f94:	e59d3004 	ldr	r3, [sp, #4]
a0006f98:	e5831004 	str	r1, [r3, #4]
a0006f9c:	e59d3004 	ldr	r3, [sp, #4]
a0006fa0:	e5931004 	ldr	r1, [r3, #4]
a0006fa4:	e59d3004 	ldr	r3, [sp, #4]
a0006fa8:	e2833008 	add	r3, r3, #8
a0006fac:	e1510003 	cmp	r1, r3
a0006fb0:	1a000004 	bne	a0006fc8 <vTaskSwitchContext+0xf4>
a0006fb4:	e59d3004 	ldr	r3, [sp, #4]
a0006fb8:	e5933004 	ldr	r3, [r3, #4]
a0006fbc:	e5931004 	ldr	r1, [r3, #4]
a0006fc0:	e59d3004 	ldr	r3, [sp, #4]
a0006fc4:	e5831004 	str	r1, [r3, #4]
a0006fc8:	e59d3004 	ldr	r3, [sp, #4]
a0006fcc:	e5933004 	ldr	r3, [r3, #4]
a0006fd0:	e593100c 	ldr	r1, [r3, #12]
a0006fd4:	e59f312c 	ldr	r3, [pc, #300]	; a0007108 <vTaskSwitchContext+0x234>
a0006fd8:	e7923003 	ldr	r3, [r2, r3]
a0006fdc:	e5831000 	str	r1, [r3]
a0006fe0:	e59f3124 	ldr	r3, [pc, #292]	; a000710c <vTaskSwitchContext+0x238>
a0006fe4:	e08f3003 	add	r3, pc, r3
a0006fe8:	e5933000 	ldr	r3, [r3]
a0006fec:	e3530000 	cmp	r3, #0
a0006ff0:	0a000039 	beq	a00070dc <vTaskSwitchContext+0x208>
a0006ff4:	e59f310c 	ldr	r3, [pc, #268]	; a0007108 <vTaskSwitchContext+0x234>
a0006ff8:	e7923003 	ldr	r3, [r2, r3]
a0006ffc:	e5933000 	ldr	r3, [r3]
a0007000:	e5931048 	ldr	r1, [r3, #72]	; 0x48
a0007004:	e59f3104 	ldr	r3, [pc, #260]	; a0007110 <vTaskSwitchContext+0x23c>
a0007008:	e08f3003 	add	r3, pc, r3
a000700c:	e5933000 	ldr	r3, [r3]
a0007010:	e1510003 	cmp	r1, r3
a0007014:	0a000030 	beq	a00070dc <vTaskSwitchContext+0x208>
a0007018:	e59f30f4 	ldr	r3, [pc, #244]	; a0007114 <vTaskSwitchContext+0x240>
a000701c:	e08f3003 	add	r3, pc, r3
a0007020:	e5933000 	ldr	r3, [r3]
a0007024:	e2831008 	add	r1, r3, #8
a0007028:	e59f30e8 	ldr	r3, [pc, #232]	; a0007118 <vTaskSwitchContext+0x244>
a000702c:	e08f3003 	add	r3, pc, r3
a0007030:	e5933000 	ldr	r3, [r3]
a0007034:	e1510003 	cmp	r1, r3
a0007038:	2a000023 	bcs	a00070cc <vTaskSwitchContext+0x1f8>
a000703c:	e59f30c4 	ldr	r3, [pc, #196]	; a0007108 <vTaskSwitchContext+0x234>
a0007040:	e7923003 	ldr	r3, [r2, r3]
a0007044:	e5933000 	ldr	r3, [r3]
a0007048:	e5932048 	ldr	r2, [r3, #72]	; 0x48
a000704c:	e59f30c8 	ldr	r3, [pc, #200]	; a000711c <vTaskSwitchContext+0x248>
a0007050:	e08f3003 	add	r3, pc, r3
a0007054:	e5832000 	str	r2, [r3]
a0007058:	e59f30c0 	ldr	r3, [pc, #192]	; a0007120 <vTaskSwitchContext+0x24c>
a000705c:	e08f3003 	add	r3, pc, r3
a0007060:	e5933000 	ldr	r3, [r3]
a0007064:	e59f20b8 	ldr	r2, [pc, #184]	; a0007124 <vTaskSwitchContext+0x250>
a0007068:	e08f2002 	add	r2, pc, r2
a000706c:	e5922000 	ldr	r2, [r2]
a0007070:	e5832000 	str	r2, [r3]
a0007074:	e59f30ac 	ldr	r3, [pc, #172]	; a0007128 <vTaskSwitchContext+0x254>
a0007078:	e08f3003 	add	r3, pc, r3
a000707c:	e5933000 	ldr	r3, [r3]
a0007080:	e2832004 	add	r2, r3, #4
a0007084:	e59f30a0 	ldr	r3, [pc, #160]	; a000712c <vTaskSwitchContext+0x258>
a0007088:	e08f3003 	add	r3, pc, r3
a000708c:	e5832000 	str	r2, [r3]
a0007090:	e59f3098 	ldr	r3, [pc, #152]	; a0007130 <vTaskSwitchContext+0x25c>
a0007094:	e08f3003 	add	r3, pc, r3
a0007098:	e5933000 	ldr	r3, [r3]
a000709c:	e59f2090 	ldr	r2, [pc, #144]	; a0007134 <vTaskSwitchContext+0x260>
a00070a0:	e08f2002 	add	r2, pc, r2
a00070a4:	e5922000 	ldr	r2, [r2]
a00070a8:	e5832000 	str	r2, [r3]
a00070ac:	e59f3084 	ldr	r3, [pc, #132]	; a0007138 <vTaskSwitchContext+0x264>
a00070b0:	e08f3003 	add	r3, pc, r3
a00070b4:	e5933000 	ldr	r3, [r3]
a00070b8:	e2832004 	add	r2, r3, #4
a00070bc:	e59f3078 	ldr	r3, [pc, #120]	; a000713c <vTaskSwitchContext+0x268>
a00070c0:	e08f3003 	add	r3, pc, r3
a00070c4:	e5832000 	str	r2, [r3]
a00070c8:	ea000003 	b	a00070dc <vTaskSwitchContext+0x208>
a00070cc:	e59f306c 	ldr	r3, [pc, #108]	; a0007140 <vTaskSwitchContext+0x26c>
a00070d0:	e08f3003 	add	r3, pc, r3
a00070d4:	e3a02000 	mov	r2, #0
a00070d8:	e5832000 	str	r2, [r3]
a00070dc:	e28dd008 	add	sp, sp, #8
a00070e0:	e12fff1e 	bx	lr
a00070e4:	000027c4 	andeq	r2, r0, r4, asr #15
a00070e8:	00002bc8 	andeq	r2, r0, r8, asr #23
a00070ec:	00002bbc 			; <UNDEFINED> instruction: 0x00002bbc
a00070f0:	00002b94 	muleq	r0, r4, fp
a00070f4:	00002b84 	andeq	r2, r0, r4, lsl #23
a00070f8:	00002b78 	andeq	r2, r0, r8, ror fp
a00070fc:	00002a40 	andeq	r2, r0, r0, asr #20
a0007100:	00002b44 	andeq	r2, r0, r4, asr #22
a0007104:	000029fc 	strdeq	r2, [r0], -ip
a0007108:	00000000 	andeq	r0, r0, r0
a000710c:	00002ae8 	andeq	r2, r0, r8, ror #21
a0007110:	000027dc 	ldrdeq	r2, [r0], -ip
a0007114:	00002aa4 	andeq	r2, r0, r4, lsr #21
a0007118:	00002a9c 	muleq	r0, ip, sl
a000711c:	00002794 	muleq	r0, r4, r7
a0007120:	00002a64 	andeq	r2, r0, r4, ror #20
a0007124:	00002a34 	andeq	r2, r0, r4, lsr sl
a0007128:	00002a48 	andeq	r2, r0, r8, asr #20
a000712c:	00002a38 	andeq	r2, r0, r8, lsr sl
a0007130:	00002a2c 	andeq	r2, r0, ip, lsr #20
a0007134:	00002744 	andeq	r2, r0, r4, asr #14
a0007138:	00002a10 	andeq	r2, r0, r0, lsl sl
a000713c:	00002a00 	andeq	r2, r0, r0, lsl #20
a0007140:	000029fc 	strdeq	r2, [r0], -ip

a0007144 <vTaskPlaceOnEventList>:
a0007144:	e92d4010 	push	{r4, lr}
a0007148:	e24dd010 	sub	sp, sp, #16
a000714c:	e58d0004 	str	r0, [sp, #4]
a0007150:	e58d1000 	str	r1, [sp]
a0007154:	e59f4090 	ldr	r4, [pc, #144]	; a00071ec <vTaskPlaceOnEventList+0xa8>
a0007158:	e08f4004 	add	r4, pc, r4
a000715c:	e59f308c 	ldr	r3, [pc, #140]	; a00071f0 <vTaskPlaceOnEventList+0xac>
a0007160:	e7943003 	ldr	r3, [r4, r3]
a0007164:	e5933000 	ldr	r3, [r3]
a0007168:	e2833018 	add	r3, r3, #24
a000716c:	e59d0004 	ldr	r0, [sp, #4]
a0007170:	e1a01003 	mov	r1, r3
a0007174:	ebfff62a 	bl	a0004a24 <vListInsert>
a0007178:	e59f3070 	ldr	r3, [pc, #112]	; a00071f0 <vTaskPlaceOnEventList+0xac>
a000717c:	e7943003 	ldr	r3, [r4, r3]
a0007180:	e5933000 	ldr	r3, [r3]
a0007184:	e2833004 	add	r3, r3, #4
a0007188:	e1a00003 	mov	r0, r3
a000718c:	ebfff656 	bl	a0004aec <vListRemove>
a0007190:	e59d3000 	ldr	r3, [sp]
a0007194:	e3730001 	cmn	r3, #1
a0007198:	1a000009 	bne	a00071c4 <vTaskPlaceOnEventList+0x80>
a000719c:	e59f304c 	ldr	r3, [pc, #76]	; a00071f0 <vTaskPlaceOnEventList+0xac>
a00071a0:	e7943003 	ldr	r3, [r4, r3]
a00071a4:	e5933000 	ldr	r3, [r3]
a00071a8:	e2833004 	add	r3, r3, #4
a00071ac:	e59f2040 	ldr	r2, [pc, #64]	; a00071f4 <vTaskPlaceOnEventList+0xb0>
a00071b0:	e08f2002 	add	r2, pc, r2
a00071b4:	e1a00002 	mov	r0, r2
a00071b8:	e1a01003 	mov	r1, r3
a00071bc:	ebfff5f6 	bl	a000499c <vListInsertEnd>
a00071c0:	ea000007 	b	a00071e4 <vTaskPlaceOnEventList+0xa0>
a00071c4:	e59f302c 	ldr	r3, [pc, #44]	; a00071f8 <vTaskPlaceOnEventList+0xb4>
a00071c8:	e08f3003 	add	r3, pc, r3
a00071cc:	e5932000 	ldr	r2, [r3]
a00071d0:	e59d3000 	ldr	r3, [sp]
a00071d4:	e0823003 	add	r3, r2, r3
a00071d8:	e58d300c 	str	r3, [sp, #12]
a00071dc:	e59d000c 	ldr	r0, [sp, #12]
a00071e0:	eb00013f 	bl	a00076e4 <prvAddCurrentTaskToDelayedList>
a00071e4:	e28dd010 	add	sp, sp, #16
a00071e8:	e8bd8010 	pop	{r4, pc}
a00071ec:	00002548 	andeq	r2, r0, r8, asr #10
a00071f0:	00000000 	andeq	r0, r0, r0
a00071f4:	000028d4 	ldrdeq	r2, [r0], -r4
a00071f8:	000028d4 	ldrdeq	r2, [r0], -r4

a00071fc <vTaskPlaceOnEventListRestricted>:
a00071fc:	e92d4010 	push	{r4, lr}
a0007200:	e24dd010 	sub	sp, sp, #16
a0007204:	e58d0004 	str	r0, [sp, #4]
a0007208:	e58d1000 	str	r1, [sp]
a000720c:	e59f405c 	ldr	r4, [pc, #92]	; a0007270 <vTaskPlaceOnEventListRestricted+0x74>
a0007210:	e08f4004 	add	r4, pc, r4
a0007214:	e59f3058 	ldr	r3, [pc, #88]	; a0007274 <vTaskPlaceOnEventListRestricted+0x78>
a0007218:	e7943003 	ldr	r3, [r4, r3]
a000721c:	e5933000 	ldr	r3, [r3]
a0007220:	e2833018 	add	r3, r3, #24
a0007224:	e59d0004 	ldr	r0, [sp, #4]
a0007228:	e1a01003 	mov	r1, r3
a000722c:	ebfff5da 	bl	a000499c <vListInsertEnd>
a0007230:	e59f303c 	ldr	r3, [pc, #60]	; a0007274 <vTaskPlaceOnEventListRestricted+0x78>
a0007234:	e7943003 	ldr	r3, [r4, r3]
a0007238:	e5933000 	ldr	r3, [r3]
a000723c:	e2833004 	add	r3, r3, #4
a0007240:	e1a00003 	mov	r0, r3
a0007244:	ebfff628 	bl	a0004aec <vListRemove>
a0007248:	e59f3028 	ldr	r3, [pc, #40]	; a0007278 <vTaskPlaceOnEventListRestricted+0x7c>
a000724c:	e08f3003 	add	r3, pc, r3
a0007250:	e5932000 	ldr	r2, [r3]
a0007254:	e59d3000 	ldr	r3, [sp]
a0007258:	e0823003 	add	r3, r2, r3
a000725c:	e58d300c 	str	r3, [sp, #12]
a0007260:	e59d000c 	ldr	r0, [sp, #12]
a0007264:	eb00011e 	bl	a00076e4 <prvAddCurrentTaskToDelayedList>
a0007268:	e28dd010 	add	sp, sp, #16
a000726c:	e8bd8010 	pop	{r4, pc}
a0007270:	00002490 	muleq	r0, r0, r4
a0007274:	00000000 	andeq	r0, r0, r0
a0007278:	00002850 	andeq	r2, r0, r0, asr r8

a000727c <xTaskRemoveFromEventList>:
a000727c:	e92d4010 	push	{r4, lr}
a0007280:	e24dd010 	sub	sp, sp, #16
a0007284:	e58d0004 	str	r0, [sp, #4]
a0007288:	e59f4110 	ldr	r4, [pc, #272]	; a00073a0 <xTaskRemoveFromEventList+0x124>
a000728c:	e08f4004 	add	r4, pc, r4
a0007290:	e59d3004 	ldr	r3, [sp, #4]
a0007294:	e593300c 	ldr	r3, [r3, #12]
a0007298:	e593300c 	ldr	r3, [r3, #12]
a000729c:	e58d3008 	str	r3, [sp, #8]
a00072a0:	e59d3008 	ldr	r3, [sp, #8]
a00072a4:	e2833018 	add	r3, r3, #24
a00072a8:	e1a00003 	mov	r0, r3
a00072ac:	ebfff60e 	bl	a0004aec <vListRemove>
a00072b0:	e59f30ec 	ldr	r3, [pc, #236]	; a00073a4 <xTaskRemoveFromEventList+0x128>
a00072b4:	e08f3003 	add	r3, pc, r3
a00072b8:	e5933000 	ldr	r3, [r3]
a00072bc:	e3530000 	cmp	r3, #0
a00072c0:	1a00001e 	bne	a0007340 <xTaskRemoveFromEventList+0xc4>
a00072c4:	e59d3008 	ldr	r3, [sp, #8]
a00072c8:	e2833004 	add	r3, r3, #4
a00072cc:	e1a00003 	mov	r0, r3
a00072d0:	ebfff605 	bl	a0004aec <vListRemove>
a00072d4:	e59d3008 	ldr	r3, [sp, #8]
a00072d8:	e593202c 	ldr	r2, [r3, #44]	; 0x2c
a00072dc:	e59f30c4 	ldr	r3, [pc, #196]	; a00073a8 <xTaskRemoveFromEventList+0x12c>
a00072e0:	e08f3003 	add	r3, pc, r3
a00072e4:	e5933000 	ldr	r3, [r3]
a00072e8:	e1520003 	cmp	r2, r3
a00072ec:	9a000004 	bls	a0007304 <xTaskRemoveFromEventList+0x88>
a00072f0:	e59d3008 	ldr	r3, [sp, #8]
a00072f4:	e593202c 	ldr	r2, [r3, #44]	; 0x2c
a00072f8:	e59f30ac 	ldr	r3, [pc, #172]	; a00073ac <xTaskRemoveFromEventList+0x130>
a00072fc:	e08f3003 	add	r3, pc, r3
a0007300:	e5832000 	str	r2, [r3]
a0007304:	e59d3008 	ldr	r3, [sp, #8]
a0007308:	e593202c 	ldr	r2, [r3, #44]	; 0x2c
a000730c:	e1a03002 	mov	r3, r2
a0007310:	e1a03103 	lsl	r3, r3, #2
a0007314:	e0833002 	add	r3, r3, r2
a0007318:	e1a03103 	lsl	r3, r3, #2
a000731c:	e59f208c 	ldr	r2, [pc, #140]	; a00073b0 <xTaskRemoveFromEventList+0x134>
a0007320:	e08f2002 	add	r2, pc, r2
a0007324:	e0832002 	add	r2, r3, r2
a0007328:	e59d3008 	ldr	r3, [sp, #8]
a000732c:	e2833004 	add	r3, r3, #4
a0007330:	e1a00002 	mov	r0, r2
a0007334:	e1a01003 	mov	r1, r3
a0007338:	ebfff597 	bl	a000499c <vListInsertEnd>
a000733c:	ea000006 	b	a000735c <xTaskRemoveFromEventList+0xe0>
a0007340:	e59d3008 	ldr	r3, [sp, #8]
a0007344:	e2833018 	add	r3, r3, #24
a0007348:	e59f2064 	ldr	r2, [pc, #100]	; a00073b4 <xTaskRemoveFromEventList+0x138>
a000734c:	e08f2002 	add	r2, pc, r2
a0007350:	e1a00002 	mov	r0, r2
a0007354:	e1a01003 	mov	r1, r3
a0007358:	ebfff58f 	bl	a000499c <vListInsertEnd>
a000735c:	e59d3008 	ldr	r3, [sp, #8]
a0007360:	e593202c 	ldr	r2, [r3, #44]	; 0x2c
a0007364:	e59f304c 	ldr	r3, [pc, #76]	; a00073b8 <xTaskRemoveFromEventList+0x13c>
a0007368:	e7943003 	ldr	r3, [r4, r3]
a000736c:	e5933000 	ldr	r3, [r3]
a0007370:	e593302c 	ldr	r3, [r3, #44]	; 0x2c
a0007374:	e1520003 	cmp	r2, r3
a0007378:	3a000002 	bcc	a0007388 <xTaskRemoveFromEventList+0x10c>
a000737c:	e3a03001 	mov	r3, #1
a0007380:	e58d300c 	str	r3, [sp, #12]
a0007384:	ea000001 	b	a0007390 <xTaskRemoveFromEventList+0x114>
a0007388:	e3a03000 	mov	r3, #0
a000738c:	e58d300c 	str	r3, [sp, #12]
a0007390:	e59d300c 	ldr	r3, [sp, #12]
a0007394:	e1a00003 	mov	r0, r3
a0007398:	e28dd010 	add	sp, sp, #16
a000739c:	e8bd8010 	pop	{r4, pc}
a00073a0:	00002414 	andeq	r2, r0, r4, lsl r4
a00073a4:	000027f8 	strdeq	r2, [r0], -r8
a00073a8:	000027c4 	andeq	r2, r0, r4, asr #15
a00073ac:	000027a8 	andeq	r2, r0, r8, lsr #15
a00073b0:	00002658 	andeq	r2, r0, r8, asr r6
a00073b4:	00002724 	andeq	r2, r0, r4, lsr #14
a00073b8:	00000000 	andeq	r0, r0, r0

a00073bc <vTaskSetTimeOutState>:
a00073bc:	e24dd008 	sub	sp, sp, #8
a00073c0:	e58d0004 	str	r0, [sp, #4]
a00073c4:	e59f3028 	ldr	r3, [pc, #40]	; a00073f4 <vTaskSetTimeOutState+0x38>
a00073c8:	e08f3003 	add	r3, pc, r3
a00073cc:	e5932000 	ldr	r2, [r3]
a00073d0:	e59d3004 	ldr	r3, [sp, #4]
a00073d4:	e5832000 	str	r2, [r3]
a00073d8:	e59f3018 	ldr	r3, [pc, #24]	; a00073f8 <vTaskSetTimeOutState+0x3c>
a00073dc:	e08f3003 	add	r3, pc, r3
a00073e0:	e5932000 	ldr	r2, [r3]
a00073e4:	e59d3004 	ldr	r3, [sp, #4]
a00073e8:	e5832004 	str	r2, [r3, #4]
a00073ec:	e28dd008 	add	sp, sp, #8
a00073f0:	e12fff1e 	bx	lr
a00073f4:	000026f0 	strdeq	r2, [r0], -r0
a00073f8:	000026c0 	andeq	r2, r0, r0, asr #13

a00073fc <xTaskCheckForTimeOut>:
a00073fc:	e52de004 	push	{lr}		; (str lr, [sp, #-4]!)
a0007400:	e24dd014 	sub	sp, sp, #20
a0007404:	e58d0004 	str	r0, [sp, #4]
a0007408:	e58d1000 	str	r1, [sp]
a000740c:	eb00023b 	bl	a0007d00 <vTaskEnterCritical>
a0007410:	e59d3000 	ldr	r3, [sp]
a0007414:	e5933000 	ldr	r3, [r3]
a0007418:	e3730001 	cmn	r3, #1
a000741c:	1a000002 	bne	a000742c <xTaskCheckForTimeOut+0x30>
a0007420:	e3a03000 	mov	r3, #0
a0007424:	e58d300c 	str	r3, [sp, #12]
a0007428:	ea00002c 	b	a00074e0 <xTaskCheckForTimeOut+0xe4>
a000742c:	e59d3004 	ldr	r3, [sp, #4]
a0007430:	e5932000 	ldr	r2, [r3]
a0007434:	e59f30b8 	ldr	r3, [pc, #184]	; a00074f4 <xTaskCheckForTimeOut+0xf8>
a0007438:	e08f3003 	add	r3, pc, r3
a000743c:	e5933000 	ldr	r3, [r3]
a0007440:	e1520003 	cmp	r2, r3
a0007444:	0a000009 	beq	a0007470 <xTaskCheckForTimeOut+0x74>
a0007448:	e59d3004 	ldr	r3, [sp, #4]
a000744c:	e5932004 	ldr	r2, [r3, #4]
a0007450:	e59f30a0 	ldr	r3, [pc, #160]	; a00074f8 <xTaskCheckForTimeOut+0xfc>
a0007454:	e08f3003 	add	r3, pc, r3
a0007458:	e5933000 	ldr	r3, [r3]
a000745c:	e1520003 	cmp	r2, r3
a0007460:	8a000002 	bhi	a0007470 <xTaskCheckForTimeOut+0x74>
a0007464:	e3a03001 	mov	r3, #1
a0007468:	e58d300c 	str	r3, [sp, #12]
a000746c:	ea00001b 	b	a00074e0 <xTaskCheckForTimeOut+0xe4>
a0007470:	e59f3084 	ldr	r3, [pc, #132]	; a00074fc <xTaskCheckForTimeOut+0x100>
a0007474:	e08f3003 	add	r3, pc, r3
a0007478:	e5932000 	ldr	r2, [r3]
a000747c:	e59d3004 	ldr	r3, [sp, #4]
a0007480:	e5933004 	ldr	r3, [r3, #4]
a0007484:	e0632002 	rsb	r2, r3, r2
a0007488:	e59d3000 	ldr	r3, [sp]
a000748c:	e5933000 	ldr	r3, [r3]
a0007490:	e1520003 	cmp	r2, r3
a0007494:	2a00000f 	bcs	a00074d8 <xTaskCheckForTimeOut+0xdc>
a0007498:	e59d3000 	ldr	r3, [sp]
a000749c:	e5932000 	ldr	r2, [r3]
a00074a0:	e59d3004 	ldr	r3, [sp, #4]
a00074a4:	e5931004 	ldr	r1, [r3, #4]
a00074a8:	e59f3050 	ldr	r3, [pc, #80]	; a0007500 <xTaskCheckForTimeOut+0x104>
a00074ac:	e08f3003 	add	r3, pc, r3
a00074b0:	e5933000 	ldr	r3, [r3]
a00074b4:	e0633001 	rsb	r3, r3, r1
a00074b8:	e0822003 	add	r2, r2, r3
a00074bc:	e59d3000 	ldr	r3, [sp]
a00074c0:	e5832000 	str	r2, [r3]
a00074c4:	e59d0004 	ldr	r0, [sp, #4]
a00074c8:	ebffffbb 	bl	a00073bc <vTaskSetTimeOutState>
a00074cc:	e3a03000 	mov	r3, #0
a00074d0:	e58d300c 	str	r3, [sp, #12]
a00074d4:	ea000001 	b	a00074e0 <xTaskCheckForTimeOut+0xe4>
a00074d8:	e3a03001 	mov	r3, #1
a00074dc:	e58d300c 	str	r3, [sp, #12]
a00074e0:	eb000219 	bl	a0007d4c <vTaskExitCritical>
a00074e4:	e59d300c 	ldr	r3, [sp, #12]
a00074e8:	e1a00003 	mov	r0, r3
a00074ec:	e28dd014 	add	sp, sp, #20
a00074f0:	e49df004 	pop	{pc}		; (ldr pc, [sp], #4)
a00074f4:	00002680 	andeq	r2, r0, r0, lsl #13
a00074f8:	00002648 	andeq	r2, r0, r8, asr #12
a00074fc:	00002628 	andeq	r2, r0, r8, lsr #12
a0007500:	000025f0 	strdeq	r2, [r0], -r0

a0007504 <vTaskMissedYield>:
a0007504:	e59f300c 	ldr	r3, [pc, #12]	; a0007518 <vTaskMissedYield+0x14>
a0007508:	e08f3003 	add	r3, pc, r3
a000750c:	e3a02001 	mov	r2, #1
a0007510:	e5832000 	str	r2, [r3]
a0007514:	e12fff1e 	bx	lr
a0007518:	000025ac 	andeq	r2, r0, ip, lsr #11

a000751c <prvIdleTask>:
a000751c:	e52de004 	push	{lr}		; (str lr, [sp, #-4]!)
a0007520:	e24dd00c 	sub	sp, sp, #12
a0007524:	e58d0004 	str	r0, [sp, #4]
a0007528:	eb00006c 	bl	a00076e0 <prvCheckTasksWaitingTermination>
a000752c:	ebffe3b7 	bl	a0000410 <vApplicationIdleHook>
a0007530:	eafffffc 	b	a0007528 <prvIdleTask+0xc>

a0007534 <prvInitialiseTCBVariables>:
a0007534:	e52de004 	push	{lr}		; (str lr, [sp, #-4]!)
a0007538:	e24dd014 	sub	sp, sp, #20
a000753c:	e58d000c 	str	r0, [sp, #12]
a0007540:	e58d1008 	str	r1, [sp, #8]
a0007544:	e58d2004 	str	r2, [sp, #4]
a0007548:	e58d3000 	str	r3, [sp]
a000754c:	e59d300c 	ldr	r3, [sp, #12]
a0007550:	e2833034 	add	r3, r3, #52	; 0x34
a0007554:	e1a00003 	mov	r0, r3
a0007558:	e59d1008 	ldr	r1, [sp, #8]
a000755c:	e3a02010 	mov	r2, #16
a0007560:	ebffebe2 	bl	a00024f0 <strncpy>
a0007564:	e59d300c 	ldr	r3, [sp, #12]
a0007568:	e3a02000 	mov	r2, #0
a000756c:	e5c32043 	strb	r2, [r3, #67]	; 0x43
a0007570:	e59d3004 	ldr	r3, [sp, #4]
a0007574:	e3530009 	cmp	r3, #9
a0007578:	9a000001 	bls	a0007584 <prvInitialiseTCBVariables+0x50>
a000757c:	e3a03009 	mov	r3, #9
a0007580:	e58d3004 	str	r3, [sp, #4]
a0007584:	e59d300c 	ldr	r3, [sp, #12]
a0007588:	e59d2004 	ldr	r2, [sp, #4]
a000758c:	e583202c 	str	r2, [r3, #44]	; 0x2c
a0007590:	e59d300c 	ldr	r3, [sp, #12]
a0007594:	e59d2004 	ldr	r2, [sp, #4]
a0007598:	e583204c 	str	r2, [r3, #76]	; 0x4c
a000759c:	e59d300c 	ldr	r3, [sp, #12]
a00075a0:	e2833004 	add	r3, r3, #4
a00075a4:	e1a00003 	mov	r0, r3
a00075a8:	ebfff4f4 	bl	a0004980 <vListInitialiseItem>
a00075ac:	e59d300c 	ldr	r3, [sp, #12]
a00075b0:	e2833018 	add	r3, r3, #24
a00075b4:	e1a00003 	mov	r0, r3
a00075b8:	ebfff4f0 	bl	a0004980 <vListInitialiseItem>
a00075bc:	e59d300c 	ldr	r3, [sp, #12]
a00075c0:	e59d200c 	ldr	r2, [sp, #12]
a00075c4:	e5832010 	str	r2, [r3, #16]
a00075c8:	e59d3004 	ldr	r3, [sp, #4]
a00075cc:	e263200a 	rsb	r2, r3, #10
a00075d0:	e59d300c 	ldr	r3, [sp, #12]
a00075d4:	e5832018 	str	r2, [r3, #24]
a00075d8:	e59d300c 	ldr	r3, [sp, #12]
a00075dc:	e59d200c 	ldr	r2, [sp, #12]
a00075e0:	e5832024 	str	r2, [r3, #36]	; 0x24
a00075e4:	e59d300c 	ldr	r3, [sp, #12]
a00075e8:	e3a02000 	mov	r2, #0
a00075ec:	e5832044 	str	r2, [r3, #68]	; 0x44
a00075f0:	e28dd014 	add	sp, sp, #20
a00075f4:	e49df004 	pop	{pc}		; (ldr pc, [sp], #4)

a00075f8 <prvInitialiseTaskLists>:
a00075f8:	e52de004 	push	{lr}		; (str lr, [sp, #-4]!)
a00075fc:	e24dd00c 	sub	sp, sp, #12
a0007600:	e3a03000 	mov	r3, #0
a0007604:	e58d3004 	str	r3, [sp, #4]
a0007608:	ea00000c 	b	a0007640 <prvInitialiseTaskLists+0x48>
a000760c:	e59d2004 	ldr	r2, [sp, #4]
a0007610:	e1a03002 	mov	r3, r2
a0007614:	e1a03103 	lsl	r3, r3, #2
a0007618:	e0833002 	add	r3, r3, r2
a000761c:	e1a03103 	lsl	r3, r3, #2
a0007620:	e59f2094 	ldr	r2, [pc, #148]	; a00076bc <prvInitialiseTaskLists+0xc4>
a0007624:	e08f2002 	add	r2, pc, r2
a0007628:	e0833002 	add	r3, r3, r2
a000762c:	e1a00003 	mov	r0, r3
a0007630:	ebfff4bc 	bl	a0004928 <vListInitialise>
a0007634:	e59d3004 	ldr	r3, [sp, #4]
a0007638:	e2833001 	add	r3, r3, #1
a000763c:	e58d3004 	str	r3, [sp, #4]
a0007640:	e59d3004 	ldr	r3, [sp, #4]
a0007644:	e3530009 	cmp	r3, #9
a0007648:	9affffef 	bls	a000760c <prvInitialiseTaskLists+0x14>
a000764c:	e59f306c 	ldr	r3, [pc, #108]	; a00076c0 <prvInitialiseTaskLists+0xc8>
a0007650:	e08f3003 	add	r3, pc, r3
a0007654:	e1a00003 	mov	r0, r3
a0007658:	ebfff4b2 	bl	a0004928 <vListInitialise>
a000765c:	e59f3060 	ldr	r3, [pc, #96]	; a00076c4 <prvInitialiseTaskLists+0xcc>
a0007660:	e08f3003 	add	r3, pc, r3
a0007664:	e1a00003 	mov	r0, r3
a0007668:	ebfff4ae 	bl	a0004928 <vListInitialise>
a000766c:	e59f3054 	ldr	r3, [pc, #84]	; a00076c8 <prvInitialiseTaskLists+0xd0>
a0007670:	e08f3003 	add	r3, pc, r3
a0007674:	e1a00003 	mov	r0, r3
a0007678:	ebfff4aa 	bl	a0004928 <vListInitialise>
a000767c:	e59f3048 	ldr	r3, [pc, #72]	; a00076cc <prvInitialiseTaskLists+0xd4>
a0007680:	e08f3003 	add	r3, pc, r3
a0007684:	e1a00003 	mov	r0, r3
a0007688:	ebfff4a6 	bl	a0004928 <vListInitialise>
a000768c:	e59f303c 	ldr	r3, [pc, #60]	; a00076d0 <prvInitialiseTaskLists+0xd8>
a0007690:	e08f3003 	add	r3, pc, r3
a0007694:	e59f2038 	ldr	r2, [pc, #56]	; a00076d4 <prvInitialiseTaskLists+0xdc>
a0007698:	e08f2002 	add	r2, pc, r2
a000769c:	e5832000 	str	r2, [r3]
a00076a0:	e59f3030 	ldr	r3, [pc, #48]	; a00076d8 <prvInitialiseTaskLists+0xe0>
a00076a4:	e08f3003 	add	r3, pc, r3
a00076a8:	e59f202c 	ldr	r2, [pc, #44]	; a00076dc <prvInitialiseTaskLists+0xe4>
a00076ac:	e08f2002 	add	r2, pc, r2
a00076b0:	e5832000 	str	r2, [r3]
a00076b4:	e28dd00c 	add	sp, sp, #12
a00076b8:	e49df004 	pop	{pc}		; (ldr pc, [sp], #4)
a00076bc:	00002354 	andeq	r2, r0, r4, asr r3
a00076c0:	000023f0 	strdeq	r2, [r0], -r0
a00076c4:	000023f4 	strdeq	r2, [r0], -r4
a00076c8:	00002400 	andeq	r2, r0, r0, lsl #8
a00076cc:	00002404 	andeq	r2, r0, r4, lsl #8
a00076d0:	000023d8 	ldrdeq	r2, [r0], -r8
a00076d4:	000023a8 	andeq	r2, r0, r8, lsr #7
a00076d8:	000023c8 	andeq	r2, r0, r8, asr #7
a00076dc:	000023a8 	andeq	r2, r0, r8, lsr #7

a00076e0 <prvCheckTasksWaitingTermination>:
a00076e0:	e12fff1e 	bx	lr

a00076e4 <prvAddCurrentTaskToDelayedList>:
a00076e4:	e52de004 	push	{lr}		; (str lr, [sp, #-4]!)
a00076e8:	e24dd00c 	sub	sp, sp, #12
a00076ec:	e58d0004 	str	r0, [sp, #4]
a00076f0:	e59f30b0 	ldr	r3, [pc, #176]	; a00077a8 <prvAddCurrentTaskToDelayedList+0xc4>
a00076f4:	e08f3003 	add	r3, pc, r3
a00076f8:	e59f20ac 	ldr	r2, [pc, #172]	; a00077ac <prvAddCurrentTaskToDelayedList+0xc8>
a00076fc:	e7932002 	ldr	r2, [r3, r2]
a0007700:	e5922000 	ldr	r2, [r2]
a0007704:	e59d1004 	ldr	r1, [sp, #4]
a0007708:	e5821004 	str	r1, [r2, #4]
a000770c:	e59f209c 	ldr	r2, [pc, #156]	; a00077b0 <prvAddCurrentTaskToDelayedList+0xcc>
a0007710:	e08f2002 	add	r2, pc, r2
a0007714:	e5922000 	ldr	r2, [r2]
a0007718:	e59d1004 	ldr	r1, [sp, #4]
a000771c:	e1510002 	cmp	r1, r2
a0007720:	2a00000a 	bcs	a0007750 <prvAddCurrentTaskToDelayedList+0x6c>
a0007724:	e59f2088 	ldr	r2, [pc, #136]	; a00077b4 <prvAddCurrentTaskToDelayedList+0xd0>
a0007728:	e08f2002 	add	r2, pc, r2
a000772c:	e5922000 	ldr	r2, [r2]
a0007730:	e59f1074 	ldr	r1, [pc, #116]	; a00077ac <prvAddCurrentTaskToDelayedList+0xc8>
a0007734:	e7933001 	ldr	r3, [r3, r1]
a0007738:	e5933000 	ldr	r3, [r3]
a000773c:	e2833004 	add	r3, r3, #4
a0007740:	e1a00002 	mov	r0, r2
a0007744:	e1a01003 	mov	r1, r3
a0007748:	ebfff4b5 	bl	a0004a24 <vListInsert>
a000774c:	ea000013 	b	a00077a0 <prvAddCurrentTaskToDelayedList+0xbc>
a0007750:	e59f2060 	ldr	r2, [pc, #96]	; a00077b8 <prvAddCurrentTaskToDelayedList+0xd4>
a0007754:	e08f2002 	add	r2, pc, r2
a0007758:	e5922000 	ldr	r2, [r2]
a000775c:	e59f1048 	ldr	r1, [pc, #72]	; a00077ac <prvAddCurrentTaskToDelayedList+0xc8>
a0007760:	e7933001 	ldr	r3, [r3, r1]
a0007764:	e5933000 	ldr	r3, [r3]
a0007768:	e2833004 	add	r3, r3, #4
a000776c:	e1a00002 	mov	r0, r2
a0007770:	e1a01003 	mov	r1, r3
a0007774:	ebfff4aa 	bl	a0004a24 <vListInsert>
a0007778:	e59f303c 	ldr	r3, [pc, #60]	; a00077bc <prvAddCurrentTaskToDelayedList+0xd8>
a000777c:	e08f3003 	add	r3, pc, r3
a0007780:	e5933000 	ldr	r3, [r3]
a0007784:	e59d2004 	ldr	r2, [sp, #4]
a0007788:	e1520003 	cmp	r2, r3
a000778c:	2a000003 	bcs	a00077a0 <prvAddCurrentTaskToDelayedList+0xbc>
a0007790:	e59f3028 	ldr	r3, [pc, #40]	; a00077c0 <prvAddCurrentTaskToDelayedList+0xdc>
a0007794:	e08f3003 	add	r3, pc, r3
a0007798:	e59d2004 	ldr	r2, [sp, #4]
a000779c:	e5832000 	str	r2, [r3]
a00077a0:	e28dd00c 	add	sp, sp, #12
a00077a4:	e49df004 	pop	{pc}		; (ldr pc, [sp], #4)
a00077a8:	00001fac 	andeq	r1, r0, ip, lsr #31
a00077ac:	00000000 	andeq	r0, r0, r0
a00077b0:	0000238c 	andeq	r2, r0, ip, lsl #7
a00077b4:	00002344 	andeq	r2, r0, r4, asr #6
a00077b8:	00002314 	andeq	r2, r0, r4, lsl r3
a00077bc:	00002064 	andeq	r2, r0, r4, rrx
a00077c0:	0000204c 	andeq	r2, r0, ip, asr #32

a00077c4 <prvAllocateTCBAndStack>:
a00077c4:	e52de004 	push	{lr}		; (str lr, [sp, #-4]!)
a00077c8:	e24dd014 	sub	sp, sp, #20
a00077cc:	e1a03000 	mov	r3, r0
a00077d0:	e58d1000 	str	r1, [sp]
a00077d4:	e1cd30b6 	strh	r3, [sp, #6]
a00077d8:	e3a00050 	mov	r0, #80	; 0x50
a00077dc:	eb0006dd 	bl	a0009358 <pvPortMalloc>
a00077e0:	e58d000c 	str	r0, [sp, #12]
a00077e4:	e59d300c 	ldr	r3, [sp, #12]
a00077e8:	e3530000 	cmp	r3, #0
a00077ec:	0a00001c 	beq	a0007864 <prvAllocateTCBAndStack+0xa0>
a00077f0:	e59d3000 	ldr	r3, [sp]
a00077f4:	e3530000 	cmp	r3, #0
a00077f8:	1a000005 	bne	a0007814 <prvAllocateTCBAndStack+0x50>
a00077fc:	e1dd30b6 	ldrh	r3, [sp, #6]
a0007800:	e1a03103 	lsl	r3, r3, #2
a0007804:	e1a00003 	mov	r0, r3
a0007808:	eb0006d2 	bl	a0009358 <pvPortMalloc>
a000780c:	e1a03000 	mov	r3, r0
a0007810:	ea000000 	b	a0007818 <prvAllocateTCBAndStack+0x54>
a0007814:	e59d3000 	ldr	r3, [sp]
a0007818:	e59d200c 	ldr	r2, [sp, #12]
a000781c:	e5823030 	str	r3, [r2, #48]	; 0x30
a0007820:	e59d300c 	ldr	r3, [sp, #12]
a0007824:	e5933030 	ldr	r3, [r3, #48]	; 0x30
a0007828:	e3530000 	cmp	r3, #0
a000782c:	1a000004 	bne	a0007844 <prvAllocateTCBAndStack+0x80>
a0007830:	e59d000c 	ldr	r0, [sp, #12]
a0007834:	eb000705 	bl	a0009450 <vPortFree>
a0007838:	e3a03000 	mov	r3, #0
a000783c:	e58d300c 	str	r3, [sp, #12]
a0007840:	ea000007 	b	a0007864 <prvAllocateTCBAndStack+0xa0>
a0007844:	e59d300c 	ldr	r3, [sp, #12]
a0007848:	e5932030 	ldr	r2, [r3, #48]	; 0x30
a000784c:	e1dd30b6 	ldrh	r3, [sp, #6]
a0007850:	e1a03103 	lsl	r3, r3, #2
a0007854:	e1a00002 	mov	r0, r2
a0007858:	e3a010a5 	mov	r1, #165	; 0xa5
a000785c:	e1a02003 	mov	r2, r3
a0007860:	ebffeccf 	bl	a0002ba4 <memset>
a0007864:	e59d300c 	ldr	r3, [sp, #12]
a0007868:	e1a00003 	mov	r0, r3
a000786c:	e28dd014 	add	sp, sp, #20
a0007870:	e49df004 	pop	{pc}		; (ldr pc, [sp], #4)

a0007874 <prvListTaskWithinSingleList>:
a0007874:	e52de004 	push	{lr}		; (str lr, [sp, #-4]!)
a0007878:	e24dd03c 	sub	sp, sp, #60	; 0x3c
a000787c:	e58d001c 	str	r0, [sp, #28]
a0007880:	e58d1018 	str	r1, [sp, #24]
a0007884:	e1a03002 	mov	r3, r2
a0007888:	e5cd3017 	strb	r3, [sp, #23]
a000788c:	e59d3018 	ldr	r3, [sp, #24]
a0007890:	e58d3034 	str	r3, [sp, #52]	; 0x34
a0007894:	e59d3034 	ldr	r3, [sp, #52]	; 0x34
a0007898:	e5933004 	ldr	r3, [r3, #4]
a000789c:	e5932004 	ldr	r2, [r3, #4]
a00078a0:	e59d3034 	ldr	r3, [sp, #52]	; 0x34
a00078a4:	e5832004 	str	r2, [r3, #4]
a00078a8:	e59d3034 	ldr	r3, [sp, #52]	; 0x34
a00078ac:	e5932004 	ldr	r2, [r3, #4]
a00078b0:	e59d3034 	ldr	r3, [sp, #52]	; 0x34
a00078b4:	e2833008 	add	r3, r3, #8
a00078b8:	e1520003 	cmp	r2, r3
a00078bc:	1a000004 	bne	a00078d4 <prvListTaskWithinSingleList+0x60>
a00078c0:	e59d3034 	ldr	r3, [sp, #52]	; 0x34
a00078c4:	e5933004 	ldr	r3, [r3, #4]
a00078c8:	e5932004 	ldr	r2, [r3, #4]
a00078cc:	e59d3034 	ldr	r3, [sp, #52]	; 0x34
a00078d0:	e5832004 	str	r2, [r3, #4]
a00078d4:	e59d3034 	ldr	r3, [sp, #52]	; 0x34
a00078d8:	e5933004 	ldr	r3, [r3, #4]
a00078dc:	e593300c 	ldr	r3, [r3, #12]
a00078e0:	e58d3030 	str	r3, [sp, #48]	; 0x30
a00078e4:	e59d3018 	ldr	r3, [sp, #24]
a00078e8:	e58d302c 	str	r3, [sp, #44]	; 0x2c
a00078ec:	e59d302c 	ldr	r3, [sp, #44]	; 0x2c
a00078f0:	e5933004 	ldr	r3, [r3, #4]
a00078f4:	e5932004 	ldr	r2, [r3, #4]
a00078f8:	e59d302c 	ldr	r3, [sp, #44]	; 0x2c
a00078fc:	e5832004 	str	r2, [r3, #4]
a0007900:	e59d302c 	ldr	r3, [sp, #44]	; 0x2c
a0007904:	e5932004 	ldr	r2, [r3, #4]
a0007908:	e59d302c 	ldr	r3, [sp, #44]	; 0x2c
a000790c:	e2833008 	add	r3, r3, #8
a0007910:	e1520003 	cmp	r2, r3
a0007914:	1a000004 	bne	a000792c <prvListTaskWithinSingleList+0xb8>
a0007918:	e59d302c 	ldr	r3, [sp, #44]	; 0x2c
a000791c:	e5933004 	ldr	r3, [r3, #4]
a0007920:	e5932004 	ldr	r2, [r3, #4]
a0007924:	e59d302c 	ldr	r3, [sp, #44]	; 0x2c
a0007928:	e5832004 	str	r2, [r3, #4]
a000792c:	e59d302c 	ldr	r3, [sp, #44]	; 0x2c
a0007930:	e5933004 	ldr	r3, [r3, #4]
a0007934:	e593300c 	ldr	r3, [r3, #12]
a0007938:	e58d3028 	str	r3, [sp, #40]	; 0x28
a000793c:	e59d3028 	ldr	r3, [sp, #40]	; 0x28
a0007940:	e5933030 	ldr	r3, [r3, #48]	; 0x30
a0007944:	e1a00003 	mov	r0, r3
a0007948:	eb000020 	bl	a00079d0 <usTaskCheckFreeStackSpace>
a000794c:	e1a03000 	mov	r3, r0
a0007950:	e1cd32b6 	strh	r3, [sp, #38]	; 0x26
a0007954:	e59d3028 	ldr	r3, [sp, #40]	; 0x28
a0007958:	e2832034 	add	r2, r3, #52	; 0x34
a000795c:	e1dd31d7 	ldrsb	r3, [sp, #23]
a0007960:	e59d1028 	ldr	r1, [sp, #40]	; 0x28
a0007964:	e591c02c 	ldr	ip, [r1, #44]	; 0x2c
a0007968:	e1dd02b6 	ldrh	r0, [sp, #38]	; 0x26
a000796c:	e59d1028 	ldr	r1, [sp, #40]	; 0x28
a0007970:	e5911048 	ldr	r1, [r1, #72]	; 0x48
a0007974:	e58dc000 	str	ip, [sp]
a0007978:	e58d0004 	str	r0, [sp, #4]
a000797c:	e58d1008 	str	r1, [sp, #8]
a0007980:	e59f103c 	ldr	r1, [pc, #60]	; a00079c4 <prvListTaskWithinSingleList+0x150>
a0007984:	e08f1001 	add	r1, pc, r1
a0007988:	e1a00001 	mov	r0, r1
a000798c:	e59f1034 	ldr	r1, [pc, #52]	; a00079c8 <prvListTaskWithinSingleList+0x154>
a0007990:	e08f1001 	add	r1, pc, r1
a0007994:	ebfff1ac 	bl	a000404c <sprintf>
a0007998:	e59d001c 	ldr	r0, [sp, #28]
a000799c:	e59f3028 	ldr	r3, [pc, #40]	; a00079cc <prvListTaskWithinSingleList+0x158>
a00079a0:	e08f3003 	add	r3, pc, r3
a00079a4:	e1a01003 	mov	r1, r3
a00079a8:	ebffeaeb 	bl	a000255c <strcat>
a00079ac:	e59d2028 	ldr	r2, [sp, #40]	; 0x28
a00079b0:	e59d3030 	ldr	r3, [sp, #48]	; 0x30
a00079b4:	e1520003 	cmp	r2, r3
a00079b8:	1affffc9 	bne	a00078e4 <prvListTaskWithinSingleList+0x70>
a00079bc:	e28dd03c 	add	sp, sp, #60	; 0x3c
a00079c0:	e49df004 	pop	{pc}		; (ldr pc, [sp], #4)
a00079c4:	0000214c 	andeq	r2, r0, ip, asr #2
a00079c8:	00001c3c 	andeq	r1, r0, ip, lsr ip
a00079cc:	00002130 	andeq	r2, r0, r0, lsr r1

a00079d0 <usTaskCheckFreeStackSpace>:
a00079d0:	e52d4004 	push	{r4}		; (str r4, [sp, #-4]!)
a00079d4:	e24dd00c 	sub	sp, sp, #12
a00079d8:	e58d0004 	str	r0, [sp, #4]
a00079dc:	e3a04000 	mov	r4, #0
a00079e0:	ea000005 	b	a00079fc <usTaskCheckFreeStackSpace+0x2c>
a00079e4:	e59d3004 	ldr	r3, [sp, #4]
a00079e8:	e2833001 	add	r3, r3, #1
a00079ec:	e58d3004 	str	r3, [sp, #4]
a00079f0:	e1a03004 	mov	r3, r4
a00079f4:	e2833001 	add	r3, r3, #1
a00079f8:	e6ff4073 	uxth	r4, r3
a00079fc:	e59d3004 	ldr	r3, [sp, #4]
a0007a00:	e5d33000 	ldrb	r3, [r3]
a0007a04:	e35300a5 	cmp	r3, #165	; 0xa5
a0007a08:	0afffff5 	beq	a00079e4 <usTaskCheckFreeStackSpace+0x14>
a0007a0c:	e1a03124 	lsr	r3, r4, #2
a0007a10:	e6ff4073 	uxth	r4, r3
a0007a14:	e1a03004 	mov	r3, r4
a0007a18:	e1a00003 	mov	r0, r3
a0007a1c:	e28dd00c 	add	sp, sp, #12
a0007a20:	e49d4004 	pop	{r4}		; (ldr r4, [sp], #4)
a0007a24:	e12fff1e 	bx	lr

a0007a28 <xTaskGetCurrentTaskHandle>:
a0007a28:	e24dd008 	sub	sp, sp, #8
a0007a2c:	e59f2020 	ldr	r2, [pc, #32]	; a0007a54 <xTaskGetCurrentTaskHandle+0x2c>
a0007a30:	e08f2002 	add	r2, pc, r2
a0007a34:	e59f301c 	ldr	r3, [pc, #28]	; a0007a58 <xTaskGetCurrentTaskHandle+0x30>
a0007a38:	e7923003 	ldr	r3, [r2, r3]
a0007a3c:	e5933000 	ldr	r3, [r3]
a0007a40:	e58d3004 	str	r3, [sp, #4]
a0007a44:	e59d3004 	ldr	r3, [sp, #4]
a0007a48:	e1a00003 	mov	r0, r3
a0007a4c:	e28dd008 	add	sp, sp, #8
a0007a50:	e12fff1e 	bx	lr
a0007a54:	00001c70 	andeq	r1, r0, r0, ror ip
a0007a58:	00000000 	andeq	r0, r0, r0

a0007a5c <xTaskGetSchedulerState>:
a0007a5c:	e24dd008 	sub	sp, sp, #8
a0007a60:	e59f3050 	ldr	r3, [pc, #80]	; a0007ab8 <xTaskGetSchedulerState+0x5c>
a0007a64:	e08f3003 	add	r3, pc, r3
a0007a68:	e5933000 	ldr	r3, [r3]
a0007a6c:	e3530000 	cmp	r3, #0
a0007a70:	1a000002 	bne	a0007a80 <xTaskGetSchedulerState+0x24>
a0007a74:	e3a03000 	mov	r3, #0
a0007a78:	e58d3004 	str	r3, [sp, #4]
a0007a7c:	ea000009 	b	a0007aa8 <xTaskGetSchedulerState+0x4c>
a0007a80:	e59f3034 	ldr	r3, [pc, #52]	; a0007abc <xTaskGetSchedulerState+0x60>
a0007a84:	e08f3003 	add	r3, pc, r3
a0007a88:	e5933000 	ldr	r3, [r3]
a0007a8c:	e3530000 	cmp	r3, #0
a0007a90:	1a000002 	bne	a0007aa0 <xTaskGetSchedulerState+0x44>
a0007a94:	e3a03001 	mov	r3, #1
a0007a98:	e58d3004 	str	r3, [sp, #4]
a0007a9c:	ea000001 	b	a0007aa8 <xTaskGetSchedulerState+0x4c>
a0007aa0:	e3a03002 	mov	r3, #2
a0007aa4:	e58d3004 	str	r3, [sp, #4]
a0007aa8:	e59d3004 	ldr	r3, [sp, #4]
a0007aac:	e1a00003 	mov	r0, r3
a0007ab0:	e28dd008 	add	sp, sp, #8
a0007ab4:	e12fff1e 	bx	lr
a0007ab8:	00002044 	andeq	r2, r0, r4, asr #32
a0007abc:	00002028 	andeq	r2, r0, r8, lsr #32

a0007ac0 <vTaskPriorityInherit>:
a0007ac0:	e92d4010 	push	{r4, lr}
a0007ac4:	e24dd010 	sub	sp, sp, #16
a0007ac8:	e58d0004 	str	r0, [sp, #4]
a0007acc:	e59f412c 	ldr	r4, [pc, #300]	; a0007c00 <vTaskPriorityInherit+0x140>
a0007ad0:	e08f4004 	add	r4, pc, r4
a0007ad4:	e59d3004 	ldr	r3, [sp, #4]
a0007ad8:	e58d300c 	str	r3, [sp, #12]
a0007adc:	e59d300c 	ldr	r3, [sp, #12]
a0007ae0:	e593202c 	ldr	r2, [r3, #44]	; 0x2c
a0007ae4:	e59f3118 	ldr	r3, [pc, #280]	; a0007c04 <vTaskPriorityInherit+0x144>
a0007ae8:	e7943003 	ldr	r3, [r4, r3]
a0007aec:	e5933000 	ldr	r3, [r3]
a0007af0:	e593302c 	ldr	r3, [r3, #44]	; 0x2c
a0007af4:	e1520003 	cmp	r2, r3
a0007af8:	2a00003e 	bcs	a0007bf8 <vTaskPriorityInherit+0x138>
a0007afc:	e59f3100 	ldr	r3, [pc, #256]	; a0007c04 <vTaskPriorityInherit+0x144>
a0007b00:	e7943003 	ldr	r3, [r4, r3]
a0007b04:	e5933000 	ldr	r3, [r3]
a0007b08:	e593302c 	ldr	r3, [r3, #44]	; 0x2c
a0007b0c:	e263200a 	rsb	r2, r3, #10
a0007b10:	e59d300c 	ldr	r3, [sp, #12]
a0007b14:	e5832018 	str	r2, [r3, #24]
a0007b18:	e59d300c 	ldr	r3, [sp, #12]
a0007b1c:	e5931014 	ldr	r1, [r3, #20]
a0007b20:	e59d300c 	ldr	r3, [sp, #12]
a0007b24:	e593202c 	ldr	r2, [r3, #44]	; 0x2c
a0007b28:	e1a03002 	mov	r3, r2
a0007b2c:	e1a03103 	lsl	r3, r3, #2
a0007b30:	e0833002 	add	r3, r3, r2
a0007b34:	e1a03103 	lsl	r3, r3, #2
a0007b38:	e59f20c8 	ldr	r2, [pc, #200]	; a0007c08 <vTaskPriorityInherit+0x148>
a0007b3c:	e08f2002 	add	r2, pc, r2
a0007b40:	e0833002 	add	r3, r3, r2
a0007b44:	e1510003 	cmp	r1, r3
a0007b48:	1a000024 	bne	a0007be0 <vTaskPriorityInherit+0x120>
a0007b4c:	e59d300c 	ldr	r3, [sp, #12]
a0007b50:	e2833004 	add	r3, r3, #4
a0007b54:	e1a00003 	mov	r0, r3
a0007b58:	ebfff3e3 	bl	a0004aec <vListRemove>
a0007b5c:	e59f30a0 	ldr	r3, [pc, #160]	; a0007c04 <vTaskPriorityInherit+0x144>
a0007b60:	e7943003 	ldr	r3, [r4, r3]
a0007b64:	e5933000 	ldr	r3, [r3]
a0007b68:	e593202c 	ldr	r2, [r3, #44]	; 0x2c
a0007b6c:	e59d300c 	ldr	r3, [sp, #12]
a0007b70:	e583202c 	str	r2, [r3, #44]	; 0x2c
a0007b74:	e59d300c 	ldr	r3, [sp, #12]
a0007b78:	e593202c 	ldr	r2, [r3, #44]	; 0x2c
a0007b7c:	e59f3088 	ldr	r3, [pc, #136]	; a0007c0c <vTaskPriorityInherit+0x14c>
a0007b80:	e08f3003 	add	r3, pc, r3
a0007b84:	e5933000 	ldr	r3, [r3]
a0007b88:	e1520003 	cmp	r2, r3
a0007b8c:	9a000004 	bls	a0007ba4 <vTaskPriorityInherit+0xe4>
a0007b90:	e59d300c 	ldr	r3, [sp, #12]
a0007b94:	e593202c 	ldr	r2, [r3, #44]	; 0x2c
a0007b98:	e59f3070 	ldr	r3, [pc, #112]	; a0007c10 <vTaskPriorityInherit+0x150>
a0007b9c:	e08f3003 	add	r3, pc, r3
a0007ba0:	e5832000 	str	r2, [r3]
a0007ba4:	e59d300c 	ldr	r3, [sp, #12]
a0007ba8:	e593202c 	ldr	r2, [r3, #44]	; 0x2c
a0007bac:	e1a03002 	mov	r3, r2
a0007bb0:	e1a03103 	lsl	r3, r3, #2
a0007bb4:	e0833002 	add	r3, r3, r2
a0007bb8:	e1a03103 	lsl	r3, r3, #2
a0007bbc:	e59f2050 	ldr	r2, [pc, #80]	; a0007c14 <vTaskPriorityInherit+0x154>
a0007bc0:	e08f2002 	add	r2, pc, r2
a0007bc4:	e0832002 	add	r2, r3, r2
a0007bc8:	e59d300c 	ldr	r3, [sp, #12]
a0007bcc:	e2833004 	add	r3, r3, #4
a0007bd0:	e1a00002 	mov	r0, r2
a0007bd4:	e1a01003 	mov	r1, r3
a0007bd8:	ebfff36f 	bl	a000499c <vListInsertEnd>
a0007bdc:	ea000005 	b	a0007bf8 <vTaskPriorityInherit+0x138>
a0007be0:	e59f301c 	ldr	r3, [pc, #28]	; a0007c04 <vTaskPriorityInherit+0x144>
a0007be4:	e7943003 	ldr	r3, [r4, r3]
a0007be8:	e5933000 	ldr	r3, [r3]
a0007bec:	e593202c 	ldr	r2, [r3, #44]	; 0x2c
a0007bf0:	e59d300c 	ldr	r3, [sp, #12]
a0007bf4:	e583202c 	str	r2, [r3, #44]	; 0x2c
a0007bf8:	e28dd010 	add	sp, sp, #16
a0007bfc:	e8bd8010 	pop	{r4, pc}
a0007c00:	00001bd0 	ldrdeq	r1, [r0], -r0
a0007c04:	00000000 	andeq	r0, r0, r0
a0007c08:	00001e3c 	andeq	r1, r0, ip, lsr lr
a0007c0c:	00001f24 	andeq	r1, r0, r4, lsr #30
a0007c10:	00001f08 	andeq	r1, r0, r8, lsl #30
a0007c14:	00001db8 			; <UNDEFINED> instruction: 0x00001db8

a0007c18 <vTaskPriorityDisinherit>:
a0007c18:	e52de004 	push	{lr}		; (str lr, [sp, #-4]!)
a0007c1c:	e24dd014 	sub	sp, sp, #20
a0007c20:	e58d0004 	str	r0, [sp, #4]
a0007c24:	e59d3004 	ldr	r3, [sp, #4]
a0007c28:	e58d300c 	str	r3, [sp, #12]
a0007c2c:	e59d3004 	ldr	r3, [sp, #4]
a0007c30:	e3530000 	cmp	r3, #0
a0007c34:	0a00002c 	beq	a0007cec <vTaskPriorityDisinherit+0xd4>
a0007c38:	e59d300c 	ldr	r3, [sp, #12]
a0007c3c:	e593202c 	ldr	r2, [r3, #44]	; 0x2c
a0007c40:	e59d300c 	ldr	r3, [sp, #12]
a0007c44:	e593304c 	ldr	r3, [r3, #76]	; 0x4c
a0007c48:	e1520003 	cmp	r2, r3
a0007c4c:	0a000026 	beq	a0007cec <vTaskPriorityDisinherit+0xd4>
a0007c50:	e59d300c 	ldr	r3, [sp, #12]
a0007c54:	e2833004 	add	r3, r3, #4
a0007c58:	e1a00003 	mov	r0, r3
a0007c5c:	ebfff3a2 	bl	a0004aec <vListRemove>
a0007c60:	e59d300c 	ldr	r3, [sp, #12]
a0007c64:	e593204c 	ldr	r2, [r3, #76]	; 0x4c
a0007c68:	e59d300c 	ldr	r3, [sp, #12]
a0007c6c:	e583202c 	str	r2, [r3, #44]	; 0x2c
a0007c70:	e59d300c 	ldr	r3, [sp, #12]
a0007c74:	e593302c 	ldr	r3, [r3, #44]	; 0x2c
a0007c78:	e263200a 	rsb	r2, r3, #10
a0007c7c:	e59d300c 	ldr	r3, [sp, #12]
a0007c80:	e5832018 	str	r2, [r3, #24]
a0007c84:	e59d300c 	ldr	r3, [sp, #12]
a0007c88:	e593202c 	ldr	r2, [r3, #44]	; 0x2c
a0007c8c:	e59f3060 	ldr	r3, [pc, #96]	; a0007cf4 <vTaskPriorityDisinherit+0xdc>
a0007c90:	e08f3003 	add	r3, pc, r3
a0007c94:	e5933000 	ldr	r3, [r3]
a0007c98:	e1520003 	cmp	r2, r3
a0007c9c:	9a000004 	bls	a0007cb4 <vTaskPriorityDisinherit+0x9c>
a0007ca0:	e59d300c 	ldr	r3, [sp, #12]
a0007ca4:	e593202c 	ldr	r2, [r3, #44]	; 0x2c
a0007ca8:	e59f3048 	ldr	r3, [pc, #72]	; a0007cf8 <vTaskPriorityDisinherit+0xe0>
a0007cac:	e08f3003 	add	r3, pc, r3
a0007cb0:	e5832000 	str	r2, [r3]
a0007cb4:	e59d300c 	ldr	r3, [sp, #12]
a0007cb8:	e593202c 	ldr	r2, [r3, #44]	; 0x2c
a0007cbc:	e1a03002 	mov	r3, r2
a0007cc0:	e1a03103 	lsl	r3, r3, #2
a0007cc4:	e0833002 	add	r3, r3, r2
a0007cc8:	e1a03103 	lsl	r3, r3, #2
a0007ccc:	e59f2028 	ldr	r2, [pc, #40]	; a0007cfc <vTaskPriorityDisinherit+0xe4>
a0007cd0:	e08f2002 	add	r2, pc, r2
a0007cd4:	e0832002 	add	r2, r3, r2
a0007cd8:	e59d300c 	ldr	r3, [sp, #12]
a0007cdc:	e2833004 	add	r3, r3, #4
a0007ce0:	e1a00002 	mov	r0, r2
a0007ce4:	e1a01003 	mov	r1, r3
a0007ce8:	ebfff32b 	bl	a000499c <vListInsertEnd>
a0007cec:	e28dd014 	add	sp, sp, #20
a0007cf0:	e49df004 	pop	{pc}		; (ldr pc, [sp], #4)
a0007cf4:	00001e14 	andeq	r1, r0, r4, lsl lr
a0007cf8:	00001df8 	strdeq	r1, [r0], -r8
a0007cfc:	00001ca8 	andeq	r1, r0, r8, lsr #25

a0007d00 <vTaskEnterCritical>:
a0007d00:	e92d4010 	push	{r4, lr}
a0007d04:	e59f4034 	ldr	r4, [pc, #52]	; a0007d40 <vTaskEnterCritical+0x40>
a0007d08:	e08f4004 	add	r4, pc, r4
a0007d0c:	eb00050d 	bl	a0009148 <xPortSetInterruptMask>
a0007d10:	e59f302c 	ldr	r3, [pc, #44]	; a0007d44 <vTaskEnterCritical+0x44>
a0007d14:	e08f3003 	add	r3, pc, r3
a0007d18:	e5933000 	ldr	r3, [r3]
a0007d1c:	e3530000 	cmp	r3, #0
a0007d20:	0a000005 	beq	a0007d3c <vTaskEnterCritical+0x3c>
a0007d24:	e59f301c 	ldr	r3, [pc, #28]	; a0007d48 <vTaskEnterCritical+0x48>
a0007d28:	e7943003 	ldr	r3, [r4, r3]
a0007d2c:	e5933000 	ldr	r3, [r3]
a0007d30:	e5932044 	ldr	r2, [r3, #68]	; 0x44
a0007d34:	e2822001 	add	r2, r2, #1
a0007d38:	e5832044 	str	r2, [r3, #68]	; 0x44
a0007d3c:	e8bd8010 	pop	{r4, pc}
a0007d40:	00001998 	muleq	r0, r8, r9
a0007d44:	00001d94 	muleq	r0, r4, sp
a0007d48:	00000000 	andeq	r0, r0, r0

a0007d4c <vTaskExitCritical>:
a0007d4c:	e92d4008 	push	{r3, lr}
a0007d50:	e59f3068 	ldr	r3, [pc, #104]	; a0007dc0 <vTaskExitCritical+0x74>
a0007d54:	e08f3003 	add	r3, pc, r3
a0007d58:	e59f2064 	ldr	r2, [pc, #100]	; a0007dc4 <vTaskExitCritical+0x78>
a0007d5c:	e08f2002 	add	r2, pc, r2
a0007d60:	e5922000 	ldr	r2, [r2]
a0007d64:	e3520000 	cmp	r2, #0
a0007d68:	0a000013 	beq	a0007dbc <vTaskExitCritical+0x70>
a0007d6c:	e59f2054 	ldr	r2, [pc, #84]	; a0007dc8 <vTaskExitCritical+0x7c>
a0007d70:	e7932002 	ldr	r2, [r3, r2]
a0007d74:	e5922000 	ldr	r2, [r2]
a0007d78:	e5922044 	ldr	r2, [r2, #68]	; 0x44
a0007d7c:	e3520000 	cmp	r2, #0
a0007d80:	0a00000d 	beq	a0007dbc <vTaskExitCritical+0x70>
a0007d84:	e59f203c 	ldr	r2, [pc, #60]	; a0007dc8 <vTaskExitCritical+0x7c>
a0007d88:	e7932002 	ldr	r2, [r3, r2]
a0007d8c:	e5922000 	ldr	r2, [r2]
a0007d90:	e5921044 	ldr	r1, [r2, #68]	; 0x44
a0007d94:	e2411001 	sub	r1, r1, #1
a0007d98:	e5821044 	str	r1, [r2, #68]	; 0x44
a0007d9c:	e59f2024 	ldr	r2, [pc, #36]	; a0007dc8 <vTaskExitCritical+0x7c>
a0007da0:	e7933002 	ldr	r3, [r3, r2]
a0007da4:	e5933000 	ldr	r3, [r3]
a0007da8:	e5933044 	ldr	r3, [r3, #68]	; 0x44
a0007dac:	e3530000 	cmp	r3, #0
a0007db0:	1a000001 	bne	a0007dbc <vTaskExitCritical+0x70>
a0007db4:	e3a000ff 	mov	r0, #255	; 0xff
a0007db8:	eb0004ef 	bl	a000917c <vPortClearInterruptMask>
a0007dbc:	e8bd8008 	pop	{r3, pc}
a0007dc0:	0000194c 	andeq	r1, r0, ip, asr #18
a0007dc4:	00001d4c 	andeq	r1, r0, ip, asr #26
a0007dc8:	00000000 	andeq	r0, r0, r0

a0007dcc <xTimerCreateTimerTask>:
a0007dcc:	e52de004 	push	{lr}		; (str lr, [sp, #-4]!)
a0007dd0:	e24dd01c 	sub	sp, sp, #28
a0007dd4:	e3a03000 	mov	r3, #0
a0007dd8:	e58d3014 	str	r3, [sp, #20]
a0007ddc:	eb000230 	bl	a00086a4 <prvCheckForValidListAndQueue>
a0007de0:	e59f3064 	ldr	r3, [pc, #100]	; a0007e4c <xTimerCreateTimerTask+0x80>
a0007de4:	e08f3003 	add	r3, pc, r3
a0007de8:	e5933000 	ldr	r3, [r3]
a0007dec:	e3530000 	cmp	r3, #0
a0007df0:	0a000011 	beq	a0007e3c <xTimerCreateTimerTask+0x70>
a0007df4:	e3a03002 	mov	r3, #2
a0007df8:	e58d3000 	str	r3, [sp]
a0007dfc:	e3a03000 	mov	r3, #0
a0007e00:	e58d3004 	str	r3, [sp, #4]
a0007e04:	e3a03000 	mov	r3, #0
a0007e08:	e58d3008 	str	r3, [sp, #8]
a0007e0c:	e3a03000 	mov	r3, #0
a0007e10:	e58d300c 	str	r3, [sp, #12]
a0007e14:	e59f3034 	ldr	r3, [pc, #52]	; a0007e50 <xTimerCreateTimerTask+0x84>
a0007e18:	e08f3003 	add	r3, pc, r3
a0007e1c:	e1a00003 	mov	r0, r3
a0007e20:	e59f302c 	ldr	r3, [pc, #44]	; a0007e54 <xTimerCreateTimerTask+0x88>
a0007e24:	e08f3003 	add	r3, pc, r3
a0007e28:	e1a01003 	mov	r1, r3
a0007e2c:	e3a02b01 	mov	r2, #1024	; 0x400
a0007e30:	e3a03000 	mov	r3, #0
a0007e34:	ebfff701 	bl	a0005a40 <xTaskGenericCreate>
a0007e38:	e58d0014 	str	r0, [sp, #20]
a0007e3c:	e59d3014 	ldr	r3, [sp, #20]
a0007e40:	e1a00003 	mov	r0, r3
a0007e44:	e28dd01c 	add	sp, sp, #28
a0007e48:	e49df004 	pop	{pc}		; (ldr pc, [sp], #4)
a0007e4c:	00001d50 	andeq	r1, r0, r0, asr sp
a0007e50:	0000029c 	muleq	r0, ip, r2
a0007e54:	000017bc 			; <UNDEFINED> instruction: 0x000017bc

a0007e58 <xTimerCreate>:
a0007e58:	e52de004 	push	{lr}		; (str lr, [sp, #-4]!)
a0007e5c:	e24dd01c 	sub	sp, sp, #28
a0007e60:	e58d000c 	str	r0, [sp, #12]
a0007e64:	e58d1008 	str	r1, [sp, #8]
a0007e68:	e58d2004 	str	r2, [sp, #4]
a0007e6c:	e58d3000 	str	r3, [sp]
a0007e70:	e59d3008 	ldr	r3, [sp, #8]
a0007e74:	e3530000 	cmp	r3, #0
a0007e78:	1a000002 	bne	a0007e88 <xTimerCreate+0x30>
a0007e7c:	e3a03000 	mov	r3, #0
a0007e80:	e58d3014 	str	r3, [sp, #20]
a0007e84:	ea000019 	b	a0007ef0 <xTimerCreate+0x98>
a0007e88:	e3a00028 	mov	r0, #40	; 0x28
a0007e8c:	eb000531 	bl	a0009358 <pvPortMalloc>
a0007e90:	e58d0014 	str	r0, [sp, #20]
a0007e94:	e59d3014 	ldr	r3, [sp, #20]
a0007e98:	e3530000 	cmp	r3, #0
a0007e9c:	0a000013 	beq	a0007ef0 <xTimerCreate+0x98>
a0007ea0:	eb0001ff 	bl	a00086a4 <prvCheckForValidListAndQueue>
a0007ea4:	e59d3014 	ldr	r3, [sp, #20]
a0007ea8:	e59d200c 	ldr	r2, [sp, #12]
a0007eac:	e5832000 	str	r2, [r3]
a0007eb0:	e59d3014 	ldr	r3, [sp, #20]
a0007eb4:	e59d2008 	ldr	r2, [sp, #8]
a0007eb8:	e5832018 	str	r2, [r3, #24]
a0007ebc:	e59d3014 	ldr	r3, [sp, #20]
a0007ec0:	e59d2004 	ldr	r2, [sp, #4]
a0007ec4:	e583201c 	str	r2, [r3, #28]
a0007ec8:	e59d3014 	ldr	r3, [sp, #20]
a0007ecc:	e59d2000 	ldr	r2, [sp]
a0007ed0:	e5832020 	str	r2, [r3, #32]
a0007ed4:	e59d3014 	ldr	r3, [sp, #20]
a0007ed8:	e59d2020 	ldr	r2, [sp, #32]
a0007edc:	e5832024 	str	r2, [r3, #36]	; 0x24
a0007ee0:	e59d3014 	ldr	r3, [sp, #20]
a0007ee4:	e2833004 	add	r3, r3, #4
a0007ee8:	e1a00003 	mov	r0, r3
a0007eec:	ebfff2a3 	bl	a0004980 <vListInitialiseItem>
a0007ef0:	e59d3014 	ldr	r3, [sp, #20]
a0007ef4:	e1a00003 	mov	r0, r3
a0007ef8:	e28dd01c 	add	sp, sp, #28
a0007efc:	e49df004 	pop	{pc}		; (ldr pc, [sp], #4)

a0007f00 <xTimerGenericCommand>:
a0007f00:	e52de004 	push	{lr}		; (str lr, [sp, #-4]!)
a0007f04:	e24dd024 	sub	sp, sp, #36	; 0x24
a0007f08:	e58d000c 	str	r0, [sp, #12]
a0007f0c:	e58d1008 	str	r1, [sp, #8]
a0007f10:	e58d2004 	str	r2, [sp, #4]
a0007f14:	e58d3000 	str	r3, [sp]
a0007f18:	e3a03000 	mov	r3, #0
a0007f1c:	e58d301c 	str	r3, [sp, #28]
a0007f20:	e59f30d0 	ldr	r3, [pc, #208]	; a0007ff8 <xTimerGenericCommand+0xf8>
a0007f24:	e08f3003 	add	r3, pc, r3
a0007f28:	e5933000 	ldr	r3, [r3]
a0007f2c:	e3530000 	cmp	r3, #0
a0007f30:	0a00002c 	beq	a0007fe8 <xTimerGenericCommand+0xe8>
a0007f34:	e59d3008 	ldr	r3, [sp, #8]
a0007f38:	e58d3010 	str	r3, [sp, #16]
a0007f3c:	e59d3004 	ldr	r3, [sp, #4]
a0007f40:	e58d3014 	str	r3, [sp, #20]
a0007f44:	e59d300c 	ldr	r3, [sp, #12]
a0007f48:	e58d3018 	str	r3, [sp, #24]
a0007f4c:	e59d3000 	ldr	r3, [sp]
a0007f50:	e3530000 	cmp	r3, #0
a0007f54:	1a000019 	bne	a0007fc0 <xTimerGenericCommand+0xc0>
a0007f58:	ebfffebf 	bl	a0007a5c <xTaskGetSchedulerState>
a0007f5c:	e1a03000 	mov	r3, r0
a0007f60:	e3530001 	cmp	r3, #1
a0007f64:	1a00000a 	bne	a0007f94 <xTimerGenericCommand+0x94>
a0007f68:	e59f308c 	ldr	r3, [pc, #140]	; a0007ffc <xTimerGenericCommand+0xfc>
a0007f6c:	e08f3003 	add	r3, pc, r3
a0007f70:	e5932000 	ldr	r2, [r3]
a0007f74:	e28d3010 	add	r3, sp, #16
a0007f78:	e1a00002 	mov	r0, r2
a0007f7c:	e1a01003 	mov	r1, r3
a0007f80:	e59d2028 	ldr	r2, [sp, #40]	; 0x28
a0007f84:	e3a03000 	mov	r3, #0
a0007f88:	ebfff3d5 	bl	a0004ee4 <xQueueGenericSend>
a0007f8c:	e58d001c 	str	r0, [sp, #28]
a0007f90:	ea000014 	b	a0007fe8 <xTimerGenericCommand+0xe8>
a0007f94:	e59f3064 	ldr	r3, [pc, #100]	; a0008000 <xTimerGenericCommand+0x100>
a0007f98:	e08f3003 	add	r3, pc, r3
a0007f9c:	e5932000 	ldr	r2, [r3]
a0007fa0:	e28d3010 	add	r3, sp, #16
a0007fa4:	e1a00002 	mov	r0, r2
a0007fa8:	e1a01003 	mov	r1, r3
a0007fac:	e3a02000 	mov	r2, #0
a0007fb0:	e3a03000 	mov	r3, #0
a0007fb4:	ebfff3ca 	bl	a0004ee4 <xQueueGenericSend>
a0007fb8:	e58d001c 	str	r0, [sp, #28]
a0007fbc:	ea000009 	b	a0007fe8 <xTimerGenericCommand+0xe8>
a0007fc0:	e59f303c 	ldr	r3, [pc, #60]	; a0008004 <xTimerGenericCommand+0x104>
a0007fc4:	e08f3003 	add	r3, pc, r3
a0007fc8:	e5932000 	ldr	r2, [r3]
a0007fcc:	e28d3010 	add	r3, sp, #16
a0007fd0:	e1a00002 	mov	r0, r2
a0007fd4:	e1a01003 	mov	r1, r3
a0007fd8:	e59d2000 	ldr	r2, [sp]
a0007fdc:	e3a03000 	mov	r3, #0
a0007fe0:	ebfff43d 	bl	a00050dc <xQueueGenericSendFromISR>
a0007fe4:	e58d001c 	str	r0, [sp, #28]
a0007fe8:	e59d301c 	ldr	r3, [sp, #28]
a0007fec:	e1a00003 	mov	r0, r3
a0007ff0:	e28dd024 	add	sp, sp, #36	; 0x24
a0007ff4:	e49df004 	pop	{pc}		; (ldr pc, [sp], #4)
a0007ff8:	00001c10 	andeq	r1, r0, r0, lsl ip
a0007ffc:	00001bc8 	andeq	r1, r0, r8, asr #23
a0008000:	00001b9c 	muleq	r0, ip, fp
a0008004:	00001b70 	andeq	r1, r0, r0, ror fp

a0008008 <prvProcessExpiredTimer>:
a0008008:	e52de004 	push	{lr}		; (str lr, [sp, #-4]!)
a000800c:	e24dd01c 	sub	sp, sp, #28
a0008010:	e58d000c 	str	r0, [sp, #12]
a0008014:	e58d1008 	str	r1, [sp, #8]
a0008018:	e59f3098 	ldr	r3, [pc, #152]	; a00080b8 <prvProcessExpiredTimer+0xb0>
a000801c:	e08f3003 	add	r3, pc, r3
a0008020:	e5933000 	ldr	r3, [r3]
a0008024:	e593300c 	ldr	r3, [r3, #12]
a0008028:	e593300c 	ldr	r3, [r3, #12]
a000802c:	e58d3014 	str	r3, [sp, #20]
a0008030:	e59d3014 	ldr	r3, [sp, #20]
a0008034:	e2833004 	add	r3, r3, #4
a0008038:	e1a00003 	mov	r0, r3
a000803c:	ebfff2aa 	bl	a0004aec <vListRemove>
a0008040:	e59d3014 	ldr	r3, [sp, #20]
a0008044:	e593301c 	ldr	r3, [r3, #28]
a0008048:	e3530001 	cmp	r3, #1
a000804c:	1a000013 	bne	a00080a0 <prvProcessExpiredTimer+0x98>
a0008050:	e59d3014 	ldr	r3, [sp, #20]
a0008054:	e5932018 	ldr	r2, [r3, #24]
a0008058:	e59d300c 	ldr	r3, [sp, #12]
a000805c:	e0823003 	add	r3, r2, r3
a0008060:	e59d0014 	ldr	r0, [sp, #20]
a0008064:	e1a01003 	mov	r1, r3
a0008068:	e59d2008 	ldr	r2, [sp, #8]
a000806c:	e59d300c 	ldr	r3, [sp, #12]
a0008070:	eb000095 	bl	a00082cc <prvInsertTimerInActiveList>
a0008074:	e1a03000 	mov	r3, r0
a0008078:	e3530001 	cmp	r3, #1
a000807c:	1a000007 	bne	a00080a0 <prvProcessExpiredTimer+0x98>
a0008080:	e3a03000 	mov	r3, #0
a0008084:	e58d3000 	str	r3, [sp]
a0008088:	e59d0014 	ldr	r0, [sp, #20]
a000808c:	e3a01000 	mov	r1, #0
a0008090:	e59d200c 	ldr	r2, [sp, #12]
a0008094:	e3a03000 	mov	r3, #0
a0008098:	ebffff98 	bl	a0007f00 <xTimerGenericCommand>
a000809c:	e58d0010 	str	r0, [sp, #16]
a00080a0:	e59d3014 	ldr	r3, [sp, #20]
a00080a4:	e5933024 	ldr	r3, [r3, #36]	; 0x24
a00080a8:	e59d0014 	ldr	r0, [sp, #20]
a00080ac:	e12fff33 	blx	r3
a00080b0:	e28dd01c 	add	sp, sp, #28
a00080b4:	e49df004 	pop	{pc}		; (ldr pc, [sp], #4)
a00080b8:	00001b10 	andeq	r1, r0, r0, lsl fp

a00080bc <prvTimerTask>:
a00080bc:	e52de004 	push	{lr}		; (str lr, [sp, #-4]!)
a00080c0:	e24dd014 	sub	sp, sp, #20
a00080c4:	e58d0004 	str	r0, [sp, #4]
a00080c8:	e28d3008 	add	r3, sp, #8
a00080cc:	e1a00003 	mov	r0, r3
a00080d0:	eb00003b 	bl	a00081c4 <prvGetNextExpireTime>
a00080d4:	e58d000c 	str	r0, [sp, #12]
a00080d8:	e59d3008 	ldr	r3, [sp, #8]
a00080dc:	e59d000c 	ldr	r0, [sp, #12]
a00080e0:	e1a01003 	mov	r1, r3
a00080e4:	eb000001 	bl	a00080f0 <prvProcessTimerOrBlockTask>
a00080e8:	eb0000b5 	bl	a00083c4 <prvProcessReceivedCommands>
a00080ec:	eafffff5 	b	a00080c8 <prvTimerTask+0xc>

a00080f0 <prvProcessTimerOrBlockTask>:
a00080f0:	e52de004 	push	{lr}		; (str lr, [sp, #-4]!)
a00080f4:	e24dd014 	sub	sp, sp, #20
a00080f8:	e58d0004 	str	r0, [sp, #4]
a00080fc:	e58d1000 	str	r1, [sp]
a0008100:	ebfff971 	bl	a00066cc <vTaskSuspendAll>
a0008104:	e28d3008 	add	r3, sp, #8
a0008108:	e1a00003 	mov	r0, r3
a000810c:	eb00004c 	bl	a0008244 <prvSampleTimeNow>
a0008110:	e58d000c 	str	r0, [sp, #12]
a0008114:	e59d3008 	ldr	r3, [sp, #8]
a0008118:	e3530000 	cmp	r3, #0
a000811c:	1a000024 	bne	a00081b4 <prvProcessTimerOrBlockTask+0xc4>
a0008120:	e59d3000 	ldr	r3, [sp]
a0008124:	e3530000 	cmp	r3, #0
a0008128:	1a000008 	bne	a0008150 <prvProcessTimerOrBlockTask+0x60>
a000812c:	e59d2004 	ldr	r2, [sp, #4]
a0008130:	e59d300c 	ldr	r3, [sp, #12]
a0008134:	e1520003 	cmp	r2, r3
a0008138:	8a000004 	bhi	a0008150 <prvProcessTimerOrBlockTask+0x60>
a000813c:	ebfff96c 	bl	a00066f4 <xTaskResumeAll>
a0008140:	e59d0004 	ldr	r0, [sp, #4]
a0008144:	e59d100c 	ldr	r1, [sp, #12]
a0008148:	ebffffae 	bl	a0008008 <prvProcessExpiredTimer>
a000814c:	ea000019 	b	a00081b8 <prvProcessTimerOrBlockTask+0xc8>
a0008150:	e59f3068 	ldr	r3, [pc, #104]	; a00081c0 <prvProcessTimerOrBlockTask+0xd0>
a0008154:	e08f3003 	add	r3, pc, r3
a0008158:	e5932000 	ldr	r2, [r3]
a000815c:	e59d1004 	ldr	r1, [sp, #4]
a0008160:	e59d300c 	ldr	r3, [sp, #12]
a0008164:	e0633001 	rsb	r3, r3, r1
a0008168:	e1a00002 	mov	r0, r2
a000816c:	e1a01003 	mov	r1, r3
a0008170:	ebfff611 	bl	a00059bc <vQueueWaitForMessageRestricted>
a0008174:	ebfff95e 	bl	a00066f4 <xTaskResumeAll>
a0008178:	e1a03000 	mov	r3, r0
a000817c:	e3530000 	cmp	r3, #0
a0008180:	1a00000c 	bne	a00081b8 <prvProcessTimerOrBlockTask+0xc8>
a0008184:	e3a03c12 	mov	r3, #4608	; 0x1200
a0008188:	e3453004 	movt	r3, #20484	; 0x5004
a000818c:	e5933000 	ldr	r3, [r3]
a0008190:	e2033001 	and	r3, r3, #1
a0008194:	e3530000 	cmp	r3, #0
a0008198:	1a000006 	bne	a00081b8 <prvProcessTimerOrBlockTask+0xc8>
a000819c:	e3a03c1f 	mov	r3, #7936	; 0x1f00
a00081a0:	e3453004 	movt	r3, #20484	; 0x5004
a00081a4:	e3a02001 	mov	r2, #1
a00081a8:	e3402001 	movt	r2, #1
a00081ac:	e5832000 	str	r2, [r3]
a00081b0:	ea000000 	b	a00081b8 <prvProcessTimerOrBlockTask+0xc8>
a00081b4:	ebfff94e 	bl	a00066f4 <xTaskResumeAll>
a00081b8:	e28dd014 	add	sp, sp, #20
a00081bc:	e49df004 	pop	{pc}		; (ldr pc, [sp], #4)
a00081c0:	000019e0 	andeq	r1, r0, r0, ror #19

a00081c4 <prvGetNextExpireTime>:
a00081c4:	e24dd010 	sub	sp, sp, #16
a00081c8:	e58d0004 	str	r0, [sp, #4]
a00081cc:	e59f3068 	ldr	r3, [pc, #104]	; a000823c <prvGetNextExpireTime+0x78>
a00081d0:	e08f3003 	add	r3, pc, r3
a00081d4:	e5933000 	ldr	r3, [r3]
a00081d8:	e5933000 	ldr	r3, [r3]
a00081dc:	e3530000 	cmp	r3, #0
a00081e0:	13a03000 	movne	r3, #0
a00081e4:	03a03001 	moveq	r3, #1
a00081e8:	e6ef3073 	uxtb	r3, r3
a00081ec:	e1a02003 	mov	r2, r3
a00081f0:	e59d3004 	ldr	r3, [sp, #4]
a00081f4:	e5832000 	str	r2, [r3]
a00081f8:	e59d3004 	ldr	r3, [sp, #4]
a00081fc:	e5933000 	ldr	r3, [r3]
a0008200:	e3530000 	cmp	r3, #0
a0008204:	1a000006 	bne	a0008224 <prvGetNextExpireTime+0x60>
a0008208:	e59f3030 	ldr	r3, [pc, #48]	; a0008240 <prvGetNextExpireTime+0x7c>
a000820c:	e08f3003 	add	r3, pc, r3
a0008210:	e5933000 	ldr	r3, [r3]
a0008214:	e593300c 	ldr	r3, [r3, #12]
a0008218:	e5933000 	ldr	r3, [r3]
a000821c:	e58d300c 	str	r3, [sp, #12]
a0008220:	ea000001 	b	a000822c <prvGetNextExpireTime+0x68>
a0008224:	e3a03000 	mov	r3, #0
a0008228:	e58d300c 	str	r3, [sp, #12]
a000822c:	e59d300c 	ldr	r3, [sp, #12]
a0008230:	e1a00003 	mov	r0, r3
a0008234:	e28dd010 	add	sp, sp, #16
a0008238:	e12fff1e 	bx	lr
a000823c:	0000195c 	andeq	r1, r0, ip, asr r9
a0008240:	00001920 	andeq	r1, r0, r0, lsr #18

a0008244 <prvSampleTimeNow>:
a0008244:	e52de004 	push	{lr}		; (str lr, [sp, #-4]!)
a0008248:	e24dd014 	sub	sp, sp, #20
a000824c:	e58d0004 	str	r0, [sp, #4]
a0008250:	ebfff9b4 	bl	a0006928 <xTaskGetTickCount>
a0008254:	e58d000c 	str	r0, [sp, #12]
a0008258:	e59f3060 	ldr	r3, [pc, #96]	; a00082c0 <prvSampleTimeNow+0x7c>
a000825c:	e08f3003 	add	r3, pc, r3
a0008260:	e5933000 	ldr	r3, [r3]
a0008264:	e59d200c 	ldr	r2, [sp, #12]
a0008268:	e1520003 	cmp	r2, r3
a000826c:	2a000008 	bcs	a0008294 <prvSampleTimeNow+0x50>
a0008270:	e59f304c 	ldr	r3, [pc, #76]	; a00082c4 <prvSampleTimeNow+0x80>
a0008274:	e08f3003 	add	r3, pc, r3
a0008278:	e5933000 	ldr	r3, [r3]
a000827c:	e1a00003 	mov	r0, r3
a0008280:	eb0000ad 	bl	a000853c <prvSwitchTimerLists>
a0008284:	e59d3004 	ldr	r3, [sp, #4]
a0008288:	e3a02001 	mov	r2, #1
a000828c:	e5832000 	str	r2, [r3]
a0008290:	ea000002 	b	a00082a0 <prvSampleTimeNow+0x5c>
a0008294:	e59d3004 	ldr	r3, [sp, #4]
a0008298:	e3a02000 	mov	r2, #0
a000829c:	e5832000 	str	r2, [r3]
a00082a0:	e59f3020 	ldr	r3, [pc, #32]	; a00082c8 <prvSampleTimeNow+0x84>
a00082a4:	e08f3003 	add	r3, pc, r3
a00082a8:	e59d200c 	ldr	r2, [sp, #12]
a00082ac:	e5832000 	str	r2, [r3]
a00082b0:	e59d300c 	ldr	r3, [sp, #12]
a00082b4:	e1a00003 	mov	r0, r3
a00082b8:	e28dd014 	add	sp, sp, #20
a00082bc:	e49df004 	pop	{pc}		; (ldr pc, [sp], #4)
a00082c0:	000018dc 	ldrdeq	r1, [r0], -ip
a00082c4:	000018c4 	andeq	r1, r0, r4, asr #17
a00082c8:	00001894 	muleq	r0, r4, r8

a00082cc <prvInsertTimerInActiveList>:
a00082cc:	e52de004 	push	{lr}		; (str lr, [sp, #-4]!)
a00082d0:	e24dd01c 	sub	sp, sp, #28
a00082d4:	e58d000c 	str	r0, [sp, #12]
a00082d8:	e58d1008 	str	r1, [sp, #8]
a00082dc:	e58d2004 	str	r2, [sp, #4]
a00082e0:	e58d3000 	str	r3, [sp]
a00082e4:	e3a03000 	mov	r3, #0
a00082e8:	e58d3014 	str	r3, [sp, #20]
a00082ec:	e59d300c 	ldr	r3, [sp, #12]
a00082f0:	e59d2008 	ldr	r2, [sp, #8]
a00082f4:	e5832004 	str	r2, [r3, #4]
a00082f8:	e59d300c 	ldr	r3, [sp, #12]
a00082fc:	e59d200c 	ldr	r2, [sp, #12]
a0008300:	e5832010 	str	r2, [r3, #16]
a0008304:	e59d2008 	ldr	r2, [sp, #8]
a0008308:	e59d3004 	ldr	r3, [sp, #4]
a000830c:	e1520003 	cmp	r2, r3
a0008310:	8a000012 	bhi	a0008360 <prvInsertTimerInActiveList+0x94>
a0008314:	e59d2004 	ldr	r2, [sp, #4]
a0008318:	e59d3000 	ldr	r3, [sp]
a000831c:	e0632002 	rsb	r2, r3, r2
a0008320:	e59d300c 	ldr	r3, [sp, #12]
a0008324:	e5933018 	ldr	r3, [r3, #24]
a0008328:	e1520003 	cmp	r2, r3
a000832c:	3a000002 	bcc	a000833c <prvInsertTimerInActiveList+0x70>
a0008330:	e3a03001 	mov	r3, #1
a0008334:	e58d3014 	str	r3, [sp, #20]
a0008338:	ea00001b 	b	a00083ac <prvInsertTimerInActiveList+0xe0>
a000833c:	e59f3078 	ldr	r3, [pc, #120]	; a00083bc <prvInsertTimerInActiveList+0xf0>
a0008340:	e08f3003 	add	r3, pc, r3
a0008344:	e5932000 	ldr	r2, [r3]
a0008348:	e59d300c 	ldr	r3, [sp, #12]
a000834c:	e2833004 	add	r3, r3, #4
a0008350:	e1a00002 	mov	r0, r2
a0008354:	e1a01003 	mov	r1, r3
a0008358:	ebfff1b1 	bl	a0004a24 <vListInsert>
a000835c:	ea000012 	b	a00083ac <prvInsertTimerInActiveList+0xe0>
a0008360:	e59d2004 	ldr	r2, [sp, #4]
a0008364:	e59d3000 	ldr	r3, [sp]
a0008368:	e1520003 	cmp	r2, r3
a000836c:	2a000006 	bcs	a000838c <prvInsertTimerInActiveList+0xc0>
a0008370:	e59d2008 	ldr	r2, [sp, #8]
a0008374:	e59d3000 	ldr	r3, [sp]
a0008378:	e1520003 	cmp	r2, r3
a000837c:	3a000002 	bcc	a000838c <prvInsertTimerInActiveList+0xc0>
a0008380:	e3a03001 	mov	r3, #1
a0008384:	e58d3014 	str	r3, [sp, #20]
a0008388:	ea000007 	b	a00083ac <prvInsertTimerInActiveList+0xe0>
a000838c:	e59f302c 	ldr	r3, [pc, #44]	; a00083c0 <prvInsertTimerInActiveList+0xf4>
a0008390:	e08f3003 	add	r3, pc, r3
a0008394:	e5932000 	ldr	r2, [r3]
a0008398:	e59d300c 	ldr	r3, [sp, #12]
a000839c:	e2833004 	add	r3, r3, #4
a00083a0:	e1a00002 	mov	r0, r2
a00083a4:	e1a01003 	mov	r1, r3
a00083a8:	ebfff19d 	bl	a0004a24 <vListInsert>
a00083ac:	e59d3014 	ldr	r3, [sp, #20]
a00083b0:	e1a00003 	mov	r0, r3
a00083b4:	e28dd01c 	add	sp, sp, #28
a00083b8:	e49df004 	pop	{pc}		; (ldr pc, [sp], #4)
a00083bc:	000017f0 	strdeq	r1, [r0], -r0
a00083c0:	0000179c 	muleq	r0, ip, r7

a00083c4 <prvProcessReceivedCommands>:
a00083c4:	e52de004 	push	{lr}		; (str lr, [sp, #-4]!)
a00083c8:	e24dd02c 	sub	sp, sp, #44	; 0x2c
a00083cc:	e28d300c 	add	r3, sp, #12
a00083d0:	e1a00003 	mov	r0, r3
a00083d4:	ebffff9a 	bl	a0008244 <prvSampleTimeNow>
a00083d8:	e58d0024 	str	r0, [sp, #36]	; 0x24
a00083dc:	ea000047 	b	a0008500 <prvProcessReceivedCommands+0x13c>
a00083e0:	e59d3018 	ldr	r3, [sp, #24]
a00083e4:	e58d3020 	str	r3, [sp, #32]
a00083e8:	e59d3020 	ldr	r3, [sp, #32]
a00083ec:	e3530000 	cmp	r3, #0
a00083f0:	0a000007 	beq	a0008414 <prvProcessReceivedCommands+0x50>
a00083f4:	e59d3020 	ldr	r3, [sp, #32]
a00083f8:	e5933014 	ldr	r3, [r3, #20]
a00083fc:	e3530000 	cmp	r3, #0
a0008400:	0a000003 	beq	a0008414 <prvProcessReceivedCommands+0x50>
a0008404:	e59d3020 	ldr	r3, [sp, #32]
a0008408:	e2833004 	add	r3, r3, #4
a000840c:	e1a00003 	mov	r0, r3
a0008410:	ebfff1b5 	bl	a0004aec <vListRemove>
a0008414:	e59d3010 	ldr	r3, [sp, #16]
a0008418:	e3530003 	cmp	r3, #3
a000841c:	908ff103 	addls	pc, pc, r3, lsl #2
a0008420:	ea000035 	b	a00084fc <prvProcessReceivedCommands+0x138>
a0008424:	ea000002 	b	a0008434 <prvProcessReceivedCommands+0x70>
a0008428:	ea000033 	b	a00084fc <prvProcessReceivedCommands+0x138>
a000842c:	ea000022 	b	a00084bc <prvProcessReceivedCommands+0xf8>
a0008430:	ea00002e 	b	a00084f0 <prvProcessReceivedCommands+0x12c>
a0008434:	e59d2014 	ldr	r2, [sp, #20]
a0008438:	e59d3020 	ldr	r3, [sp, #32]
a000843c:	e5933018 	ldr	r3, [r3, #24]
a0008440:	e0822003 	add	r2, r2, r3
a0008444:	e59d3014 	ldr	r3, [sp, #20]
a0008448:	e59d0020 	ldr	r0, [sp, #32]
a000844c:	e1a01002 	mov	r1, r2
a0008450:	e59d2024 	ldr	r2, [sp, #36]	; 0x24
a0008454:	ebffff9c 	bl	a00082cc <prvInsertTimerInActiveList>
a0008458:	e1a03000 	mov	r3, r0
a000845c:	e3530001 	cmp	r3, #1
a0008460:	1a000014 	bne	a00084b8 <prvProcessReceivedCommands+0xf4>
a0008464:	e59d3020 	ldr	r3, [sp, #32]
a0008468:	e5933024 	ldr	r3, [r3, #36]	; 0x24
a000846c:	e59d0020 	ldr	r0, [sp, #32]
a0008470:	e12fff33 	blx	r3
a0008474:	e59d3020 	ldr	r3, [sp, #32]
a0008478:	e593301c 	ldr	r3, [r3, #28]
a000847c:	e3530001 	cmp	r3, #1
a0008480:	1a00000c 	bne	a00084b8 <prvProcessReceivedCommands+0xf4>
a0008484:	e59d2014 	ldr	r2, [sp, #20]
a0008488:	e59d3020 	ldr	r3, [sp, #32]
a000848c:	e5933018 	ldr	r3, [r3, #24]
a0008490:	e0823003 	add	r3, r2, r3
a0008494:	e3a02000 	mov	r2, #0
a0008498:	e58d2000 	str	r2, [sp]
a000849c:	e59d0020 	ldr	r0, [sp, #32]
a00084a0:	e3a01000 	mov	r1, #0
a00084a4:	e1a02003 	mov	r2, r3
a00084a8:	e3a03000 	mov	r3, #0
a00084ac:	ebfffe93 	bl	a0007f00 <xTimerGenericCommand>
a00084b0:	e58d001c 	str	r0, [sp, #28]
a00084b4:	ea000011 	b	a0008500 <prvProcessReceivedCommands+0x13c>
a00084b8:	ea000010 	b	a0008500 <prvProcessReceivedCommands+0x13c>
a00084bc:	e59d2014 	ldr	r2, [sp, #20]
a00084c0:	e59d3020 	ldr	r3, [sp, #32]
a00084c4:	e5832018 	str	r2, [r3, #24]
a00084c8:	e59d3020 	ldr	r3, [sp, #32]
a00084cc:	e5932018 	ldr	r2, [r3, #24]
a00084d0:	e59d3024 	ldr	r3, [sp, #36]	; 0x24
a00084d4:	e0823003 	add	r3, r2, r3
a00084d8:	e59d0020 	ldr	r0, [sp, #32]
a00084dc:	e1a01003 	mov	r1, r3
a00084e0:	e59d2024 	ldr	r2, [sp, #36]	; 0x24
a00084e4:	e59d3024 	ldr	r3, [sp, #36]	; 0x24
a00084e8:	ebffff77 	bl	a00082cc <prvInsertTimerInActiveList>
a00084ec:	ea000003 	b	a0008500 <prvProcessReceivedCommands+0x13c>
a00084f0:	e59d0020 	ldr	r0, [sp, #32]
a00084f4:	eb0003d5 	bl	a0009450 <vPortFree>
a00084f8:	ea000000 	b	a0008500 <prvProcessReceivedCommands+0x13c>
a00084fc:	e1a00000 	nop			; (mov r0, r0)
a0008500:	e59f3030 	ldr	r3, [pc, #48]	; a0008538 <prvProcessReceivedCommands+0x174>
a0008504:	e08f3003 	add	r3, pc, r3
a0008508:	e5932000 	ldr	r2, [r3]
a000850c:	e28d3010 	add	r3, sp, #16
a0008510:	e1a00002 	mov	r0, r2
a0008514:	e1a01003 	mov	r1, r3
a0008518:	e3a02000 	mov	r2, #0
a000851c:	e3a03000 	mov	r3, #0
a0008520:	ebfff324 	bl	a00051b8 <xQueueGenericReceive>
a0008524:	e1a03000 	mov	r3, r0
a0008528:	e3530000 	cmp	r3, #0
a000852c:	1affffab 	bne	a00083e0 <prvProcessReceivedCommands+0x1c>
a0008530:	e28dd02c 	add	sp, sp, #44	; 0x2c
a0008534:	e49df004 	pop	{pc}		; (ldr pc, [sp], #4)
a0008538:	00001630 	andeq	r1, r0, r0, lsr r6

a000853c <prvSwitchTimerLists>:
a000853c:	e52de004 	push	{lr}		; (str lr, [sp, #-4]!)
a0008540:	e24dd02c 	sub	sp, sp, #44	; 0x2c
a0008544:	e58d000c 	str	r0, [sp, #12]
a0008548:	ea000037 	b	a000862c <prvSwitchTimerLists+0xf0>
a000854c:	e59f3130 	ldr	r3, [pc, #304]	; a0008684 <prvSwitchTimerLists+0x148>
a0008550:	e08f3003 	add	r3, pc, r3
a0008554:	e5933000 	ldr	r3, [r3]
a0008558:	e593300c 	ldr	r3, [r3, #12]
a000855c:	e5933000 	ldr	r3, [r3]
a0008560:	e58d3024 	str	r3, [sp, #36]	; 0x24
a0008564:	e59f311c 	ldr	r3, [pc, #284]	; a0008688 <prvSwitchTimerLists+0x14c>
a0008568:	e08f3003 	add	r3, pc, r3
a000856c:	e5933000 	ldr	r3, [r3]
a0008570:	e593300c 	ldr	r3, [r3, #12]
a0008574:	e593300c 	ldr	r3, [r3, #12]
a0008578:	e58d3020 	str	r3, [sp, #32]
a000857c:	e59d3020 	ldr	r3, [sp, #32]
a0008580:	e2833004 	add	r3, r3, #4
a0008584:	e1a00003 	mov	r0, r3
a0008588:	ebfff157 	bl	a0004aec <vListRemove>
a000858c:	e59d3020 	ldr	r3, [sp, #32]
a0008590:	e5933024 	ldr	r3, [r3, #36]	; 0x24
a0008594:	e59d0020 	ldr	r0, [sp, #32]
a0008598:	e12fff33 	blx	r3
a000859c:	e59d3020 	ldr	r3, [sp, #32]
a00085a0:	e593301c 	ldr	r3, [r3, #28]
a00085a4:	e3530001 	cmp	r3, #1
a00085a8:	1a00001f 	bne	a000862c <prvSwitchTimerLists+0xf0>
a00085ac:	e59d3020 	ldr	r3, [sp, #32]
a00085b0:	e5932018 	ldr	r2, [r3, #24]
a00085b4:	e59d3024 	ldr	r3, [sp, #36]	; 0x24
a00085b8:	e0823003 	add	r3, r2, r3
a00085bc:	e58d301c 	str	r3, [sp, #28]
a00085c0:	e59d201c 	ldr	r2, [sp, #28]
a00085c4:	e59d3024 	ldr	r3, [sp, #36]	; 0x24
a00085c8:	e1520003 	cmp	r2, r3
a00085cc:	9a00000e 	bls	a000860c <prvSwitchTimerLists+0xd0>
a00085d0:	e59d3020 	ldr	r3, [sp, #32]
a00085d4:	e59d201c 	ldr	r2, [sp, #28]
a00085d8:	e5832004 	str	r2, [r3, #4]
a00085dc:	e59d3020 	ldr	r3, [sp, #32]
a00085e0:	e59d2020 	ldr	r2, [sp, #32]
a00085e4:	e5832010 	str	r2, [r3, #16]
a00085e8:	e59f309c 	ldr	r3, [pc, #156]	; a000868c <prvSwitchTimerLists+0x150>
a00085ec:	e08f3003 	add	r3, pc, r3
a00085f0:	e5932000 	ldr	r2, [r3]
a00085f4:	e59d3020 	ldr	r3, [sp, #32]
a00085f8:	e2833004 	add	r3, r3, #4
a00085fc:	e1a00002 	mov	r0, r2
a0008600:	e1a01003 	mov	r1, r3
a0008604:	ebfff106 	bl	a0004a24 <vListInsert>
a0008608:	ea000007 	b	a000862c <prvSwitchTimerLists+0xf0>
a000860c:	e3a03000 	mov	r3, #0
a0008610:	e58d3000 	str	r3, [sp]
a0008614:	e59d0020 	ldr	r0, [sp, #32]
a0008618:	e3a01000 	mov	r1, #0
a000861c:	e59d2024 	ldr	r2, [sp, #36]	; 0x24
a0008620:	e3a03000 	mov	r3, #0
a0008624:	ebfffe35 	bl	a0007f00 <xTimerGenericCommand>
a0008628:	e58d0018 	str	r0, [sp, #24]
a000862c:	e59f305c 	ldr	r3, [pc, #92]	; a0008690 <prvSwitchTimerLists+0x154>
a0008630:	e08f3003 	add	r3, pc, r3
a0008634:	e5933000 	ldr	r3, [r3]
a0008638:	e5933000 	ldr	r3, [r3]
a000863c:	e3530000 	cmp	r3, #0
a0008640:	1affffc1 	bne	a000854c <prvSwitchTimerLists+0x10>
a0008644:	e59f3048 	ldr	r3, [pc, #72]	; a0008694 <prvSwitchTimerLists+0x158>
a0008648:	e08f3003 	add	r3, pc, r3
a000864c:	e5933000 	ldr	r3, [r3]
a0008650:	e58d3014 	str	r3, [sp, #20]
a0008654:	e59f303c 	ldr	r3, [pc, #60]	; a0008698 <prvSwitchTimerLists+0x15c>
a0008658:	e08f3003 	add	r3, pc, r3
a000865c:	e5932000 	ldr	r2, [r3]
a0008660:	e59f3034 	ldr	r3, [pc, #52]	; a000869c <prvSwitchTimerLists+0x160>
a0008664:	e08f3003 	add	r3, pc, r3
a0008668:	e5832000 	str	r2, [r3]
a000866c:	e59f302c 	ldr	r3, [pc, #44]	; a00086a0 <prvSwitchTimerLists+0x164>
a0008670:	e08f3003 	add	r3, pc, r3
a0008674:	e59d2014 	ldr	r2, [sp, #20]
a0008678:	e5832000 	str	r2, [r3]
a000867c:	e28dd02c 	add	sp, sp, #44	; 0x2c
a0008680:	e49df004 	pop	{pc}		; (ldr pc, [sp], #4)
a0008684:	000015dc 	ldrdeq	r1, [r0], -ip
a0008688:	000015c4 	andeq	r1, r0, r4, asr #11
a000868c:	00001540 	andeq	r1, r0, r0, asr #10
a0008690:	000014fc 	strdeq	r1, [r0], -ip
a0008694:	000014e4 	andeq	r1, r0, r4, ror #9
a0008698:	000014d8 	ldrdeq	r1, [r0], -r8
a000869c:	000014c8 	andeq	r1, r0, r8, asr #9
a00086a0:	000014c0 	andeq	r1, r0, r0, asr #9

a00086a4 <prvCheckForValidListAndQueue>:
a00086a4:	e92d4008 	push	{r3, lr}
a00086a8:	ebfffd94 	bl	a0007d00 <vTaskEnterCritical>
a00086ac:	e59f3078 	ldr	r3, [pc, #120]	; a000872c <prvCheckForValidListAndQueue+0x88>
a00086b0:	e08f3003 	add	r3, pc, r3
a00086b4:	e5933000 	ldr	r3, [r3]
a00086b8:	e3530000 	cmp	r3, #0
a00086bc:	1a000018 	bne	a0008724 <prvCheckForValidListAndQueue+0x80>
a00086c0:	e59f3068 	ldr	r3, [pc, #104]	; a0008730 <prvCheckForValidListAndQueue+0x8c>
a00086c4:	e08f3003 	add	r3, pc, r3
a00086c8:	e1a00003 	mov	r0, r3
a00086cc:	ebfff095 	bl	a0004928 <vListInitialise>
a00086d0:	e59f305c 	ldr	r3, [pc, #92]	; a0008734 <prvCheckForValidListAndQueue+0x90>
a00086d4:	e08f3003 	add	r3, pc, r3
a00086d8:	e1a00003 	mov	r0, r3
a00086dc:	ebfff091 	bl	a0004928 <vListInitialise>
a00086e0:	e59f3050 	ldr	r3, [pc, #80]	; a0008738 <prvCheckForValidListAndQueue+0x94>
a00086e4:	e08f3003 	add	r3, pc, r3
a00086e8:	e59f204c 	ldr	r2, [pc, #76]	; a000873c <prvCheckForValidListAndQueue+0x98>
a00086ec:	e08f2002 	add	r2, pc, r2
a00086f0:	e5832000 	str	r2, [r3]
a00086f4:	e59f3044 	ldr	r3, [pc, #68]	; a0008740 <prvCheckForValidListAndQueue+0x9c>
a00086f8:	e08f3003 	add	r3, pc, r3
a00086fc:	e59f2040 	ldr	r2, [pc, #64]	; a0008744 <prvCheckForValidListAndQueue+0xa0>
a0008700:	e08f2002 	add	r2, pc, r2
a0008704:	e5832000 	str	r2, [r3]
a0008708:	e3a00005 	mov	r0, #5
a000870c:	e3a0100c 	mov	r1, #12
a0008710:	ebfff117 	bl	a0004b74 <xQueueCreate>
a0008714:	e1a02000 	mov	r2, r0
a0008718:	e59f3028 	ldr	r3, [pc, #40]	; a0008748 <prvCheckForValidListAndQueue+0xa4>
a000871c:	e08f3003 	add	r3, pc, r3
a0008720:	e5832000 	str	r2, [r3]
a0008724:	ebfffd88 	bl	a0007d4c <vTaskExitCritical>
a0008728:	e8bd8008 	pop	{r3, pc}
a000872c:	00001484 	andeq	r1, r0, r4, lsl #9
a0008730:	00001440 	andeq	r1, r0, r0, asr #8
a0008734:	00001444 	andeq	r1, r0, r4, asr #8
a0008738:	00001448 	andeq	r1, r0, r8, asr #8
a000873c:	00001418 	andeq	r1, r0, r8, lsl r4
a0008740:	00001438 	andeq	r1, r0, r8, lsr r4
a0008744:	00001418 	andeq	r1, r0, r8, lsl r4
a0008748:	00001418 	andeq	r1, r0, r8, lsl r4

a000874c <xTimerIsTimerActive>:
a000874c:	e52de004 	push	{lr}		; (str lr, [sp, #-4]!)
a0008750:	e24dd014 	sub	sp, sp, #20
a0008754:	e58d0004 	str	r0, [sp, #4]
a0008758:	e59d3004 	ldr	r3, [sp, #4]
a000875c:	e58d300c 	str	r3, [sp, #12]
a0008760:	ebfffd66 	bl	a0007d00 <vTaskEnterCritical>
a0008764:	e59d300c 	ldr	r3, [sp, #12]
a0008768:	e5933014 	ldr	r3, [r3, #20]
a000876c:	e3530000 	cmp	r3, #0
a0008770:	03a03000 	moveq	r3, #0
a0008774:	13a03001 	movne	r3, #1
a0008778:	e6ef3073 	uxtb	r3, r3
a000877c:	e58d3008 	str	r3, [sp, #8]
a0008780:	ebfffd71 	bl	a0007d4c <vTaskExitCritical>
a0008784:	e59d3008 	ldr	r3, [sp, #8]
a0008788:	e1a00003 	mov	r0, r3
a000878c:	e28dd014 	add	sp, sp, #20
a0008790:	e49df004 	pop	{pc}		; (ldr pc, [sp], #4)

a0008794 <pvTimerGetTimerID>:
a0008794:	e24dd010 	sub	sp, sp, #16
a0008798:	e58d0004 	str	r0, [sp, #4]
a000879c:	e59d3004 	ldr	r3, [sp, #4]
a00087a0:	e58d300c 	str	r3, [sp, #12]
a00087a4:	e59d300c 	ldr	r3, [sp, #12]
a00087a8:	e5933020 	ldr	r3, [r3, #32]
a00087ac:	e1a00003 	mov	r0, r3
a00087b0:	e28dd010 	add	sp, sp, #16
a00087b4:	e12fff1e 	bx	lr

a00087b8 <itoa_tmp>:
a00087b8:	e24dd018 	sub	sp, sp, #24
a00087bc:	e58d0004 	str	r0, [sp, #4]
a00087c0:	e58d1000 	str	r1, [sp]
a00087c4:	e59d3000 	ldr	r3, [sp]
a00087c8:	e58d3010 	str	r3, [sp, #16]
a00087cc:	e3a03000 	mov	r3, #0
a00087d0:	e58d3014 	str	r3, [sp, #20]
a00087d4:	e3a03000 	mov	r3, #0
a00087d8:	e58d300c 	str	r3, [sp, #12]
a00087dc:	e3a03064 	mov	r3, #100	; 0x64
a00087e0:	e58d3014 	str	r3, [sp, #20]
a00087e4:	ea00001e 	b	a0008864 <itoa_tmp+0xac>
a00087e8:	e59d2004 	ldr	r2, [sp, #4]
a00087ec:	e59d3014 	ldr	r3, [sp, #20]
a00087f0:	e712f312 	sdiv	r2, r2, r3
a00087f4:	e3063667 	movw	r3, #26215	; 0x6667
a00087f8:	e3463666 	movt	r3, #26214	; 0x6666
a00087fc:	e0c31293 	smull	r1, r3, r3, r2
a0008800:	e1a01143 	asr	r1, r3, #2
a0008804:	e1a03fc2 	asr	r3, r2, #31
a0008808:	e0631001 	rsb	r1, r3, r1
a000880c:	e1a03001 	mov	r3, r1
a0008810:	e1a03103 	lsl	r3, r3, #2
a0008814:	e0833001 	add	r3, r3, r1
a0008818:	e1a03083 	lsl	r3, r3, #1
a000881c:	e0633002 	rsb	r3, r3, r2
a0008820:	e58d300c 	str	r3, [sp, #12]
a0008824:	e59d3000 	ldr	r3, [sp]
a0008828:	e2832001 	add	r2, r3, #1
a000882c:	e58d2000 	str	r2, [sp]
a0008830:	e59d200c 	ldr	r2, [sp, #12]
a0008834:	e6ef2072 	uxtb	r2, r2
a0008838:	e2822030 	add	r2, r2, #48	; 0x30
a000883c:	e6ef2072 	uxtb	r2, r2
a0008840:	e5c32000 	strb	r2, [r3]
a0008844:	e59d2014 	ldr	r2, [sp, #20]
a0008848:	e3063667 	movw	r3, #26215	; 0x6667
a000884c:	e3463666 	movt	r3, #26214	; 0x6666
a0008850:	e0c31293 	smull	r1, r3, r3, r2
a0008854:	e1a01143 	asr	r1, r3, #2
a0008858:	e1a03fc2 	asr	r3, r2, #31
a000885c:	e0633001 	rsb	r3, r3, r1
a0008860:	e58d3014 	str	r3, [sp, #20]
a0008864:	e59d3014 	ldr	r3, [sp, #20]
a0008868:	e3530000 	cmp	r3, #0
a000886c:	caffffdd 	bgt	a00087e8 <itoa_tmp+0x30>
a0008870:	e59d3010 	ldr	r3, [sp, #16]
a0008874:	e1a00003 	mov	r0, r3
a0008878:	e28dd018 	add	sp, sp, #24
a000887c:	e12fff1e 	bx	lr

a0008880 <pxPortInitialiseStack>:
a0008880:	e24dd018 	sub	sp, sp, #24
a0008884:	e58d000c 	str	r0, [sp, #12]
a0008888:	e58d1008 	str	r1, [sp, #8]
a000888c:	e58d2004 	str	r2, [sp, #4]
a0008890:	e59d300c 	ldr	r3, [sp, #12]
a0008894:	e58d3014 	str	r3, [sp, #20]
a0008898:	e59d300c 	ldr	r3, [sp, #12]
a000889c:	e2433004 	sub	r3, r3, #4
a00088a0:	e58d300c 	str	r3, [sp, #12]
a00088a4:	e59d300c 	ldr	r3, [sp, #12]
a00088a8:	e3a0201f 	mov	r2, #31
a00088ac:	e5832000 	str	r2, [r3]
a00088b0:	e59d300c 	ldr	r3, [sp, #12]
a00088b4:	e2433004 	sub	r3, r3, #4
a00088b8:	e58d300c 	str	r3, [sp, #12]
a00088bc:	e59d2008 	ldr	r2, [sp, #8]
a00088c0:	e59d300c 	ldr	r3, [sp, #12]
a00088c4:	e5832000 	str	r2, [r3]
a00088c8:	e59d300c 	ldr	r3, [sp, #12]
a00088cc:	e2433004 	sub	r3, r3, #4
a00088d0:	e58d300c 	str	r3, [sp, #12]
a00088d4:	e59d300c 	ldr	r3, [sp, #12]
a00088d8:	e3a02000 	mov	r2, #0
a00088dc:	e5832000 	str	r2, [r3]
a00088e0:	e59d300c 	ldr	r3, [sp, #12]
a00088e4:	e2433004 	sub	r3, r3, #4
a00088e8:	e58d300c 	str	r3, [sp, #12]
a00088ec:	e59d2014 	ldr	r2, [sp, #20]
a00088f0:	e59d300c 	ldr	r3, [sp, #12]
a00088f4:	e5832000 	str	r2, [r3]
a00088f8:	e59d300c 	ldr	r3, [sp, #12]
a00088fc:	e2433030 	sub	r3, r3, #48	; 0x30
a0008900:	e58d300c 	str	r3, [sp, #12]
a0008904:	e59d300c 	ldr	r3, [sp, #12]
a0008908:	e2433004 	sub	r3, r3, #4
a000890c:	e58d300c 	str	r3, [sp, #12]
a0008910:	e59d2004 	ldr	r2, [sp, #4]
a0008914:	e59d300c 	ldr	r3, [sp, #12]
a0008918:	e5832000 	str	r2, [r3]
a000891c:	e59d300c 	ldr	r3, [sp, #12]
a0008920:	e1a00003 	mov	r0, r3
a0008924:	e28dd018 	add	sp, sp, #24
a0008928:	e12fff1e 	bx	lr

a000892c <vPortSVCHandler>:
a000892c:	e59f9018 	ldr	r9, [pc, #24]	; a000894c <pxCurrentTCBConst2>
a0008930:	e5998000 	ldr	r8, [r9]
a0008934:	e598e000 	ldr	lr, [r8]
a0008938:	e8de7fff 	ldm	lr, {r0, r1, r2, r3, r4, r5, r6, r7, r8, r9, sl, fp, ip, sp, lr}^
a000893c:	e28ee03c 	add	lr, lr, #60	; 0x3c
a0008940:	e320f000 	nop	{0}
a0008944:	f89e0a00 	rfeia	lr
a0008948:	e320f000 	nop	{0}

a000894c <pxCurrentTCBConst2>:
a000894c:	a000997c 	andge	r9, r0, ip, ror r9

a0008950 <vPortInterruptContext>:
a0008950:	e24ee004 	sub	lr, lr, #4
a0008954:	f94d051f 	srsdb	sp, #31
a0008958:	e94d2000 	stmdb	sp, {sp}^
a000895c:	e24dd004 	sub	sp, sp, #4
a0008960:	e8bd4000 	ldmfd	sp!, {lr}
a0008964:	e24ee008 	sub	lr, lr, #8
a0008968:	e94e7fff 	stmdb	lr, {r0, r1, r2, r3, r4, r5, r6, r7, r8, r9, sl, fp, ip, sp, lr}^
a000896c:	e24ee03c 	sub	lr, lr, #60	; 0x3c
a0008970:	e51f902c 	ldr	r9, [pc, #-44]	; a000894c <pxCurrentTCBConst2>
a0008974:	e5998000 	ldr	r8, [r9]
a0008978:	e588e000 	str	lr, [r8]
a000897c:	eb0001b3 	bl	a0009050 <vPortGICInterruptHandler>
a0008980:	e5998000 	ldr	r8, [r9]
a0008984:	e598e000 	ldr	lr, [r8]
a0008988:	e8de7fff 	ldm	lr, {r0, r1, r2, r3, r4, r5, r6, r7, r8, r9, sl, fp, ip, sp, lr}^
a000898c:	e28ee03c 	add	lr, lr, #60	; 0x3c
a0008990:	f89e0a00 	rfeia	lr
a0008994:	e320f000 	nop	{0}

a0008998 <em_SwitchContext>:
a0008998:	e59f3060 	ldr	r3, [pc, #96]	; a0008a00 <em_SwitchContext+0x68>
a000899c:	e08f3003 	add	r3, pc, r3
a00089a0:	e1a00003 	mov	r0, r3
a00089a4:	ebffe5e3 	bl	a0002138 <em_printf>
a00089a8:	e24ee004 	sub	lr, lr, #4
a00089ac:	f94d051f 	srsdb	sp, #31
a00089b0:	e94d2000 	stmdb	sp, {sp}^
a00089b4:	e24dd004 	sub	sp, sp, #4
a00089b8:	e8bd4000 	ldmfd	sp!, {lr}
a00089bc:	e24ee008 	sub	lr, lr, #8
a00089c0:	e94e7fff 	stmdb	lr, {r0, r1, r2, r3, r4, r5, r6, r7, r8, r9, sl, fp, ip, sp, lr}^
a00089c4:	e24ee03c 	sub	lr, lr, #60	; 0x3c
a00089c8:	e51f9084 	ldr	r9, [pc, #-132]	; a000894c <pxCurrentTCBConst2>
a00089cc:	e5998000 	ldr	r8, [r9]
a00089d0:	e588e000 	str	lr, [r8]
a00089d4:	eafff93e 	b	a0006ed4 <vTaskSwitchContext>
a00089d8:	e5998000 	ldr	r8, [r9]
a00089dc:	e598e000 	ldr	lr, [r8]
a00089e0:	e8de7fff 	ldm	lr, {r0, r1, r2, r3, r4, r5, r6, r7, r8, r9, sl, fp, ip, sp, lr}^
a00089e4:	e28ee03c 	add	lr, lr, #60	; 0x3c
a00089e8:	f89e0a00 	rfeia	lr
a00089ec:	e320f000 	nop	{0}
a00089f0:	e59f300c 	ldr	r3, [pc, #12]	; a0008a04 <em_SwitchContext+0x6c>
a00089f4:	e08f3003 	add	r3, pc, r3
a00089f8:	e1a00003 	mov	r0, r3
a00089fc:	ebffe5cd 	bl	a0002138 <em_printf>
a0008a00:	00000c50 	andeq	r0, r0, r0, asr ip
a0008a04:	00000c1c 	andeq	r0, r0, ip, lsl ip

a0008a08 <vPortStartFirstTask>:
a0008a08:	e59f2024 	ldr	r2, [pc, #36]	; a0008a34 <vPortStartFirstTask+0x2c>
a0008a0c:	e08f2002 	add	r2, pc, r2
a0008a10:	e59f3020 	ldr	r3, [pc, #32]	; a0008a38 <vPortStartFirstTask+0x30>
a0008a14:	e7923003 	ldr	r3, [r2, r3]
a0008a18:	e5933000 	ldr	r3, [r3]
a0008a1c:	e59f2018 	ldr	r2, [pc, #24]	; a0008a3c <vPortStartFirstTask+0x34>
a0008a20:	e08f2002 	add	r2, pc, r2
a0008a24:	e5922000 	ldr	r2, [r2]
a0008a28:	e1a0d002 	mov	sp, r2
a0008a2c:	ef000000 	svc	0x00000000
a0008a30:	e320f000 	nop	{0}
a0008a34:	00000c94 	muleq	r0, r4, ip
a0008a38:	00000000 	andeq	r0, r0, r0
a0008a3c:	00000cbc 			; <UNDEFINED> instruction: 0x00000cbc

a0008a40 <vPortSMCHandler>:
a0008a40:	e92d4008 	push	{r3, lr}
a0008a44:	ebfff922 	bl	a0006ed4 <vTaskSwitchContext>
a0008a48:	e3013f10 	movw	r3, #7952	; 0x1f10
a0008a4c:	e3453004 	movt	r3, #20484	; 0x5004
a0008a50:	e3a02001 	mov	r2, #1
a0008a54:	e5832000 	str	r2, [r3]
a0008a58:	e8bd8008 	pop	{r3, pc}

a0008a5c <tmp_init_gicd>:
a0008a5c:	e52de004 	push	{lr}		; (str lr, [sp, #-4]!)
a0008a60:	e24dd014 	sub	sp, sp, #20
a0008a64:	ebffe3ac 	bl	a000191c <get_cpuid>
a0008a68:	e58d0008 	str	r0, [sp, #8]
a0008a6c:	e3a03000 	mov	r3, #0
a0008a70:	e58d300c 	str	r3, [sp, #12]
a0008a74:	e3a030a0 	mov	r3, #160	; 0xa0
a0008a78:	e58d3004 	str	r3, [sp, #4]
a0008a7c:	ebffdf29 	bl	a0000728 <gicd_disable_irq_forwarding>
a0008a80:	ea000005 	b	a0008a9c <tmp_init_gicd+0x40>
a0008a84:	e59d000c 	ldr	r0, [sp, #12]
a0008a88:	e3e01000 	mvn	r1, #0
a0008a8c:	ebffdfa0 	bl	a0000914 <write_GICD_ICENABLER>
a0008a90:	e59d300c 	ldr	r3, [sp, #12]
a0008a94:	e2833001 	add	r3, r3, #1
a0008a98:	e58d300c 	str	r3, [sp, #12]
a0008a9c:	e59d3004 	ldr	r3, [sp, #4]
a0008aa0:	e283201f 	add	r2, r3, #31
a0008aa4:	e3530000 	cmp	r3, #0
a0008aa8:	b1a03002 	movlt	r3, r2
a0008aac:	e1a032c3 	asr	r3, r3, #5
a0008ab0:	e1a02003 	mov	r2, r3
a0008ab4:	e59d300c 	ldr	r3, [sp, #12]
a0008ab8:	e1520003 	cmp	r2, r3
a0008abc:	cafffff0 	bgt	a0008a84 <tmp_init_gicd+0x28>
a0008ac0:	e3a0001b 	mov	r0, #27
a0008ac4:	ebffdf50 	bl	a000080c <gicd_set_enable_irq>
a0008ac8:	e3a0001b 	mov	r0, #27
a0008acc:	e59d1008 	ldr	r1, [sp, #8]
a0008ad0:	ebffe10c 	bl	a0000f08 <gicd_set_target_irq>
a0008ad4:	e3a0001b 	mov	r0, #27
a0008ad8:	e3a010a0 	mov	r1, #160	; 0xa0
a0008adc:	ebffe0bc 	bl	a0000dd4 <gicd_set_priority_irq>
a0008ae0:	ebffdf0a 	bl	a0000710 <gicd_enable_irq_forwarding>
a0008ae4:	e28dd014 	add	sp, sp, #20
a0008ae8:	e49df004 	pop	{pc}		; (ldr pc, [sp], #4)

a0008aec <tmp_init_gicc>:
a0008aec:	e92d4008 	push	{r3, lr}
a0008af0:	ebffe21d 	bl	a000136c <gicc_disable_cpu_interface>
a0008af4:	e3a000f0 	mov	r0, #240	; 0xf0
a0008af8:	ebffe24b 	bl	a000142c <gicc_set_priority_register>
a0008afc:	ebffe20f 	bl	a0001340 <gicc_enable_cpu_interface>
a0008b00:	e8bd8008 	pop	{r3, pc}

a0008b04 <tmp_init_gtimer>:
a0008b04:	e92d4008 	push	{r3, lr}
a0008b08:	e30903e0 	movw	r0, #37856	; 0x93e0
a0008b0c:	e3400004 	movt	r0, #4
a0008b10:	e3a01000 	mov	r1, #0
a0008b14:	ebffe3cc 	bl	a0001a4c <gt_set_virtual_timer_deadline>
a0008b18:	ebffe3c0 	bl	a0001a20 <gt_unmask_virtual_timer>
a0008b1c:	ebffe3a2 	bl	a00019ac <gt_enable_virtual_timer>
a0008b20:	e8bd8008 	pop	{r3, pc}

a0008b24 <xPortStartScheduler>:
a0008b24:	e92d4010 	push	{r4, lr}
a0008b28:	e24dd008 	sub	sp, sp, #8
a0008b2c:	e59f408c 	ldr	r4, [pc, #140]	; a0008bc0 <xPortStartScheduler+0x9c>
a0008b30:	e08f4004 	add	r4, pc, r4
a0008b34:	eb00005d 	bl	a0008cb0 <prvSetupTimerInterrupt>
a0008b38:	e59f3084 	ldr	r3, [pc, #132]	; a0008bc4 <xPortStartScheduler+0xa0>
a0008b3c:	e08f3003 	add	r3, pc, r3
a0008b40:	e1a00003 	mov	r0, r3
a0008b44:	ebffe57b 	bl	a0002138 <em_printf>
a0008b48:	e3a030c0 	mov	r3, #192	; 0xc0
a0008b4c:	e58d3000 	str	r3, [sp]
a0008b50:	e3a03001 	mov	r3, #1
a0008b54:	e58d3004 	str	r3, [sp, #4]
a0008b58:	e59f3068 	ldr	r3, [pc, #104]	; a0008bc8 <xPortStartScheduler+0xa4>
a0008b5c:	e7943003 	ldr	r3, [r4, r3]
a0008b60:	e1a00003 	mov	r0, r3
a0008b64:	e3a01000 	mov	r1, #0
a0008b68:	e3a02001 	mov	r2, #1
a0008b6c:	e3a03001 	mov	r3, #1
a0008b70:	eb000062 	bl	a0008d00 <vPortInstallInterruptHandler>
a0008b74:	e59f3050 	ldr	r3, [pc, #80]	; a0008bcc <xPortStartScheduler+0xa8>
a0008b78:	e08f3003 	add	r3, pc, r3
a0008b7c:	e1a00003 	mov	r0, r3
a0008b80:	ebffe56c 	bl	a0002138 <em_printf>
a0008b84:	e59f3044 	ldr	r3, [pc, #68]	; a0008bd0 <xPortStartScheduler+0xac>
a0008b88:	e08f3003 	add	r3, pc, r3
a0008b8c:	e1a00003 	mov	r0, r3
a0008b90:	ebffe568 	bl	a0002138 <em_printf>
a0008b94:	ebffffb0 	bl	a0008a5c <tmp_init_gicd>
a0008b98:	ebffffd3 	bl	a0008aec <tmp_init_gicc>
a0008b9c:	e59f3030 	ldr	r3, [pc, #48]	; a0008bd4 <xPortStartScheduler+0xb0>
a0008ba0:	e08f3003 	add	r3, pc, r3
a0008ba4:	e1a00003 	mov	r0, r3
a0008ba8:	ebffe562 	bl	a0002138 <em_printf>
a0008bac:	ebffff95 	bl	a0008a08 <vPortStartFirstTask>
a0008bb0:	e3a03000 	mov	r3, #0
a0008bb4:	e1a00003 	mov	r0, r3
a0008bb8:	e28dd008 	add	sp, sp, #8
a0008bbc:	e8bd8010 	pop	{r4, pc}
a0008bc0:	00000b70 	andeq	r0, r0, r0, ror fp
a0008bc4:	00000ae4 	andeq	r0, r0, r4, ror #21
a0008bc8:	00000018 	andeq	r0, r0, r8, lsl r0
a0008bcc:	00000ac0 	andeq	r0, r0, r0, asr #21
a0008bd0:	00000ad0 	ldrdeq	r0, [r0], -r0	; <UNPREDICTABLE>
a0008bd4:	00000adc 	ldrdeq	r0, [r0], -ip

a0008bd8 <vPortEndScheduler>:
a0008bd8:	e12fff1e 	bx	lr

a0008bdc <vPortSysTickHandler>:
a0008bdc:	e52de004 	push	{lr}		; (str lr, [sp, #-4]!)
a0008be0:	e24dd00c 	sub	sp, sp, #12
a0008be4:	e58d0004 	str	r0, [sp, #4]
a0008be8:	e3a0001b 	mov	r0, #27
a0008bec:	ebffdf1f 	bl	a0000870 <gicd_clr_enable_irq>
a0008bf0:	ebfff807 	bl	a0006c14 <vTaskIncrementTick>
a0008bf4:	e30903e0 	movw	r0, #37856	; 0x93e0
a0008bf8:	e3400004 	movt	r0, #4
a0008bfc:	e3a01000 	mov	r1, #0
a0008c00:	ebffe391 	bl	a0001a4c <gt_set_virtual_timer_deadline>
a0008c04:	ebffe385 	bl	a0001a20 <gt_unmask_virtual_timer>
a0008c08:	e3a0001b 	mov	r0, #27
a0008c0c:	ebffdefe 	bl	a000080c <gicd_set_enable_irq>
a0008c10:	ebfff8af 	bl	a0006ed4 <vTaskSwitchContext>
a0008c14:	e28dd00c 	add	sp, sp, #12
a0008c18:	e49df004 	pop	{pc}		; (ldr pc, [sp], #4)

a0008c1c <generic_timer_disable>:
a0008c1c:	e24dd008 	sub	sp, sp, #8
a0008c20:	ee1e3f32 	mrc	15, 0, r3, cr14, cr2, {1}
a0008c24:	e58d3004 	str	r3, [sp, #4]
a0008c28:	e59d3004 	ldr	r3, [sp, #4]
a0008c2c:	e58d3000 	str	r3, [sp]
a0008c30:	e59d3000 	ldr	r3, [sp]
a0008c34:	e2033004 	and	r3, r3, #4
a0008c38:	e3530000 	cmp	r3, #0
a0008c3c:	0a000004 	beq	a0008c54 <generic_timer_disable+0x38>
a0008c40:	e59d3000 	ldr	r3, [sp]
a0008c44:	e3833002 	orr	r3, r3, #2
a0008c48:	e58d3000 	str	r3, [sp]
a0008c4c:	e59d3000 	ldr	r3, [sp]
a0008c50:	ee0e3f32 	mcr	15, 0, r3, cr14, cr2, {1}
a0008c54:	e28dd008 	add	sp, sp, #8
a0008c58:	e12fff1e 	bx	lr

a0008c5c <generic_timer_enable>:
a0008c5c:	e24dd010 	sub	sp, sp, #16
a0008c60:	ee1e3f32 	mrc	15, 0, r3, cr14, cr2, {1}
a0008c64:	e58d300c 	str	r3, [sp, #12]
a0008c68:	e59d300c 	ldr	r3, [sp, #12]
a0008c6c:	e58d3008 	str	r3, [sp, #8]
a0008c70:	e59d3008 	ldr	r3, [sp, #8]
a0008c74:	e3833001 	orr	r3, r3, #1
a0008c78:	e58d3008 	str	r3, [sp, #8]
a0008c7c:	e59d3008 	ldr	r3, [sp, #8]
a0008c80:	e3c33002 	bic	r3, r3, #2
a0008c84:	e58d3008 	str	r3, [sp, #8]
a0008c88:	e30826a0 	movw	r2, #34464	; 0x86a0
a0008c8c:	e3402001 	movt	r2, #1
a0008c90:	e3a03000 	mov	r3, #0
a0008c94:	e1cd20f0 	strd	r2, [sp]
a0008c98:	e1cd20d0 	ldrd	r2, [sp]
a0008c9c:	ee0e2f12 	mcr	15, 0, r2, cr14, cr2, {0}
a0008ca0:	e59d3008 	ldr	r3, [sp, #8]
a0008ca4:	ee0e3f32 	mcr	15, 0, r3, cr14, cr2, {1}
a0008ca8:	e28dd010 	add	sp, sp, #16
a0008cac:	e12fff1e 	bx	lr

a0008cb0 <prvSetupTimerInterrupt>:
a0008cb0:	e92d4010 	push	{r4, lr}
a0008cb4:	e24dd008 	sub	sp, sp, #8
a0008cb8:	e59f4038 	ldr	r4, [pc, #56]	; a0008cf8 <prvSetupTimerInterrupt+0x48>
a0008cbc:	e08f4004 	add	r4, pc, r4
a0008cc0:	ebffff8f 	bl	a0008b04 <tmp_init_gtimer>
a0008cc4:	e3a030c0 	mov	r3, #192	; 0xc0
a0008cc8:	e58d3000 	str	r3, [sp]
a0008ccc:	e3a03001 	mov	r3, #1
a0008cd0:	e58d3004 	str	r3, [sp, #4]
a0008cd4:	e59f3020 	ldr	r3, [pc, #32]	; a0008cfc <prvSetupTimerInterrupt+0x4c>
a0008cd8:	e7943003 	ldr	r3, [r4, r3]
a0008cdc:	e1a00003 	mov	r0, r3
a0008ce0:	e3a01000 	mov	r1, #0
a0008ce4:	e3a0201b 	mov	r2, #27
a0008ce8:	e3a03001 	mov	r3, #1
a0008cec:	eb000003 	bl	a0008d00 <vPortInstallInterruptHandler>
a0008cf0:	e28dd008 	add	sp, sp, #8
a0008cf4:	e8bd8010 	pop	{r4, pc}
a0008cf8:	000009e4 	andeq	r0, r0, r4, ror #19
a0008cfc:	00000008 	andeq	r0, r0, r8

a0008d00 <vPortInstallInterruptHandler>:
a0008d00:	e24dd070 	sub	sp, sp, #112	; 0x70
a0008d04:	e58d000c 	str	r0, [sp, #12]
a0008d08:	e58d1008 	str	r1, [sp, #8]
a0008d0c:	e58d2004 	str	r2, [sp, #4]
a0008d10:	e5cd3003 	strb	r3, [sp, #3]
a0008d14:	e59f2328 	ldr	r2, [pc, #808]	; a0009044 <vPortInstallInterruptHandler+0x344>
a0008d18:	e08f2002 	add	r2, pc, r2
a0008d1c:	e59d3004 	ldr	r3, [sp, #4]
a0008d20:	e1a032a3 	lsr	r3, r3, #5
a0008d24:	e1a03103 	lsl	r3, r3, #2
a0008d28:	e58d306c 	str	r3, [sp, #108]	; 0x6c
a0008d2c:	e59d3004 	ldr	r3, [sp, #4]
a0008d30:	e203301f 	and	r3, r3, #31
a0008d34:	e58d3068 	str	r3, [sp, #104]	; 0x68
a0008d38:	e59d3004 	ldr	r3, [sp, #4]
a0008d3c:	e1a03123 	lsr	r3, r3, #2
a0008d40:	e1a03103 	lsl	r3, r3, #2
a0008d44:	e58d3064 	str	r3, [sp, #100]	; 0x64
a0008d48:	e59d3004 	ldr	r3, [sp, #4]
a0008d4c:	e2033003 	and	r3, r3, #3
a0008d50:	e58d3060 	str	r3, [sp, #96]	; 0x60
a0008d54:	e59d3004 	ldr	r3, [sp, #4]
a0008d58:	e1a03223 	lsr	r3, r3, #4
a0008d5c:	e1a03103 	lsl	r3, r3, #2
a0008d60:	e58d305c 	str	r3, [sp, #92]	; 0x5c
a0008d64:	e59d3004 	ldr	r3, [sp, #4]
a0008d68:	e203300f 	and	r3, r3, #15
a0008d6c:	e58d3058 	str	r3, [sp, #88]	; 0x58
a0008d70:	e3a03000 	mov	r3, #0
a0008d74:	e58d3054 	str	r3, [sp, #84]	; 0x54
a0008d78:	e3a03000 	mov	r3, #0
a0008d7c:	e58d3050 	str	r3, [sp, #80]	; 0x50
a0008d80:	e3a03a02 	mov	r3, #8192	; 0x2000
a0008d84:	e3453004 	movt	r3, #20484	; 0x5004
a0008d88:	e58d3054 	str	r3, [sp, #84]	; 0x54
a0008d8c:	e3a03a01 	mov	r3, #4096	; 0x1000
a0008d90:	e3453004 	movt	r3, #20484	; 0x5004
a0008d94:	e58d3050 	str	r3, [sp, #80]	; 0x50
a0008d98:	e59f32a8 	ldr	r3, [pc, #680]	; a0009048 <vPortInstallInterruptHandler+0x348>
a0008d9c:	e08f3003 	add	r3, pc, r3
a0008da0:	e5933000 	ldr	r3, [r3]
a0008da4:	e59d1004 	ldr	r1, [sp, #4]
a0008da8:	e1510003 	cmp	r1, r3
a0008dac:	2a0000a2 	bcs	a000903c <vPortInstallInterruptHandler+0x33c>
a0008db0:	e59f3294 	ldr	r3, [pc, #660]	; a000904c <vPortInstallInterruptHandler+0x34c>
a0008db4:	e7923003 	ldr	r3, [r2, r3]
a0008db8:	e59d1004 	ldr	r1, [sp, #4]
a0008dbc:	e59d000c 	ldr	r0, [sp, #12]
a0008dc0:	e7830181 	str	r0, [r3, r1, lsl #3]
a0008dc4:	e59f3280 	ldr	r3, [pc, #640]	; a000904c <vPortInstallInterruptHandler+0x34c>
a0008dc8:	e7921003 	ldr	r1, [r2, r3]
a0008dcc:	e59d2004 	ldr	r2, [sp, #4]
a0008dd0:	e3a03004 	mov	r3, #4
a0008dd4:	e1a02182 	lsl	r2, r2, #3
a0008dd8:	e0812002 	add	r2, r1, r2
a0008ddc:	e0823003 	add	r3, r2, r3
a0008de0:	e59d2008 	ldr	r2, [sp, #8]
a0008de4:	e5832000 	str	r2, [r3]
a0008de8:	e59d3004 	ldr	r3, [sp, #4]
a0008dec:	e1a032a3 	lsr	r3, r3, #5
a0008df0:	e1a03103 	lsl	r3, r3, #2
a0008df4:	e58d306c 	str	r3, [sp, #108]	; 0x6c
a0008df8:	e59d3004 	ldr	r3, [sp, #4]
a0008dfc:	e203301f 	and	r3, r3, #31
a0008e00:	e58d3068 	str	r3, [sp, #104]	; 0x68
a0008e04:	e59d3004 	ldr	r3, [sp, #4]
a0008e08:	e1a03123 	lsr	r3, r3, #2
a0008e0c:	e1a03103 	lsl	r3, r3, #2
a0008e10:	e58d3064 	str	r3, [sp, #100]	; 0x64
a0008e14:	e59d3004 	ldr	r3, [sp, #4]
a0008e18:	e2033003 	and	r3, r3, #3
a0008e1c:	e58d3060 	str	r3, [sp, #96]	; 0x60
a0008e20:	e59d3004 	ldr	r3, [sp, #4]
a0008e24:	e1a03223 	lsr	r3, r3, #4
a0008e28:	e1a03103 	lsl	r3, r3, #2
a0008e2c:	e58d305c 	str	r3, [sp, #92]	; 0x5c
a0008e30:	e59d3004 	ldr	r3, [sp, #4]
a0008e34:	e203300f 	and	r3, r3, #15
a0008e38:	e58d3058 	str	r3, [sp, #88]	; 0x58
a0008e3c:	e5dd3003 	ldrb	r3, [sp, #3]
a0008e40:	e3530000 	cmp	r3, #0
a0008e44:	0a000014 	beq	a0008e9c <vPortInstallInterruptHandler+0x19c>
a0008e48:	e59d2050 	ldr	r2, [sp, #80]	; 0x50
a0008e4c:	e59d305c 	ldr	r3, [sp, #92]	; 0x5c
a0008e50:	e0823003 	add	r3, r2, r3
a0008e54:	e2833b03 	add	r3, r3, #3072	; 0xc00
a0008e58:	e59d1050 	ldr	r1, [sp, #80]	; 0x50
a0008e5c:	e59d205c 	ldr	r2, [sp, #92]	; 0x5c
a0008e60:	e0812002 	add	r2, r1, r2
a0008e64:	e2822b03 	add	r2, r2, #3072	; 0xc00
a0008e68:	e5921000 	ldr	r1, [r2]
a0008e6c:	e59d0050 	ldr	r0, [sp, #80]	; 0x50
a0008e70:	e59d205c 	ldr	r2, [sp, #92]	; 0x5c
a0008e74:	e0802002 	add	r2, r0, r2
a0008e78:	e2822b03 	add	r2, r2, #3072	; 0xc00
a0008e7c:	e5920000 	ldr	r0, [r2]
a0008e80:	e59d2058 	ldr	r2, [sp, #88]	; 0x58
a0008e84:	e1a02082 	lsl	r2, r2, #1
a0008e88:	e3a0c002 	mov	ip, #2
a0008e8c:	e1a0221c 	lsl	r2, ip, r2
a0008e90:	e1802002 	orr	r2, r0, r2
a0008e94:	e1812002 	orr	r2, r1, r2
a0008e98:	e5832000 	str	r2, [r3]
a0008e9c:	e59d2050 	ldr	r2, [sp, #80]	; 0x50
a0008ea0:	e59d3064 	ldr	r3, [sp, #100]	; 0x64
a0008ea4:	e0823003 	add	r3, r2, r3
a0008ea8:	e2833b01 	add	r3, r3, #1024	; 0x400
a0008eac:	e5dd1070 	ldrb	r1, [sp, #112]	; 0x70
a0008eb0:	e59d2060 	ldr	r2, [sp, #96]	; 0x60
a0008eb4:	e1a02182 	lsl	r2, r2, #3
a0008eb8:	e1a02211 	lsl	r2, r1, r2
a0008ebc:	e5832000 	str	r2, [r3]
a0008ec0:	e59d2050 	ldr	r2, [sp, #80]	; 0x50
a0008ec4:	e59d3064 	ldr	r3, [sp, #100]	; 0x64
a0008ec8:	e0823003 	add	r3, r2, r3
a0008ecc:	e2833b02 	add	r3, r3, #2048	; 0x800
a0008ed0:	e5dd1074 	ldrb	r1, [sp, #116]	; 0x74
a0008ed4:	e59d2060 	ldr	r2, [sp, #96]	; 0x60
a0008ed8:	e1a02182 	lsl	r2, r2, #3
a0008edc:	e1a02211 	lsl	r2, r1, r2
a0008ee0:	e5832000 	str	r2, [r3]
a0008ee4:	e59d300c 	ldr	r3, [sp, #12]
a0008ee8:	e3530000 	cmp	r3, #0
a0008eec:	0a000028 	beq	a0008f94 <vPortInstallInterruptHandler+0x294>
a0008ef0:	e59d2050 	ldr	r2, [sp, #80]	; 0x50
a0008ef4:	e59d306c 	ldr	r3, [sp, #108]	; 0x6c
a0008ef8:	e0823003 	add	r3, r2, r3
a0008efc:	e2833d0a 	add	r3, r3, #640	; 0x280
a0008f00:	e59d1050 	ldr	r1, [sp, #80]	; 0x50
a0008f04:	e59d206c 	ldr	r2, [sp, #108]	; 0x6c
a0008f08:	e0812002 	add	r2, r1, r2
a0008f0c:	e2822d0a 	add	r2, r2, #640	; 0x280
a0008f10:	e5921000 	ldr	r1, [r2]
a0008f14:	e59d0050 	ldr	r0, [sp, #80]	; 0x50
a0008f18:	e59d206c 	ldr	r2, [sp, #108]	; 0x6c
a0008f1c:	e0802002 	add	r2, r0, r2
a0008f20:	e2822d0a 	add	r2, r2, #640	; 0x280
a0008f24:	e5920000 	ldr	r0, [r2]
a0008f28:	e59d2068 	ldr	r2, [sp, #104]	; 0x68
a0008f2c:	e3a0c001 	mov	ip, #1
a0008f30:	e1a0221c 	lsl	r2, ip, r2
a0008f34:	e1802002 	orr	r2, r0, r2
a0008f38:	e1812002 	orr	r2, r1, r2
a0008f3c:	e5832000 	str	r2, [r3]
a0008f40:	e59d2050 	ldr	r2, [sp, #80]	; 0x50
a0008f44:	e59d306c 	ldr	r3, [sp, #108]	; 0x6c
a0008f48:	e0823003 	add	r3, r2, r3
a0008f4c:	e2833c01 	add	r3, r3, #256	; 0x100
a0008f50:	e59d1050 	ldr	r1, [sp, #80]	; 0x50
a0008f54:	e59d206c 	ldr	r2, [sp, #108]	; 0x6c
a0008f58:	e0812002 	add	r2, r1, r2
a0008f5c:	e2822c01 	add	r2, r2, #256	; 0x100
a0008f60:	e5921000 	ldr	r1, [r2]
a0008f64:	e59d0050 	ldr	r0, [sp, #80]	; 0x50
a0008f68:	e59d206c 	ldr	r2, [sp, #108]	; 0x6c
a0008f6c:	e0802002 	add	r2, r0, r2
a0008f70:	e2822c01 	add	r2, r2, #256	; 0x100
a0008f74:	e5920000 	ldr	r0, [r2]
a0008f78:	e59d2068 	ldr	r2, [sp, #104]	; 0x68
a0008f7c:	e3a0c001 	mov	ip, #1
a0008f80:	e1a0221c 	lsl	r2, ip, r2
a0008f84:	e1802002 	orr	r2, r0, r2
a0008f88:	e1812002 	orr	r2, r1, r2
a0008f8c:	e5832000 	str	r2, [r3]
a0008f90:	ea000029 	b	a000903c <vPortInstallInterruptHandler+0x33c>
a0008f94:	e59d2050 	ldr	r2, [sp, #80]	; 0x50
a0008f98:	e59d306c 	ldr	r3, [sp, #108]	; 0x6c
a0008f9c:	e0823003 	add	r3, r2, r3
a0008fa0:	e2833d0a 	add	r3, r3, #640	; 0x280
a0008fa4:	e59d1050 	ldr	r1, [sp, #80]	; 0x50
a0008fa8:	e59d206c 	ldr	r2, [sp, #108]	; 0x6c
a0008fac:	e0812002 	add	r2, r1, r2
a0008fb0:	e2822d0a 	add	r2, r2, #640	; 0x280
a0008fb4:	e5921000 	ldr	r1, [r2]
a0008fb8:	e59d0050 	ldr	r0, [sp, #80]	; 0x50
a0008fbc:	e59d206c 	ldr	r2, [sp, #108]	; 0x6c
a0008fc0:	e0802002 	add	r2, r0, r2
a0008fc4:	e2822d0a 	add	r2, r2, #640	; 0x280
a0008fc8:	e5920000 	ldr	r0, [r2]
a0008fcc:	e59d2068 	ldr	r2, [sp, #104]	; 0x68
a0008fd0:	e3a0c001 	mov	ip, #1
a0008fd4:	e1a0221c 	lsl	r2, ip, r2
a0008fd8:	e1802002 	orr	r2, r0, r2
a0008fdc:	e1e02002 	mvn	r2, r2
a0008fe0:	e0012002 	and	r2, r1, r2
a0008fe4:	e5832000 	str	r2, [r3]
a0008fe8:	e59d2050 	ldr	r2, [sp, #80]	; 0x50
a0008fec:	e59d306c 	ldr	r3, [sp, #108]	; 0x6c
a0008ff0:	e0823003 	add	r3, r2, r3
a0008ff4:	e2833c01 	add	r3, r3, #256	; 0x100
a0008ff8:	e59d1050 	ldr	r1, [sp, #80]	; 0x50
a0008ffc:	e59d206c 	ldr	r2, [sp, #108]	; 0x6c
a0009000:	e0812002 	add	r2, r1, r2
a0009004:	e2822c01 	add	r2, r2, #256	; 0x100
a0009008:	e5921000 	ldr	r1, [r2]
a000900c:	e59d0050 	ldr	r0, [sp, #80]	; 0x50
a0009010:	e59d206c 	ldr	r2, [sp, #108]	; 0x6c
a0009014:	e0802002 	add	r2, r0, r2
a0009018:	e2822c01 	add	r2, r2, #256	; 0x100
a000901c:	e5920000 	ldr	r0, [r2]
a0009020:	e59d2068 	ldr	r2, [sp, #104]	; 0x68
a0009024:	e3a0c001 	mov	ip, #1
a0009028:	e1a0221c 	lsl	r2, ip, r2
a000902c:	e1802002 	orr	r2, r0, r2
a0009030:	e1e02002 	mvn	r2, r2
a0009034:	e0012002 	and	r2, r1, r2
a0009038:	e5832000 	str	r2, [r3]
a000903c:	e28dd070 	add	sp, sp, #112	; 0x70
a0009040:	e12fff1e 	bx	lr
a0009044:	00000988 	andeq	r0, r0, r8, lsl #19
a0009048:	00000a4c 	andeq	r0, r0, ip, asr #20
a000904c:	00000014 	andeq	r0, r0, r4, lsl r0

a0009050 <vPortGICInterruptHandler>:
a0009050:	e52de004 	push	{lr}		; (str lr, [sp, #-4]!)
a0009054:	e24dd054 	sub	sp, sp, #84	; 0x54
a0009058:	e59f30dc 	ldr	r3, [pc, #220]	; a000913c <vPortGICInterruptHandler+0xec>
a000905c:	e08f3003 	add	r3, pc, r3
a0009060:	e3a02000 	mov	r2, #0
a0009064:	e58d2048 	str	r2, [sp, #72]	; 0x48
a0009068:	e3a02a02 	mov	r2, #8192	; 0x2000
a000906c:	e3452004 	movt	r2, #20484	; 0x5004
a0009070:	e58d204c 	str	r2, [sp, #76]	; 0x4c
a0009074:	e3a02000 	mov	r2, #0
a0009078:	e58d2044 	str	r2, [sp, #68]	; 0x44
a000907c:	e302200c 	movw	r2, #8204	; 0x200c
a0009080:	e3452004 	movt	r2, #20484	; 0x5004
a0009084:	e5922000 	ldr	r2, [r2]
a0009088:	e58d2048 	str	r2, [sp, #72]	; 0x48
a000908c:	e59d2048 	ldr	r2, [sp, #72]	; 0x48
a0009090:	e7e91052 	ubfx	r1, r2, #0, #10
a0009094:	e30023ff 	movw	r2, #1023	; 0x3ff
a0009098:	e1510002 	cmp	r1, r2
a000909c:	1a000002 	bne	a00090ac <vPortGICInterruptHandler+0x5c>
a00090a0:	e3a02a02 	mov	r2, #8192	; 0x2000
a00090a4:	e3452004 	movt	r2, #20484	; 0x5004
a00090a8:	e58d204c 	str	r2, [sp, #76]	; 0x4c
a00090ac:	e59d2048 	ldr	r2, [sp, #72]	; 0x48
a00090b0:	e7e91052 	ubfx	r1, r2, #0, #10
a00090b4:	e59f2084 	ldr	r2, [pc, #132]	; a0009140 <vPortGICInterruptHandler+0xf0>
a00090b8:	e08f2002 	add	r2, pc, r2
a00090bc:	e5922000 	ldr	r2, [r2]
a00090c0:	e1510002 	cmp	r1, r2
a00090c4:	2a00001a 	bcs	a0009134 <vPortGICInterruptHandler+0xe4>
a00090c8:	e59d2048 	ldr	r2, [sp, #72]	; 0x48
a00090cc:	e7e91052 	ubfx	r1, r2, #0, #10
a00090d0:	e59f206c 	ldr	r2, [pc, #108]	; a0009144 <vPortGICInterruptHandler+0xf4>
a00090d4:	e7932002 	ldr	r2, [r3, r2]
a00090d8:	e7922181 	ldr	r2, [r2, r1, lsl #3]
a00090dc:	e3520000 	cmp	r2, #0
a00090e0:	0a000013 	beq	a0009134 <vPortGICInterruptHandler+0xe4>
a00090e4:	e59d2048 	ldr	r2, [sp, #72]	; 0x48
a00090e8:	e7e91052 	ubfx	r1, r2, #0, #10
a00090ec:	e59f2050 	ldr	r2, [pc, #80]	; a0009144 <vPortGICInterruptHandler+0xf4>
a00090f0:	e7932002 	ldr	r2, [r3, r2]
a00090f4:	e7922181 	ldr	r2, [r2, r1, lsl #3]
a00090f8:	e59d1048 	ldr	r1, [sp, #72]	; 0x48
a00090fc:	e7e91051 	ubfx	r1, r1, #0, #10
a0009100:	e59f003c 	ldr	r0, [pc, #60]	; a0009144 <vPortGICInterruptHandler+0xf4>
a0009104:	e7930000 	ldr	r0, [r3, r0]
a0009108:	e3a03004 	mov	r3, #4
a000910c:	e1a01181 	lsl	r1, r1, #3
a0009110:	e0801001 	add	r1, r0, r1
a0009114:	e0813003 	add	r3, r1, r3
a0009118:	e5933000 	ldr	r3, [r3]
a000911c:	e1a00003 	mov	r0, r3
a0009120:	e12fff32 	blx	r2
a0009124:	e59d304c 	ldr	r3, [sp, #76]	; 0x4c
a0009128:	e2833010 	add	r3, r3, #16
a000912c:	e59d2048 	ldr	r2, [sp, #72]	; 0x48
a0009130:	e5832000 	str	r2, [r3]
a0009134:	e28dd054 	add	sp, sp, #84	; 0x54
a0009138:	e49df004 	pop	{pc}		; (ldr pc, [sp], #4)
a000913c:	00000644 	andeq	r0, r0, r4, asr #12
a0009140:	00000730 	andeq	r0, r0, r0, lsr r7
a0009144:	00000014 	andeq	r0, r0, r4, lsl r0

a0009148 <xPortSetInterruptMask>:
a0009148:	e24dd008 	sub	sp, sp, #8
a000914c:	e3023004 	movw	r3, #8196	; 0x2004
a0009150:	e3453004 	movt	r3, #20484	; 0x5004
a0009154:	e5933000 	ldr	r3, [r3]
a0009158:	e58d3004 	str	r3, [sp, #4]
a000915c:	e3023004 	movw	r3, #8196	; 0x2004
a0009160:	e3453004 	movt	r3, #20484	; 0x5004
a0009164:	e3a020a0 	mov	r2, #160	; 0xa0
a0009168:	e5832000 	str	r2, [r3]
a000916c:	e59d3004 	ldr	r3, [sp, #4]
a0009170:	e1a00003 	mov	r0, r3
a0009174:	e28dd008 	add	sp, sp, #8
a0009178:	e12fff1e 	bx	lr

a000917c <vPortClearInterruptMask>:
a000917c:	e24dd008 	sub	sp, sp, #8
a0009180:	e58d0004 	str	r0, [sp, #4]
a0009184:	e3023004 	movw	r3, #8196	; 0x2004
a0009188:	e3453004 	movt	r3, #20484	; 0x5004
a000918c:	e59d2004 	ldr	r2, [sp, #4]
a0009190:	e5832000 	str	r2, [r3]
a0009194:	e28dd008 	add	sp, sp, #8
a0009198:	e12fff1e 	bx	lr

a000919c <vPortUnknownInterruptHandler>:
a000919c:	e24dd008 	sub	sp, sp, #8
a00091a0:	e58d0004 	str	r0, [sp, #4]
a00091a4:	e28dd008 	add	sp, sp, #8
a00091a8:	e12fff1e 	bx	lr

a00091ac <_init>:
a00091ac:	e24dd028 	sub	sp, sp, #40	; 0x28
a00091b0:	e3a03000 	mov	r3, #0
a00091b4:	e58d301c 	str	r3, [sp, #28]
a00091b8:	e28d3010 	add	r3, sp, #16
a00091bc:	e58d3024 	str	r3, [sp, #36]	; 0x24
a00091c0:	e28d300c 	add	r3, sp, #12
a00091c4:	e58d3020 	str	r3, [sp, #32]
a00091c8:	ea000007 	b	a00091ec <_init+0x40>
a00091cc:	e59d3020 	ldr	r3, [sp, #32]
a00091d0:	e2832004 	add	r2, r3, #4
a00091d4:	e58d2020 	str	r2, [sp, #32]
a00091d8:	e59d2024 	ldr	r2, [sp, #36]	; 0x24
a00091dc:	e2821004 	add	r1, r2, #4
a00091e0:	e58d1024 	str	r1, [sp, #36]	; 0x24
a00091e4:	e5922000 	ldr	r2, [r2]
a00091e8:	e5832000 	str	r2, [r3]
a00091ec:	e28d3008 	add	r3, sp, #8
a00091f0:	e59d2020 	ldr	r2, [sp, #32]
a00091f4:	e1520003 	cmp	r2, r3
a00091f8:	3afffff3 	bcc	a00091cc <_init+0x20>
a00091fc:	e28d3004 	add	r3, sp, #4
a0009200:	e58d3020 	str	r3, [sp, #32]
a0009204:	ea000004 	b	a000921c <_init+0x70>
a0009208:	e59d3020 	ldr	r3, [sp, #32]
a000920c:	e2832004 	add	r2, r3, #4
a0009210:	e58d2020 	str	r2, [sp, #32]
a0009214:	e3a02000 	mov	r2, #0
a0009218:	e5832000 	str	r2, [r3]
a000921c:	e1a0300d 	mov	r3, sp
a0009220:	e59d2020 	ldr	r2, [sp, #32]
a0009224:	e1520003 	cmp	r2, r3
a0009228:	3afffff6 	bcc	a0009208 <_init+0x5c>
a000922c:	e59f3100 	ldr	r3, [pc, #256]	; a0009334 <_init+0x188>
a0009230:	e08f3003 	add	r3, pc, r3
a0009234:	e5933000 	ldr	r3, [r3]
a0009238:	e59f20f8 	ldr	r2, [pc, #248]	; a0009338 <_init+0x18c>
a000923c:	e08f2002 	add	r2, pc, r2
a0009240:	e5922000 	ldr	r2, [r2]
a0009244:	e59f10f0 	ldr	r1, [pc, #240]	; a000933c <_init+0x190>
a0009248:	e08f1001 	add	r1, pc, r1
a000924c:	e5911000 	ldr	r1, [r1]
a0009250:	e59f00e8 	ldr	r0, [pc, #232]	; a0009340 <_init+0x194>
a0009254:	e08f0000 	add	r0, pc, r0
a0009258:	e5900000 	ldr	r0, [r0]
a000925c:	f1020011 	cps	#17
a0009260:	e320f000 	nop	{0}
a0009264:	e1a0d003 	mov	sp, r3
a0009268:	e320f000 	nop	{0}
a000926c:	f1020012 	cps	#18
a0009270:	e320f000 	nop	{0}
a0009274:	e1a0d002 	mov	sp, r2
a0009278:	e320f000 	nop	{0}
a000927c:	f1020017 	cps	#23
a0009280:	e320f000 	nop	{0}
a0009284:	e1a0d001 	mov	sp, r1
a0009288:	e320f000 	nop	{0}
a000928c:	f102001b 	cps	#27
a0009290:	e320f000 	nop	{0}
a0009294:	e1a0d001 	mov	sp, r1
a0009298:	e320f000 	nop	{0}
a000929c:	f1020013 	cps	#19
a00092a0:	e320f000 	nop	{0}
a00092a4:	e1a0d000 	mov	sp, r0
a00092a8:	e320f000 	nop	{0}
a00092ac:	e28d3018 	add	r3, sp, #24
a00092b0:	e58d3024 	str	r3, [sp, #36]	; 0x24
a00092b4:	e3a03000 	mov	r3, #0
a00092b8:	e3483050 	movt	r3, #32848	; 0x8050
a00092bc:	e58d3020 	str	r3, [sp, #32]
a00092c0:	e28d3018 	add	r3, sp, #24
a00092c4:	e58d3024 	str	r3, [sp, #36]	; 0x24
a00092c8:	ea000007 	b	a00092ec <_init+0x140>
a00092cc:	e59d3020 	ldr	r3, [sp, #32]
a00092d0:	e2832004 	add	r2, r3, #4
a00092d4:	e58d2020 	str	r2, [sp, #32]
a00092d8:	e59d2024 	ldr	r2, [sp, #36]	; 0x24
a00092dc:	e2821004 	add	r1, r2, #4
a00092e0:	e58d1024 	str	r1, [sp, #36]	; 0x24
a00092e4:	e5922000 	ldr	r2, [r2]
a00092e8:	e5832000 	str	r2, [r3]
a00092ec:	e28d3014 	add	r3, sp, #20
a00092f0:	e59d2024 	ldr	r2, [sp, #36]	; 0x24
a00092f4:	e1520003 	cmp	r2, r3
a00092f8:	3afffff3 	bcc	a00092cc <_init+0x120>
a00092fc:	e3a03000 	mov	r3, #0
a0009300:	e3483050 	movt	r3, #32848	; 0x8050
a0009304:	e58d3020 	str	r3, [sp, #32]
a0009308:	e59d3020 	ldr	r3, [sp, #32]
a000930c:	ee0c3f10 	mcr	15, 0, r3, cr12, cr0, {0}
a0009310:	ee113f10 	mrc	15, 0, r3, cr1, cr0, {0}
a0009314:	e58d301c 	str	r3, [sp, #28]
a0009318:	e59d301c 	ldr	r3, [sp, #28]
a000931c:	e3c33a02 	bic	r3, r3, #8192	; 0x2000
a0009320:	e58d301c 	str	r3, [sp, #28]
a0009324:	e59d301c 	ldr	r3, [sp, #28]
a0009328:	ee013f10 	mcr	15, 0, r3, cr1, cr0, {0}
a000932c:	e28dd028 	add	sp, sp, #40	; 0x28
a0009330:	e12fff1e 	bx	lr
a0009334:	000004a0 	andeq	r0, r0, r0, lsr #9
a0009338:	00000498 	muleq	r0, r8, r4
a000933c:	00000490 	muleq	r0, r0, r4
a0009340:	00000488 	andeq	r0, r0, r8, lsl #9

a0009344 <Undefined_Handler_Panic>:
a0009344:	e1600070 	smc	0
a0009348:	eafffffe 	b	a0009348 <Undefined_Handler_Panic+0x4>

a000934c <Prefetch_Handler_Panic>:
a000934c:	e1600070 	smc	0
a0009350:	eafffffe 	b	a0009350 <Prefetch_Handler_Panic+0x4>

a0009354 <Abort_Handler_Panic>:
a0009354:	eafffffe 	b	a0009354 <Abort_Handler_Panic>

a0009358 <pvPortMalloc>:
a0009358:	e52de004 	push	{lr}		; (str lr, [sp, #-4]!)
a000935c:	e24dd014 	sub	sp, sp, #20
a0009360:	e58d0004 	str	r0, [sp, #4]
a0009364:	e3a03000 	mov	r3, #0
a0009368:	e58d300c 	str	r3, [sp, #12]
a000936c:	e59d3004 	ldr	r3, [sp, #4]
a0009370:	e2033007 	and	r3, r3, #7
a0009374:	e3530000 	cmp	r3, #0
a0009378:	0a000003 	beq	a000938c <pvPortMalloc+0x34>
a000937c:	e59d3004 	ldr	r3, [sp, #4]
a0009380:	e3c33007 	bic	r3, r3, #7
a0009384:	e2833008 	add	r3, r3, #8
a0009388:	e58d3004 	str	r3, [sp, #4]
a000938c:	ebfff4ce 	bl	a00066cc <vTaskSuspendAll>
a0009390:	e59f309c 	ldr	r3, [pc, #156]	; a0009434 <pvPortMalloc+0xdc>
a0009394:	e08f3003 	add	r3, pc, r3
a0009398:	e5932000 	ldr	r2, [r3]
a000939c:	e59d3004 	ldr	r3, [sp, #4]
a00093a0:	e0823003 	add	r3, r2, r3
a00093a4:	e3530502 	cmp	r3, #8388608	; 0x800000
a00093a8:	2a000018 	bcs	a0009410 <pvPortMalloc+0xb8>
a00093ac:	e59f3084 	ldr	r3, [pc, #132]	; a0009438 <pvPortMalloc+0xe0>
a00093b0:	e08f3003 	add	r3, pc, r3
a00093b4:	e5932000 	ldr	r2, [r3]
a00093b8:	e59d3004 	ldr	r3, [sp, #4]
a00093bc:	e0822003 	add	r2, r2, r3
a00093c0:	e59f3074 	ldr	r3, [pc, #116]	; a000943c <pvPortMalloc+0xe4>
a00093c4:	e08f3003 	add	r3, pc, r3
a00093c8:	e5933000 	ldr	r3, [r3]
a00093cc:	e1520003 	cmp	r2, r3
a00093d0:	9a00000e 	bls	a0009410 <pvPortMalloc+0xb8>
a00093d4:	e59f3064 	ldr	r3, [pc, #100]	; a0009440 <pvPortMalloc+0xe8>
a00093d8:	e08f3003 	add	r3, pc, r3
a00093dc:	e5932000 	ldr	r2, [r3]
a00093e0:	e59f305c 	ldr	r3, [pc, #92]	; a0009444 <pvPortMalloc+0xec>
a00093e4:	e08f3003 	add	r3, pc, r3
a00093e8:	e0823003 	add	r3, r2, r3
a00093ec:	e58d300c 	str	r3, [sp, #12]
a00093f0:	e59f3050 	ldr	r3, [pc, #80]	; a0009448 <pvPortMalloc+0xf0>
a00093f4:	e08f3003 	add	r3, pc, r3
a00093f8:	e5932000 	ldr	r2, [r3]
a00093fc:	e59d3004 	ldr	r3, [sp, #4]
a0009400:	e0822003 	add	r2, r2, r3
a0009404:	e59f3040 	ldr	r3, [pc, #64]	; a000944c <pvPortMalloc+0xf4>
a0009408:	e08f3003 	add	r3, pc, r3
a000940c:	e5832000 	str	r2, [r3]
a0009410:	ebfff4b7 	bl	a00066f4 <xTaskResumeAll>
a0009414:	e59d300c 	ldr	r3, [sp, #12]
a0009418:	e3530000 	cmp	r3, #0
a000941c:	1a000000 	bne	a0009424 <pvPortMalloc+0xcc>
a0009420:	ebffdca9 	bl	a00006cc <vApplicationMallocFailedHook>
a0009424:	e59d300c 	ldr	r3, [sp, #12]
a0009428:	e1a00003 	mov	r0, r3
a000942c:	e28dd014 	add	sp, sp, #20
a0009430:	e49df004 	pop	{pc}		; (ldr pc, [sp], #4)
a0009434:	008019ac 	addeq	r1, r0, ip, lsr #19
a0009438:	00801990 	umulleq	r1, r0, r0, r9
a000943c:	0080197c 	addeq	r1, r0, ip, ror r9
a0009440:	00801968 	addeq	r1, r0, r8, ror #18
a0009444:	0000195c 	andeq	r1, r0, ip, asr r9
a0009448:	0080194c 	addeq	r1, r0, ip, asr #18
a000944c:	00801938 	addeq	r1, r0, r8, lsr r9

a0009450 <vPortFree>:
a0009450:	e24dd008 	sub	sp, sp, #8
a0009454:	e58d0004 	str	r0, [sp, #4]
a0009458:	e28dd008 	add	sp, sp, #8
a000945c:	e12fff1e 	bx	lr

a0009460 <vPortInitialiseBlocks>:
a0009460:	e59f300c 	ldr	r3, [pc, #12]	; a0009474 <vPortInitialiseBlocks+0x14>
a0009464:	e08f3003 	add	r3, pc, r3
a0009468:	e3a02000 	mov	r2, #0
a000946c:	e5832000 	str	r2, [r3]
a0009470:	e12fff1e 	bx	lr
a0009474:	008018dc 	ldrdeq	r1, [r0], ip

a0009478 <xPortGetFreeHeapSize>:
a0009478:	e59f3010 	ldr	r3, [pc, #16]	; a0009490 <xPortGetFreeHeapSize+0x18>
a000947c:	e08f3003 	add	r3, pc, r3
a0009480:	e5933000 	ldr	r3, [r3]
a0009484:	e2633502 	rsb	r3, r3, #8388608	; 0x800000
a0009488:	e1a00003 	mov	r0, r3
a000948c:	e12fff1e 	bx	lr
a0009490:	008018c4 	addeq	r1, r0, r4, asr #17
a0009494:	3d3d200a 	ldccc	0, cr2, [sp, #-40]!	; 0xffffffd8
a0009498:	4f50203d 	svcmi	0x0050203d
a000949c:	64205452 	strtvs	r5, [r0], #-1106	; 0x452
a00094a0:	67756265 	ldrbvs	r6, [r5, -r5, ror #4]!
a00094a4:	3d3d3d20 	ldccc	13, cr3, [sp, #-128]!	; 0xffffff80
a00094a8:	00000a20 	andeq	r0, r0, r0, lsr #20
a00094ac:	54524f50 	ldrbpl	r4, [r2], #-3920	; 0xf50
a00094b0:	73616220 	cmnvc	r1, #32, 4
a00094b4:	203a2065 	eorscs	r2, sl, r5, rrx
a00094b8:	000a7825 	andeq	r7, sl, r5, lsr #16
a00094bc:	54524f50 	ldrbpl	r4, [r2], #-3920	; 0xf50
a00094c0:	464e4320 	strbmi	r4, [lr], -r0, lsr #6
a00094c4:	25203a20 	strcs	r3, [r0, #-2592]!	; 0xa20
a00094c8:	00000a78 	andeq	r0, r0, r8, ror sl
a00094cc:	54524f50 	ldrbpl	r4, [r2], #-3920	; 0xf50
a00094d0:	20454f20 	subcs	r4, r5, r0, lsr #30
a00094d4:	65736162 	ldrbvs	r6, [r3, #-354]!	; 0x162
a00094d8:	25203a20 	strcs	r3, [r0, #-2592]!	; 0xa20
a00094dc:	00000a78 	andeq	r0, r0, r8, ror sl
a00094e0:	54524f50 	ldrbpl	r4, [r2], #-3920	; 0xf50
a00094e4:	20454f20 	subcs	r4, r5, r0, lsr #30
a00094e8:	7825203a 	stmdavc	r5!, {r1, r3, r4, r5, sp}
a00094ec:	0000000a 	andeq	r0, r0, sl
a00094f0:	54524f50 	ldrbpl	r4, [r2], #-3920	; 0xf50
a00094f4:	54554f20 	ldrbpl	r4, [r5], #-3872	; 0xf20
a00094f8:	73616220 	cmnvc	r1, #32, 4
a00094fc:	203a2065 	eorscs	r2, sl, r5, rrx
a0009500:	000a7825 	andeq	r7, sl, r5, lsr #16
a0009504:	54524f50 	ldrbpl	r4, [r2], #-3920	; 0xf50
a0009508:	54554f20 	ldrbpl	r4, [r5], #-3872	; 0xf20
a000950c:	25203a20 	strcs	r3, [r0, #-2592]!	; 0xa20
a0009510:	00000a78 	andeq	r0, r0, r8, ror sl
a0009514:	72617453 	rsbvc	r7, r1, #1392508928	; 0x53000000
a0009518:	72462074 	subvc	r2, r6, #116	; 0x74
a000951c:	54526565 	ldrbpl	r6, [r2], #-1381	; 0x565
a0009520:	0a21534f 	beq	a085e264 <stack_irq+0x4150c>
a0009524:	00000000 	andeq	r0, r0, r0
a0009528:	61657243 	cmnvs	r5, r3, asr #4
a000952c:	54206574 	strtpl	r6, [r0], #-1396	; 0x574
a0009530:	736b7361 	cmnvc	fp, #-2080374783	; 0x84000001
a0009534:	00000a21 	andeq	r0, r0, r1, lsr #20
a0009538:	63656843 	cmnvs	r5, #4390912	; 0x430000
a000953c:	0000326b 	andeq	r3, r0, fp, ror #4
a0009540:	3064656c 	rsbcc	r6, r4, ip, ror #10
a0009544:	00000000 	andeq	r0, r0, r0
a0009548:	3164656c 	cmncc	r4, ip, ror #10
a000954c:	00000000 	andeq	r0, r0, r0
a0009550:	3264656c 	rsbcc	r6, r4, #108, 10	; 0x1b000000
a0009554:	00000000 	andeq	r0, r0, r0

a0009558 <uarts>:
a0009558:	70006300 	andvc	r6, r0, r0, lsl #6
a000955c:	6000600c 	andvs	r6, r0, ip
a0009560:	60006018 	andvs	r6, r0, r8, lsl r0
a0009564:	00000001 	andeq	r0, r0, r1
a0009568:	00006325 	andeq	r6, r0, r5, lsr #6
a000956c:	00082008 	andeq	r2, r8, r8
a0009570:	33323130 	teqcc	r2, #48, 2
a0009574:	37363534 			; <UNDEFINED> instruction: 0x37363534
a0009578:	62613938 	rsbvs	r3, r1, #56, 18	; 0xe0000
a000957c:	66656463 	strbtvs	r6, [r5], -r3, ror #8
a0009580:	6a696867 	bvs	a1a63724 <stack_irq+0x12469cc>
a0009584:	6e6d6c6b 	cdpvs	12, 6, cr6, cr13, cr11, {3}
a0009588:	7271706f 	rsbsvc	r7, r1, #111	; 0x6f
a000958c:	76757473 			; <UNDEFINED> instruction: 0x76757473
a0009590:	7a797877 	bvc	a1e67774 <stack_irq+0x164aa1c>
a0009594:	00000000 	andeq	r0, r0, r0
a0009598:	33323130 	teqcc	r2, #48, 2
a000959c:	37363534 			; <UNDEFINED> instruction: 0x37363534
a00095a0:	42413938 	submi	r3, r1, #56, 18	; 0xe0000
a00095a4:	46454443 	strbmi	r4, [r5], -r3, asr #8
a00095a8:	4a494847 	bmi	a125b6cc <stack_irq+0xa3e974>
a00095ac:	4e4d4c4b 	cdpmi	12, 4, cr4, cr13, cr11, {2}
a00095b0:	5251504f 	subspl	r5, r1, #79	; 0x4f
a00095b4:	56555453 			; <UNDEFINED> instruction: 0x56555453
a00095b8:	5a595857 	bpl	a165f71c <stack_irq+0xe429c4>
a00095bc:	00000000 	andeq	r0, r0, r0
a00095c0:	4c554e3c 	mrrcmi	14, 3, r4, r5, cr12
a00095c4:	00003e4c 	andeq	r3, r0, ip, asr #28
a00095c8:	454c4449 	strbmi	r4, [ip, #-1097]	; 0x449
a00095cc:	00000000 	andeq	r0, r0, r0
a00095d0:	00000a0d 	andeq	r0, r0, sp, lsl #20
a00095d4:	09097325 	stmdbeq	r9, {r0, r2, r5, r8, r9, ip, sp, lr}
a00095d8:	25096325 	strcs	r6, [r9, #-805]	; 0x325
a00095dc:	75250975 	strvc	r0, [r5, #-2421]!	; 0x975
a00095e0:	0d752509 	cfldr64eq	mvdx2, [r5, #-36]!	; 0xffffffdc
a00095e4:	0000000a 	andeq	r0, r0, sl
a00095e8:	20726d54 	rsbscs	r6, r2, r4, asr sp
a00095ec:	00637653 	rsbeq	r7, r3, r3, asr r6

a00095f0 <ulKernelPriority>:
a00095f0:	000000c0 	andeq	r0, r0, r0, asr #1
a00095f4:	746e6f43 	strbtvc	r6, [lr], #-3907	; 0xf43
a00095f8:	20747865 	rsbscs	r7, r4, r5, ror #16
a00095fc:	74697753 	strbtvc	r7, [r9], #-1875	; 0x753
a0009600:	21216863 	teqcs	r1, r3, ror #16
a0009604:	21212121 	teqcs	r1, r1, lsr #2
a0009608:	21212121 	teqcs	r1, r1, lsr #2
a000960c:	21212121 	teqcs	r1, r1, lsr #2
a0009610:	21212121 	teqcs	r1, r1, lsr #2
a0009614:	00212121 	eoreq	r2, r1, r1, lsr #2
a0009618:	746e6f43 	strbtvc	r6, [lr], #-3907	; 0xf43
a000961c:	20747865 	rsbscs	r7, r4, r5, ror #16
a0009620:	6e452053 	mcrvs	0, 2, r2, cr5, cr3, {2}
a0009624:	00000a64 	andeq	r0, r0, r4, ror #20
a0009628:	656e6547 	strbvs	r6, [lr, #-1351]!	; 0x547
a000962c:	20636972 	rsbcs	r6, r3, r2, ror r9
a0009630:	656d6954 	strbvs	r6, [sp, #-2388]!	; 0x954
a0009634:	65532072 	ldrbvs	r2, [r3, #-114]	; 0x72
a0009638:	21707574 	cmncs	r0, r4, ror r5
a000963c:	0000000a 	andeq	r0, r0, sl
a0009640:	44434947 	strbmi	r4, [r3], #-2375	; 0x947
a0009644:	47202620 	strmi	r2, [r0, -r0, lsr #12]!
a0009648:	20434349 	subcs	r4, r3, r9, asr #6
a000964c:	74696e49 	strbtvc	r6, [r9], #-3657	; 0xe49
a0009650:	696c6169 	stmdbvs	ip!, {r0, r3, r5, r6, r8, sp, lr}^
a0009654:	6974617a 	ldmdbvs	r4!, {r1, r3, r4, r5, r6, r8, sp, lr}^
a0009658:	0a216e6f 	beq	a086501c <stack_irq+0x482c4>
a000965c:	00000000 	andeq	r0, r0, r0
a0009660:	62616e45 	rsbvs	r6, r1, #1104	; 0x450
a0009664:	4720656c 	strmi	r6, [r0, -ip, ror #10]!
a0009668:	72656e65 	rsbvc	r6, r5, #1616	; 0x650
a000966c:	54206369 	strtpl	r6, [r0], #-873	; 0x369
a0009670:	72656d69 	rsbvc	r6, r5, #6720	; 0x1a40
a0009674:	49505028 	ldmdbmi	r0, {r3, r5, ip, lr}^
a0009678:	49202c34 	stmdbmi	r0!, {r2, r4, r5, sl, fp, sp}
a000967c:	32205152 	eorcc	r5, r0, #-2147483628	; 0x80000014
a0009680:	000a2937 	andeq	r2, sl, r7, lsr r9
a0009684:	203d3d3d 	eorscs	r3, sp, sp, lsr sp
a0009688:	65657246 	strbvs	r7, [r5, #-582]!	; 0x246
a000968c:	534f5452 	movtpl	r5, #62546	; 0xf452
a0009690:	68635320 	stmdavs	r3!, {r5, r8, r9, ip, lr}^
a0009694:	6c756465 	cfldrdvs	mvd6, [r5], #-404	; 0xfffffe6c
a0009698:	74532065 	ldrbvc	r2, [r3], #-101	; 0x65
a000969c:	20747261 	rsbscs	r7, r4, r1, ror #4
a00096a0:	0a3d3d3d 	beq	a0f58b9c <stack_irq+0x73be44>
a00096a4:	00000000 	andeq	r0, r0, r0

Disassembly of section .got:

a00096a8 <.got>:
a00096a8:	a000997c 	andge	r9, r0, ip, ror r9
a00096ac:	a080ad54 	addge	sl, r0, r4, asr sp
a00096b0:	a0008bdc 	ldrdge	r8, [r0], -ip
a00096b4:	a0009968 	andge	r9, r0, r8, ror #18
a00096b8:	a00096e8 	andge	r9, r0, r8, ror #13
a00096bc:	a0009b44 	andge	r9, r0, r4, asr #22
a00096c0:	a0008a40 	andge	r8, r0, r0, asr #20
a00096c4:	a080ad50 	addge	sl, r0, r0, asr sp
a00096c8:	a000919c 	mulge	r0, ip, r1

Disassembly of section .got.plt:

a00096cc <_GLOBAL_OFFSET_TABLE_>:
	...

Disassembly of section .data.rel.local:

a00096d8 <puxFIQStackPointer>:
a00096d8:	a000a140 	andge	sl, r0, r0, asr #2

a00096dc <puxIRQStackPointer>:
a00096dc:	a000a540 	andge	sl, r0, r0, asr #10

a00096e0 <puxAbortStackPointer>:
a00096e0:	a000a940 	andge	sl, r0, r0, asr #18

a00096e4 <puxSVCStackPointer>:
a00096e4:	a000ad40 	andge	sl, r0, r0, asr #26

Disassembly of section .rw:

a00096e8 <_ctype>:
a00096e8:	08080808 	stmdaeq	r8, {r3, fp}
a00096ec:	08080808 	stmdaeq	r8, {r3, fp}
a00096f0:	28282808 	stmdacs	r8!, {r3, fp, sp}
a00096f4:	08082828 	stmdaeq	r8, {r3, r5, fp, sp}
a00096f8:	08080808 	stmdaeq	r8, {r3, fp}
a00096fc:	08080808 	stmdaeq	r8, {r3, fp}
a0009700:	08080808 	stmdaeq	r8, {r3, fp}
a0009704:	08080808 	stmdaeq	r8, {r3, fp}
a0009708:	101010a0 	andsne	r1, r0, r0, lsr #1
a000970c:	10101010 	andsne	r1, r0, r0, lsl r0
a0009710:	10101010 	andsne	r1, r0, r0, lsl r0
a0009714:	10101010 	andsne	r1, r0, r0, lsl r0
a0009718:	04040404 	streq	r0, [r4], #-1028	; 0x404
a000971c:	04040404 	streq	r0, [r4], #-1028	; 0x404
a0009720:	10100404 	andsne	r0, r0, r4, lsl #8
a0009724:	10101010 	andsne	r1, r0, r0, lsl r0
a0009728:	41414110 	cmpmi	r1, r0, lsl r1
a000972c:	01414141 	cmpeq	r1, r1, asr #2
a0009730:	01010101 	tsteq	r1, r1, lsl #2
a0009734:	01010101 	tsteq	r1, r1, lsl #2
a0009738:	01010101 	tsteq	r1, r1, lsl #2
a000973c:	01010101 	tsteq	r1, r1, lsl #2
a0009740:	10010101 	andne	r0, r1, r1, lsl #2
a0009744:	10101010 	andsne	r1, r0, r0, lsl r0
a0009748:	42424210 	submi	r4, r2, #16, 4
a000974c:	02424242 	subeq	r4, r2, #536870916	; 0x20000004
a0009750:	02020202 	andeq	r0, r2, #536870912	; 0x20000000
a0009754:	02020202 	andeq	r0, r2, #536870912	; 0x20000000
a0009758:	02020202 	andeq	r0, r2, #536870912	; 0x20000000
a000975c:	02020202 	andeq	r0, r2, #536870912	; 0x20000000
a0009760:	10020202 	andne	r0, r2, r2, lsl #4
a0009764:	08101010 	ldmdaeq	r0, {r4, ip}
	...
a0009788:	101010a0 	andsne	r1, r0, r0, lsr #1
a000978c:	10101010 	andsne	r1, r0, r0, lsl r0
a0009790:	10101010 	andsne	r1, r0, r0, lsl r0
a0009794:	10101010 	andsne	r1, r0, r0, lsl r0
a0009798:	10101010 	andsne	r1, r0, r0, lsl r0
a000979c:	10101010 	andsne	r1, r0, r0, lsl r0
a00097a0:	10101010 	andsne	r1, r0, r0, lsl r0
a00097a4:	10101010 	andsne	r1, r0, r0, lsl r0
a00097a8:	01010101 	tsteq	r1, r1, lsl #2
a00097ac:	01010101 	tsteq	r1, r1, lsl #2
a00097b0:	01010101 	tsteq	r1, r1, lsl #2
a00097b4:	01010101 	tsteq	r1, r1, lsl #2
a00097b8:	01010101 	tsteq	r1, r1, lsl #2
a00097bc:	10010101 	andne	r0, r1, r1, lsl #2
a00097c0:	01010101 	tsteq	r1, r1, lsl #2
a00097c4:	02010101 	andeq	r0, r1, #1073741824	; 0x40000000
a00097c8:	02020202 	andeq	r0, r2, #536870912	; 0x20000000
a00097cc:	02020202 	andeq	r0, r2, #536870912	; 0x20000000
a00097d0:	02020202 	andeq	r0, r2, #536870912	; 0x20000000
a00097d4:	02020202 	andeq	r0, r2, #536870912	; 0x20000000
a00097d8:	02020202 	andeq	r0, r2, #536870912	; 0x20000000
a00097dc:	10020202 	andne	r0, r2, r2, lsl #4
a00097e0:	02020202 	andeq	r0, r2, #536870912	; 0x20000000
a00097e4:	02020202 	andeq	r0, r2, #536870912	; 0x20000000

a00097e8 <xNextTaskUnblockTime>:
a00097e8:	ffffffff 			; <UNDEFINED> instruction: 0xffffffff

a00097ec <uxPreviousTask>:
a00097ec:	000000ff 	strdeq	r0, [r0], -pc	; <UNPREDICTABLE>

a00097f0 <ulMaxVectorId>:
a00097f0:	00000040 	andeq	r0, r0, r0, asr #32

a00097f4 <HisBuff>:
	...

a00098f4 <HisCount>:
a00098f4:	00000000 	andeq	r0, r0, r0

a00098f8 <HisIndex>:
a00098f8:	00000000 	andeq	r0, r0, r0

a00098fc <pxReadyCoRoutineLists>:
	...

a0009924 <xDelayedCoRoutineList1>:
	...

a0009938 <xDelayedCoRoutineList2>:
	...

a000994c <pxDelayedCoRoutineList>:
a000994c:	00000000 	andeq	r0, r0, r0

a0009950 <pxOverflowDelayedCoRoutineList>:
a0009950:	00000000 	andeq	r0, r0, r0

a0009954 <xPendingReadyCoRoutineList>:
	...

a0009968 <pxCurrentCoRoutine>:
a0009968:	00000000 	andeq	r0, r0, r0

a000996c <uxTopCoRoutineReadyPriority>:
a000996c:	00000000 	andeq	r0, r0, r0

a0009970 <xCoRoutineTickCount>:
a0009970:	00000000 	andeq	r0, r0, r0

a0009974 <xLastTickCount>:
a0009974:	00000000 	andeq	r0, r0, r0

a0009978 <xPassedTicks>:
a0009978:	00000000 	andeq	r0, r0, r0

a000997c <pxCurrentTCB>:
a000997c:	00000000 	andeq	r0, r0, r0

a0009980 <pxReadyTasksLists>:
	...

a0009a48 <xDelayedTaskList1>:
	...

a0009a5c <xDelayedTaskList2>:
	...

a0009a70 <pxDelayedTaskList>:
a0009a70:	00000000 	andeq	r0, r0, r0

a0009a74 <pxOverflowDelayedTaskList>:
a0009a74:	00000000 	andeq	r0, r0, r0

a0009a78 <xPendingReadyList>:
	...

a0009a8c <xSuspendedTaskList>:
	...

a0009aa0 <uxCurrentNumberOfTasks>:
a0009aa0:	00000000 	andeq	r0, r0, r0

a0009aa4 <xTickCount>:
a0009aa4:	00000000 	andeq	r0, r0, r0

a0009aa8 <uxTopUsedPriority>:
a0009aa8:	00000000 	andeq	r0, r0, r0

a0009aac <uxTopReadyPriority>:
a0009aac:	00000000 	andeq	r0, r0, r0

a0009ab0 <xSchedulerRunning>:
a0009ab0:	00000000 	andeq	r0, r0, r0

a0009ab4 <uxSchedulerSuspended>:
a0009ab4:	00000000 	andeq	r0, r0, r0

a0009ab8 <uxMissedTicks>:
a0009ab8:	00000000 	andeq	r0, r0, r0

a0009abc <xMissedYield>:
a0009abc:	00000000 	andeq	r0, r0, r0

a0009ac0 <xNumOfOverflows>:
a0009ac0:	00000000 	andeq	r0, r0, r0

a0009ac4 <uxTaskNumber>:
a0009ac4:	00000000 	andeq	r0, r0, r0

a0009ac8 <pcTraceBuffer>:
a0009ac8:	00000000 	andeq	r0, r0, r0

a0009acc <pcTraceBufferStart>:
a0009acc:	00000000 	andeq	r0, r0, r0

a0009ad0 <pcTraceBufferEnd>:
a0009ad0:	00000000 	andeq	r0, r0, r0

a0009ad4 <xTracing>:
a0009ad4:	00000000 	andeq	r0, r0, r0

a0009ad8 <pcStatusString>:
	...

a0009b0c <xActiveTimerList1>:
	...

a0009b20 <xActiveTimerList2>:
	...

a0009b34 <pxCurrentTimerList>:
a0009b34:	00000000 	andeq	r0, r0, r0

a0009b38 <pxOverflowTimerList>:
a0009b38:	00000000 	andeq	r0, r0, r0

a0009b3c <xTimerQueue>:
a0009b3c:	00000000 	andeq	r0, r0, r0

a0009b40 <xLastTime.3958>:
a0009b40:	00000000 	andeq	r0, r0, r0

a0009b44 <pxInterruptHandlers>:
	...

a0009d44 <puxFIQStack>:
	...

a000a144 <puxIRQStack>:
	...

a000a544 <puxAbortStack>:
	...

a000a944 <puxSVCStack>:
	...

a000ad48 <xHeap>:
	...

a080ad48 <xNextFreeByte>:
	...

a080ad50 <uart>:
a080ad50:	00000000 	andeq	r0, r0, r0

a080ad54 <___strtok>:
a080ad54:	00000000 	andeq	r0, r0, r0

Disassembly of section .ARM.attributes:

00000000 <.ARM.attributes>:
   0:	00003741 	andeq	r3, r0, r1, asr #14
   4:	61656100 	cmnvs	r5, r0, lsl #2
   8:	01006962 	tsteq	r0, r2, ror #18
   c:	0000002d 	andeq	r0, r0, sp, lsr #32
  10:	726f4305 	rsbvc	r4, pc, #335544320	; 0x14000000
  14:	2d786574 	cfldr64cs	mvdx6, [r8, #-464]!	; 0xfffffe30
  18:	00353141 	eorseq	r3, r5, r1, asr #2
  1c:	41070a06 	tstmi	r7, r6, lsl #20
  20:	02090108 	andeq	r0, r9, #8, 2
  24:	01140412 	tsteq	r4, r2, lsl r4
  28:	03170115 	tsteq	r7, #1073741829	; 0x40000005
  2c:	011a0118 	tsteq	sl, r8, lsl r1
  30:	012a0122 	teqeq	sl, r2, lsr #2
  34:	0344022c 	movteq	r0, #16940	; 0x422c

Disassembly of section .comment:

00000000 <.comment>:
   0:	3a434347 	bcc	10d0d24 <load_address-0x9ef2f2dc>
   4:	2e342820 	cdpcs	8, 3, cr2, cr4, cr0, {1}
   8:	2d322e38 	ldccs	14, cr2, [r2, #-224]!	; 0xffffff20
   c:	62753431 	rsbsvs	r3, r5, #822083584	; 0x31000000
  10:	75746e75 	ldrbvc	r6, [r4, #-3701]!	; 0xe75
  14:	29362b31 	ldmdbcs	r6!, {r0, r4, r5, r8, r9, fp, sp}
  18:	382e3420 	stmdacc	lr!, {r5, sl, ip, sp}
  1c:	Address 0x000000000000001c is out of bounds.


Disassembly of section .debug_info:

00000000 <.debug_info>:
       0:	000004df 	ldrdeq	r0, [r0], -pc	; <UNPREDICTABLE>
       4:	00000004 	andeq	r0, r0, r4
       8:	01040000 	mrseq	r0, (UNDEF: 4)
       c:	0000015b 	andeq	r0, r0, fp, asr r1
      10:	00002601 	andeq	r2, r0, r1, lsl #12
      14:	0000a300 	andeq	sl, r0, r0, lsl #6
      18:	00008000 	andeq	r8, r0, r0
      1c:	000654a0 	andeq	r5, r6, r0, lsr #9
      20:	00000000 	andeq	r0, r0, r0
      24:	08010200 	stmdaeq	r1, {r9}
      28:	0000013f 	andeq	r0, r0, pc, lsr r1
      2c:	4e070402 	cdpmi	4, 0, cr0, cr7, cr2, {0}
      30:	02000001 	andeq	r0, r0, #1
      34:	01be0702 			; <UNDEFINED> instruction: 0x01be0702
      38:	04020000 	streq	r0, [r2], #-0
      3c:	00009a05 	andeq	r9, r0, r5, lsl #20
      40:	08010200 	stmdaeq	r1, {r9}
      44:	00000136 	andeq	r0, r0, r6, lsr r1
      48:	44070802 	strmi	r0, [r7], #-2050	; 0x802
      4c:	03000001 	movweq	r0, #1
      50:	6e690504 	cdpvs	5, 6, cr0, cr9, cr4, {0}
      54:	08020074 	stmdaeq	r2, {r2, r4, r5, r6}
      58:	00009505 	andeq	r9, r0, r5, lsl #10
      5c:	00410400 	subeq	r0, r1, r0, lsl #8
      60:	02010000 	andeq	r0, r1, #0
      64:	00007e13 	andeq	r7, r0, r3, lsl lr
      68:	51500500 	cmppl	r0, r0, lsl #10
      6c:	50050000 	andpl	r0, r5, r0
      70:	05010052 	streq	r0, [r1, #-82]	; 0x52
      74:	02005350 	andeq	r5, r0, #80, 6	; 0x40000001
      78:	00545005 	subseq	r5, r4, r5
      7c:	48040003 	stmdami	r4, {r0, r1}
      80:	01000000 	mrseq	r0, (UNDEF: 0)
      84:	009f1402 	addseq	r1, pc, r2, lsl #8
      88:	50050000 	andpl	r0, r5, r0
      8c:	05000055 	streq	r0, [r0, #-85]	; 0x55
      90:	01005650 	tsteq	r0, r0, asr r6
      94:	00575005 	subseq	r5, r7, r5
      98:	58500502 	ldmdapl	r0, {r1, r8, sl}^
      9c:	04000300 	streq	r0, [r0], #-768	; 0x300
      a0:	0000004f 	andeq	r0, r0, pc, asr #32
      a4:	c4160201 	ldrgt	r0, [r6], #-513	; 0x201
      a8:	05000000 	streq	r0, [r0, #-0]
      ac:	00434350 	subeq	r4, r3, r0, asr r3
      b0:	44500500 	ldrbmi	r0, [r0], #-1280	; 0x500
      b4:	05010044 	streq	r0, [r1, #-68]	; 0x44
      b8:	00454550 	subeq	r4, r5, r0, asr r5
      bc:	46500502 	ldrbmi	r0, [r0], -r2, lsl #10
      c0:	00030046 	andeq	r0, r3, r6, asr #32
      c4:	00022106 	andeq	r2, r2, r6, lsl #2
      c8:	02010000 	andeq	r0, r1, #0
      cc:	00019018 	andeq	r9, r1, r8, lsl r0
      d0:	6e630700 	cdpvs	7, 6, cr0, cr3, cr0, {0}
      d4:	1a020066 	bne	80274 <load_address-0x9ff7fd8c>
      d8:	00000190 	muleq	r0, r0, r1
      dc:	656f0700 	strbvs	r0, [pc, #-1792]!	; fffff9e4 <stack_irq+0x5f7e2c8c>
      e0:	901b0200 	andsls	r0, fp, r0, lsl #4
      e4:	10000001 	andne	r0, r0, r1
      e8:	74756f07 	ldrbtvc	r6, [r5], #-3847	; 0xf07
      ec:	901c0200 	andsls	r0, ip, r0, lsl #4
      f0:	20000001 	andcs	r0, r0, r1
      f4:	006e6907 	rsbeq	r6, lr, r7, lsl #18
      f8:	01901d02 	orrseq	r1, r0, r2, lsl #26
      fc:	08300000 	ldmdaeq	r0!, {}	; <UNPREDICTABLE>
     100:	000000f4 	strdeq	r0, [r0], -r4
     104:	01901e02 	orrseq	r1, r0, r2, lsl #28
     108:	08400000 	stmdaeq	r0, {}^	; <UNPREDICTABLE>
     10c:	0000007c 	andeq	r0, r0, ip, ror r0
     110:	01901f02 	orrseq	r1, r0, r2, lsl #30
     114:	08500000 	ldmdaeq	r0, {}^	; <UNPREDICTABLE>
     118:	0000020e 	andeq	r0, r0, lr, lsl #4
     11c:	01902002 	orrseq	r2, r0, r2
     120:	08600000 	stmdaeq	r0!, {}^	; <UNPREDICTABLE>
     124:	0000023c 	andeq	r0, r0, ip, lsr r2
     128:	01902102 	orrseq	r2, r0, r2, lsl #2
     12c:	08700000 	ldmdaeq	r0!, {}^	; <UNPREDICTABLE>
     130:	0000022b 	andeq	r0, r0, fp, lsr #4
     134:	01902302 	orrseq	r2, r0, r2, lsl #6
     138:	08800000 	stmeq	r0, {}	; <UNPREDICTABLE>
     13c:	000001d7 	ldrdeq	r0, [r0], -r7
     140:	01902402 	orrseq	r2, r0, r2, lsl #8
     144:	08900000 	ldmeq	r0, {}	; <UNPREDICTABLE>
     148:	000000e8 	andeq	r0, r0, r8, ror #1
     14c:	01902502 	orrseq	r2, r0, r2, lsl #10
     150:	08a00000 	stmiaeq	r0!, {}	; <UNPREDICTABLE>
     154:	00000275 	andeq	r0, r0, r5, ror r2
     158:	01902602 	orrseq	r2, r0, r2, lsl #12
     15c:	08b00000 	ldmeq	r0!, {}	; <UNPREDICTABLE>
     160:	000000f0 	strdeq	r0, [r0], -r0	; <UNPREDICTABLE>
     164:	01902702 	orrseq	r2, r0, r2, lsl #14
     168:	08c00000 	stmiaeq	r0, {}^	; <UNPREDICTABLE>
     16c:	00000078 	andeq	r0, r0, r8, ror r0
     170:	01902802 	orrseq	r2, r0, r2, lsl #16
     174:	08d00000 	ldmeq	r0, {}^	; <UNPREDICTABLE>
     178:	0000020a 	andeq	r0, r0, sl, lsl #4
     17c:	01902902 	orrseq	r2, r0, r2, lsl #18
     180:	08e00000 	stmiaeq	r0!, {}^	; <UNPREDICTABLE>
     184:	0000027a 	andeq	r0, r0, sl, ror r2
     188:	01902a02 	orrseq	r2, r0, r2, lsl #20
     18c:	00f00000 	rscseq	r0, r0, r0
     190:	00002c09 	andeq	r2, r0, r9, lsl #24
     194:	0001a000 	andeq	sl, r1, r0
     198:	01a00a00 	lsleq	r0, r0, #20
     19c:	00030000 	andeq	r0, r3, r0
     1a0:	54070402 	strpl	r0, [r7], #-1026	; 0x402
     1a4:	0b000002 	bleq	1b4 <load_address-0x9ffffe4c>
     1a8:	0001ad04 	andeq	sl, r1, r4, lsl #26
     1ac:	01b80c00 			; <UNDEFINED> instruction: 0x01b80c00
     1b0:	b80d0000 	stmdalt	sp, {}	; <UNPREDICTABLE>
     1b4:	00000001 	andeq	r0, r0, r1
     1b8:	0402040e 	streq	r0, [r2], #-1038	; 0x40e
     1bc:	00014907 	andeq	r4, r1, r7, lsl #18
     1c0:	06010200 	streq	r0, [r1], -r0, lsl #4
     1c4:	00000138 	andeq	r0, r0, r8, lsr r1
     1c8:	0001b80f 	andeq	fp, r1, pc, lsl #16
     1cc:	806e0100 	rsbhi	r0, lr, r0, lsl #2
     1d0:	3ca00000 	stccc	0, cr0, [r0]
     1d4:	01000001 	tsteq	r0, r1
     1d8:	0001fa9c 	muleq	r1, ip, sl
     1dc:	02261000 	eoreq	r1, r6, #0
     1e0:	6e010000 	cdpvs	0, 0, cr0, cr1, cr0, {0}
     1e4:	000001fa 	strdeq	r0, [r0], -sl
     1e8:	10749102 	rsbsne	r9, r4, r2, lsl #2
     1ec:	000001e8 	andeq	r0, r0, r8, ror #3
     1f0:	004f6e01 	subeq	r6, pc, r1, lsl #28
     1f4:	91020000 	mrsls	r0, (UNDEF: 2)
     1f8:	040b0070 	streq	r0, [fp], #-112	; 0x70
     1fc:	000000c4 	andeq	r0, r0, r4, asr #1
     200:	00003211 	andeq	r3, r0, r1, lsl r2
     204:	4f830100 	svcmi	0x00830100
     208:	bc000000 	stclt	0, cr0, [r0], {-0}
     20c:	50a00001 	adcpl	r0, r0, r1
     210:	01000002 	tsteq	r0, r2
     214:	0002899c 	muleq	r2, ip, r9
     218:	00691200 	rsbeq	r1, r9, r0, lsl #4
     21c:	004f8501 	subeq	r8, pc, r1, lsl #10
     220:	91020000 	mrsls	r0, (UNDEF: 2)
     224:	74731274 	ldrbtvc	r1, [r3], #-628	; 0x274
     228:	86010072 			; <UNDEFINED> instruction: 0x86010072
     22c:	00000289 	andeq	r0, r0, r9, lsl #5
     230:	7f9c9103 	svcvc	0x009c9103
     234:	00024e13 	andeq	r4, r2, r3, lsl lr
     238:	fa8e0100 	blx	fe380640 <stack_irq+0x5db638e8>
     23c:	02000001 	andeq	r0, r0, #1
     240:	d1137091 			; <UNDEFINED> instruction: 0xd1137091
     244:	01000001 	tsteq	r0, r1
     248:	0001fa8f 	andeq	pc, r1, pc, lsl #21
     24c:	6c910200 	lfmvs	f0, 4, [r1], {0}
     250:	00025d13 	andeq	r5, r2, r3, lsl sp
     254:	fa900100 	blx	fe40065c <stack_irq+0x5dbe3904>
     258:	02000001 	andeq	r0, r0, #1
     25c:	63136891 	tstvs	r3, #9502720	; 0x910000
     260:	01000002 	tsteq	r0, r2
     264:	0001fa91 	muleq	r1, r1, sl
     268:	64910200 	ldrvs	r0, [r1], #512	; 0x200
     26c:	00026913 	andeq	r6, r2, r3, lsl r9
     270:	fa920100 	blx	fe480678 <stack_irq+0x5dc63920>
     274:	02000001 	andeq	r0, r0, #1
     278:	6f136091 	svcvs	0x00136091
     27c:	01000002 	tsteq	r0, r2
     280:	0001fa93 	muleq	r1, r3, sl
     284:	5c910200 	lfmpl	f0, 4, [r1], {0}
     288:	00250900 	eoreq	r0, r5, r0, lsl #18
     28c:	02990000 	addseq	r0, r9, #0
     290:	a00a0000 	andge	r0, sl, r0
     294:	3f000001 	svccc	0x00000001
     298:	00631400 	rsbeq	r1, r3, r0, lsl #8
     29c:	b7010000 	strlt	r0, [r1, -r0]
     2a0:	a000040c 	andge	r0, r0, ip, lsl #8
     2a4:	00000004 	andeq	r0, r0, r4
     2a8:	11149c01 	tstne	r4, r1, lsl #24
     2ac:	01000000 	mrseq	r0, (UNDEF: 0)
     2b0:	000410be 	strheq	r1, [r4], -lr
     2b4:	000004a0 	andeq	r0, r0, r0, lsr #9
     2b8:	159c0100 	ldrne	r0, [ip, #256]	; 0x100
     2bc:	00000037 	andeq	r0, r0, r7, lsr r0
     2c0:	0414c301 	ldreq	ip, [r4], #-769	; 0x301
     2c4:	0034a000 	eorseq	sl, r4, r0
     2c8:	9c010000 	stcls	0, cr0, [r1], {-0}
     2cc:	000002eb 	andeq	r0, r0, fp, ror #5
     2d0:	00005610 	andeq	r5, r0, r0, lsl r6
     2d4:	b8c30100 	stmialt	r3, {r8}^
     2d8:	02000001 	andeq	r0, r0, #1
     2dc:	69126c91 	ldmdbvs	r2, {r0, r4, r7, sl, fp, sp, lr}
     2e0:	4fc50100 	svcmi	0x00c50100
     2e4:	02000000 	andeq	r0, r0, #0
     2e8:	15007491 	strne	r7, [r0, #-1169]	; 0x491
     2ec:	000001de 	ldrdeq	r0, [r0], -lr
     2f0:	0448cd01 	strbeq	ip, [r8], #-3329	; 0xd01
     2f4:	0070a000 	rsbseq	sl, r0, r0
     2f8:	9c010000 	stcls	0, cr0, [r1], {-0}
     2fc:	00000329 	andeq	r0, r0, r9, lsr #6
     300:	00005610 	andeq	r5, r0, r0, lsl r6
     304:	b8cd0100 	stmialt	sp, {r8}^
     308:	02000001 	andeq	r0, r0, #1
     30c:	69126c91 	ldmdbvs	r2, {r0, r4, r7, sl, fp, sp, lr}
     310:	4fcf0100 	svcmi	0x00cf0100
     314:	02000000 	andeq	r0, r0, #0
     318:	63137491 	tstvs	r3, #-1862270976	; 0x91000000
     31c:	01000002 	tsteq	r0, r2
     320:	0001fad0 	ldrdeq	pc, [r1], -r0
     324:	70910200 	addsvc	r0, r1, r0, lsl #4
     328:	00071500 	andeq	r1, r7, r0, lsl #10
     32c:	db010000 	blle	40334 <load_address-0x9ffbfccc>
     330:	a00004b8 			; <UNDEFINED> instruction: 0xa00004b8
     334:	00000070 	andeq	r0, r0, r0, ror r0
     338:	03679c01 	cmneq	r7, #256	; 0x100
     33c:	56100000 	ldrpl	r0, [r0], -r0
     340:	01000000 	mrseq	r0, (UNDEF: 0)
     344:	0001b8db 	ldrdeq	fp, [r1], -fp	; <UNPREDICTABLE>
     348:	6c910200 	lfmvs	f0, 4, [r1], {0}
     34c:	01006912 	tsteq	r0, r2, lsl r9
     350:	00004fdd 	ldrdeq	r4, [r0], -sp
     354:	74910200 	ldrvc	r0, [r1], #512	; 0x200
     358:	00026f13 	andeq	r6, r2, r3, lsl pc
     35c:	fade0100 	blx	ff780764 <stack_irq+0x5ef63a0c>
     360:	02000001 	andeq	r0, r0, #1
     364:	15007091 	strne	r7, [r0, #-145]	; 0x91
     368:	0000027f 	andeq	r0, r0, pc, ror r2
     36c:	0528ea01 	streq	lr, [r8, #-2561]!	; 0xa01
     370:	005ca000 	subseq	sl, ip, r0
     374:	9c010000 	stcls	0, cr0, [r1], {-0}
     378:	000003a5 	andeq	r0, r0, r5, lsr #7
     37c:	00005610 	andeq	r5, r0, r0, lsl r6
     380:	b8ea0100 	stmialt	sl!, {r8}^
     384:	02000001 	andeq	r0, r0, #1
     388:	69126c91 	ldmdbvs	r2, {r0, r4, r7, sl, fp, sp, lr}
     38c:	4fec0100 	svcmi	0x00ec0100
     390:	02000000 	andeq	r0, r0, #0
     394:	69137491 	ldmdbvs	r3, {r0, r4, r7, sl, ip, sp, lr}
     398:	01000002 	tsteq	r0, r2
     39c:	0001faed 	andeq	pc, r1, sp, ror #21
     3a0:	70910200 	addsvc	r0, r1, r0, lsl #4
     3a4:	02441500 	subeq	r1, r4, #0, 10
     3a8:	f8010000 			; <UNDEFINED> instruction: 0xf8010000
     3ac:	a0000584 	andge	r0, r0, r4, lsl #11
     3b0:	0000005c 	andeq	r0, r0, ip, asr r0
     3b4:	03e39c01 	mvneq	r9, #256	; 0x100
     3b8:	56100000 	ldrpl	r0, [r0], -r0
     3bc:	01000000 	mrseq	r0, (UNDEF: 0)
     3c0:	0001b8f8 	strdeq	fp, [r1], -r8
     3c4:	6c910200 	lfmvs	f0, 4, [r1], {0}
     3c8:	01006912 	tsteq	r0, r2, lsl r9
     3cc:	00004ffa 	strdeq	r4, [r0], -sl
     3d0:	74910200 	ldrvc	r0, [r1], #512	; 0x200
     3d4:	00026913 	andeq	r6, r2, r3, lsl r9
     3d8:	fafb0100 	blx	ffec07e0 <stack_irq+0x5f6a3a88>
     3dc:	02000001 	andeq	r0, r0, #1
     3e0:	16007091 			; <UNDEFINED> instruction: 0x16007091
     3e4:	00000249 	andeq	r0, r0, r9, asr #4
     3e8:	e0010601 	and	r0, r1, r1, lsl #12
     3ec:	5ca00005 	stcpl	0, cr0, [r0], #20
     3f0:	01000000 	mrseq	r0, (UNDEF: 0)
     3f4:	0004259c 	muleq	r4, ip, r5
     3f8:	00561700 	subseq	r1, r6, r0, lsl #14
     3fc:	06010000 	streq	r0, [r1], -r0
     400:	0001b801 	andeq	fp, r1, r1, lsl #16
     404:	6c910200 	lfmvs	f0, 4, [r1], {0}
     408:	01006918 	tsteq	r0, r8, lsl r9
     40c:	004f0108 	subeq	r0, pc, r8, lsl #2
     410:	91020000 	mrsls	r0, (UNDEF: 2)
     414:	02691974 	rsbeq	r1, r9, #116, 18	; 0x1d0000
     418:	09010000 	stmdbeq	r1, {}	; <UNPREDICTABLE>
     41c:	0001fa01 	andeq	pc, r1, r1, lsl #20
     420:	70910200 	addsvc	r0, r1, r0, lsl #4
     424:	02161a00 	andseq	r1, r6, #0, 20
     428:	16010000 	strne	r0, [r1], -r0
     42c:	00063c01 	andeq	r3, r6, r1, lsl #24
     430:	000010a0 	andeq	r1, r0, r0, lsr #1
     434:	4b9c0100 	blmi	fe70083c <stack_irq+0x5dee3ae4>
     438:	17000004 	strne	r0, [r0, -r4]
     43c:	00000056 	andeq	r0, r0, r6, asr r0
     440:	b8011601 	stmdalt	r1, {r0, r9, sl, ip}
     444:	02000001 	andeq	r0, r0, #1
     448:	16007c91 			; <UNDEFINED> instruction: 0x16007c91
     44c:	00000084 	andeq	r0, r0, r4, lsl #1
     450:	4c011b01 	stcmi	11, cr1, [r1], {1}
     454:	80a00006 	adchi	r0, r0, r6
     458:	01000000 	mrseq	r0, (UNDEF: 0)
     45c:	0004ba9c 	muleq	r4, ip, sl
     460:	02331900 	eorseq	r1, r3, #0, 18
     464:	1d010000 	stcne	0, cr0, [r1, #-0]
     468:	0001ba01 	andeq	fp, r1, r1, lsl #20
     46c:	74910200 	ldrvc	r0, [r1], #512	; 0x200
     470:	72747318 	rsbsvc	r7, r4, #24, 6	; 0x60000000
     474:	011e0100 	tsteq	lr, r0, lsl #2
     478:	00000289 	andeq	r0, r0, r9, lsl #5
     47c:	7fb49103 	svcvc	0x00b49103
     480:	0000fc1b 	andeq	pc, r0, fp, lsl ip	; <UNPREDICTABLE>
     484:	01240100 	teqeq	r4, r0, lsl #2
     488:	00000492 	muleq	r0, r2, r4
     48c:	0001b80d 	andeq	fp, r1, sp, lsl #16
     490:	ed1c0000 	ldc	0, cr0, [ip, #-0]
     494:	01000001 	tsteq	r0, r1
     498:	a70d0125 	strge	r0, [sp, -r5, lsr #2]
     49c:	0d000001 	stceq	0, cr0, [r0, #-4]
     4a0:	000001b8 			; <UNDEFINED> instruction: 0x000001b8
     4a4:	0001ba0d 	andeq	fp, r1, sp, lsl #20
     4a8:	00410d00 	subeq	r0, r1, r0, lsl #26
     4ac:	410d0000 	mrsmi	r0, (UNDEF: 13)
     4b0:	0d000000 	stceq	0, cr0, [r0, #-0]
     4b4:	00000041 	andeq	r0, r0, r1, asr #32
     4b8:	191d0000 	ldmdbne	sp, {}	; <UNPREDICTABLE>
     4bc:	01000001 	tsteq	r0, r1
     4c0:	06cc012e 	strbeq	r0, [ip], lr, lsr #2
     4c4:	0008a000 	andeq	sl, r8, r0
     4c8:	9c010000 	stcls	0, cr0, [r1], {-0}
     4cc:	00004109 	andeq	r4, r0, r9, lsl #2
     4d0:	0004d700 	andeq	sp, r4, r0, lsl #14
     4d4:	1f001e00 	svcne	0x00001e00
     4d8:	00000000 	andeq	r0, r0, r0
     4dc:	04cc3f03 	strbeq	r3, [ip], #3843	; 0xf03
     4e0:	0e000000 	cdpeq	0, 0, cr0, cr0, cr0, {0}
     4e4:	0400000d 	streq	r0, [r0], #-13
     4e8:	0001e300 	andeq	lr, r1, r0, lsl #6
     4ec:	5b010400 	blpl	414f4 <load_address-0x9ffbeb0c>
     4f0:	01000001 	tsteq	r0, r1
     4f4:	000005b8 			; <UNDEFINED> instruction: 0x000005b8
     4f8:	000000a3 	andeq	r0, r0, r3, lsr #1
     4fc:	a00006d4 	ldrdge	r0, [r0], -r4
     500:	000010cc 	andeq	r1, r0, ip, asr #1
     504:	0000016c 	andeq	r0, r0, ip, ror #2
     508:	36080102 	strcc	r0, [r8], -r2, lsl #2
     50c:	02000001 	andeq	r0, r0, #1
     510:	01be0702 			; <UNDEFINED> instruction: 0x01be0702
     514:	75030000 	strvc	r0, [r3, #-0]
     518:	02003233 	andeq	r3, r0, #805306371	; 0x30000003
     51c:	00003e06 	andeq	r3, r0, r6, lsl #28
     520:	07040200 	streq	r0, [r4, -r0, lsl #4]
     524:	0000014e 	andeq	r0, r0, lr, asr #2
     528:	44070802 	strmi	r0, [r7], #-2050	; 0x802
     52c:	04000001 	streq	r0, [r0], #-1
     530:	6e690504 	cdpvs	5, 6, cr0, cr9, cr4, {0}
     534:	08020074 	stmdaeq	r2, {r2, r4, r5, r6}
     538:	00009505 	andeq	r9, r0, r5, lsl #10
     53c:	03a10500 			; <UNDEFINED> instruction: 0x03a10500
     540:	03010000 	movweq	r0, #4096	; 0x1000
     544:	00007347 	andeq	r7, r0, r7, asr #6
     548:	045a0600 	ldrbeq	r0, [sl], #-1536	; 0x600
     54c:	06000000 	streq	r0, [r0], -r0
     550:	000002e7 	andeq	r0, r0, r7, ror #5
     554:	a8070001 	stmdage	r7, {r0}
     558:	01000002 	tsteq	r0, r2
     55c:	0006d403 	andeq	sp, r6, r3, lsl #8
     560:	000020a0 	andeq	r2, r0, r0, lsr #1
     564:	a59c0100 	ldrge	r0, [ip, #256]	; 0x100
     568:	08000000 	stmdaeq	r0, {}	; <UNPREDICTABLE>
     56c:	000004c3 	andeq	r0, r0, r3, asr #9
     570:	00330301 	eorseq	r0, r3, r1, lsl #6
     574:	91020000 	mrsls	r0, (UNDEF: 2)
     578:	0a5b087c 	beq	16c2770 <load_address-0x9e93d890>
     57c:	03010000 	movweq	r0, #4096	; 0x1000
     580:	0000004c 	andeq	r0, r0, ip, asr #32
     584:	00789102 	rsbseq	r9, r8, r2, lsl #2
     588:	00045509 	andeq	r5, r4, r9, lsl #10
     58c:	33060100 	movwcc	r0, #24832	; 0x6100
     590:	f4000000 	vst4.8	{d0-d3}, [r0], r0
     594:	1ca00006 	stcne	0, cr0, [r0], #24
     598:	01000000 	mrseq	r0, (UNDEF: 0)
     59c:	0000cd9c 	muleq	r0, ip, sp
     5a0:	04c30800 	strbeq	r0, [r3], #2048	; 0x800
     5a4:	06010000 	streq	r0, [r1], -r0
     5a8:	00000033 	andeq	r0, r0, r3, lsr r0
     5ac:	007c9102 	rsbseq	r9, ip, r2, lsl #2
     5b0:	0006ec0a 	andeq	lr, r6, sl, lsl #24
     5b4:	100e0100 	andne	r0, lr, r0, lsl #2
     5b8:	18a00007 	stmiane	r0!, {r0, r1, r2}
     5bc:	01000000 	mrseq	r0, (UNDEF: 0)
     5c0:	04890a9c 	streq	r0, [r9], #2716	; 0xa9c
     5c4:	11010000 	mrsne	r0, (UNDEF: 1)
     5c8:	a0000728 	andge	r0, r0, r8, lsr #14
     5cc:	00000018 	andeq	r0, r0, r8, lsl r0
     5d0:	840b9c01 	strhi	r9, [fp], #-3073	; 0xc01
     5d4:	01000002 	tsteq	r0, r2
     5d8:	00074014 	andeq	r4, r7, r4, lsl r0
     5dc:	000028a0 	andeq	r2, r0, r0, lsr #17
     5e0:	139c0100 	orrsne	r0, ip, #0, 2
     5e4:	0c000001 	stceq	0, cr0, [r0], {1}
     5e8:	006c6176 	rsbeq	r6, ip, r6, ror r1
     5ec:	00331401 	eorseq	r1, r3, r1, lsl #8
     5f0:	91020000 	mrsls	r0, (UNDEF: 2)
     5f4:	5b0d0074 	blpl	3407cc <load_address-0x9fcbf834>
     5f8:	01000007 	tsteq	r0, r7
     5fc:	00003317 	andeq	r3, r0, r7, lsl r3
     600:	00076800 	andeq	r6, r7, r0, lsl #16
     604:	00001ca0 	andeq	r1, r0, r0, lsr #25
     608:	0b9c0100 	bleq	fe700a10 <stack_irq+0x5dee3cb8>
     60c:	000003f9 	strdeq	r0, [r0], -r9
     610:	07841c01 	streq	r1, [r4, r1, lsl #24]
     614:	0028a000 	eoreq	sl, r8, r0
     618:	9c010000 	stcls	0, cr0, [r1], {-0}
     61c:	0000014c 	andeq	r0, r0, ip, asr #2
     620:	6c61760c 	stclvs	6, cr7, [r1], #-48	; 0xffffffd0
     624:	331c0100 	tstcc	ip, #0, 2
     628:	02000000 	andeq	r0, r0, #0
     62c:	0d007491 	cfstrseq	mvf7, [r0, #-580]	; 0xfffffdbc
     630:	00000642 	andeq	r0, r0, r2, asr #12
     634:	00331f01 	eorseq	r1, r3, r1, lsl #30
     638:	07ac0000 	streq	r0, [ip, r0]!
     63c:	001ca000 	andseq	sl, ip, r0
     640:	9c010000 	stcls	0, cr0, [r1], {-0}
     644:	0006520b 	andeq	r5, r6, fp, lsl #4
     648:	c8240100 	stmdagt	r4!, {r8}
     64c:	28a00007 	stmiacs	r0!, {r0, r1, r2}
     650:	01000000 	mrseq	r0, (UNDEF: 0)
     654:	0001859c 	muleq	r1, ip, r5
     658:	61760c00 	cmnvs	r6, r0, lsl #24
     65c:	2401006c 	strcs	r0, [r1], #-108	; 0x6c
     660:	00000033 	andeq	r0, r0, r3, lsr r0
     664:	00749102 	rsbseq	r9, r4, r2, lsl #2
     668:	0005460d 	andeq	r4, r5, sp, lsl #12
     66c:	33270100 	teqcc	r7, #0, 2
     670:	f0000000 			; <UNDEFINED> instruction: 0xf0000000
     674:	1ca00007 	stcne	0, cr0, [r0], #28
     678:	01000000 	mrseq	r0, (UNDEF: 0)
     67c:	02c30b9c 	sbceq	r0, r3, #156, 22	; 0x27000
     680:	2c010000 	stccs	0, cr0, [r1], {-0}
     684:	a000080c 	andge	r0, r0, ip, lsl #16
     688:	00000064 	andeq	r0, r0, r4, rrx
     68c:	01e89c01 	mvneq	r9, r1, lsl #24
     690:	690c0000 	stmdbvs	ip, {}	; <UNPREDICTABLE>
     694:	01007172 	tsteq	r0, r2, ror r1
     698:	00004c2c 	andeq	r4, r0, ip, lsr #24
     69c:	64910200 	ldrvs	r0, [r1], #512	; 0x200
     6a0:	7864690e 	stmdavc	r4!, {r1, r2, r3, r8, fp, sp, lr}^
     6a4:	4c2d0100 	stfmis	f0, [sp], #-0
     6a8:	02000000 	andeq	r0, r0, #0
     6ac:	6f0e7491 	svcvs	0x000e7491
     6b0:	01006666 	tsteq	r0, r6, ror #12
     6b4:	00004c2e 	andeq	r4, r0, lr, lsr #24
     6b8:	70910200 	addsvc	r0, r1, r0, lsl #4
     6bc:	6c61760e 	stclvs	6, cr7, [r1], #-56	; 0xffffffc8
     6c0:	332f0100 	teqcc	pc, #0, 2
     6c4:	02000000 	andeq	r0, r0, #0
     6c8:	0b006c91 	bleq	1b914 <load_address-0x9ffe46ec>
     6cc:	000003a8 	andeq	r0, r0, r8, lsr #7
     6d0:	08703601 	ldmdaeq	r0!, {r0, r9, sl, ip, sp}^
     6d4:	0064a000 	rsbeq	sl, r4, r0
     6d8:	9c010000 	stcls	0, cr0, [r1], {-0}
     6dc:	00000236 	andeq	r0, r0, r6, lsr r2
     6e0:	7172690c 	cmnvc	r2, ip, lsl #18
     6e4:	4c360100 	ldfmis	f0, [r6], #-0
     6e8:	02000000 	andeq	r0, r0, #0
     6ec:	690e6491 	stmdbvs	lr, {r0, r4, r7, sl, sp, lr}
     6f0:	01007864 	tsteq	r0, r4, ror #16
     6f4:	00004c37 	andeq	r4, r0, r7, lsr ip
     6f8:	74910200 	ldrvc	r0, [r1], #512	; 0x200
     6fc:	66666f0e 	strbtvs	r6, [r6], -lr, lsl #30
     700:	4c380100 	ldfmis	f0, [r8], #-0
     704:	02000000 	andeq	r0, r0, #0
     708:	760e7091 			; <UNDEFINED> instruction: 0x760e7091
     70c:	01006c61 	tsteq	r0, r1, ror #24
     710:	00003339 	andeq	r3, r0, r9, lsr r3
     714:	6c910200 	lfmvs	f0, 4, [r1], {0}
     718:	038c0b00 	orreq	r0, ip, #0, 22
     71c:	40010000 	andmi	r0, r1, r0
     720:	a00008d4 	ldrdge	r0, [r0], -r4
     724:	00000040 	andeq	r0, r0, r0, asr #32
     728:	02689c01 	rsbeq	r9, r8, #256	; 0x100
     72c:	690c0000 	stmdbvs	ip, {}	; <UNPREDICTABLE>
     730:	01007864 	tsteq	r0, r4, ror #16
     734:	00004c40 	andeq	r4, r0, r0, asr #24
     738:	74910200 	ldrvc	r0, [r1], #512	; 0x200
     73c:	6c61760c 	stclvs	6, cr7, [r1], #-48	; 0xffffffd0
     740:	33400100 	movtcc	r0, #256	; 0x100
     744:	02000000 	andeq	r0, r0, #0
     748:	0b007091 	bleq	1c994 <load_address-0x9ffe366c>
     74c:	000002ae 	andeq	r0, r0, lr, lsr #5
     750:	09144301 	ldmdbeq	r4, {r0, r8, r9, lr}
     754:	0040a000 	subeq	sl, r0, r0
     758:	9c010000 	stcls	0, cr0, [r1], {-0}
     75c:	0000029a 	muleq	r0, sl, r2
     760:	7864690c 	stmdavc	r4!, {r2, r3, r8, fp, sp, lr}^
     764:	4c430100 	stfmie	f0, [r3], {-0}
     768:	02000000 	andeq	r0, r0, #0
     76c:	760c7491 			; <UNDEFINED> instruction: 0x760c7491
     770:	01006c61 	tsteq	r0, r1, ror #24
     774:	00003343 	andeq	r3, r0, r3, asr #6
     778:	70910200 	addsvc	r0, r1, r0, lsl #4
     77c:	041f0f00 	ldreq	r0, [pc], #-3840	; 784 <load_address-0x9ffff87c>
     780:	46010000 	strmi	r0, [r1], -r0
     784:	00000033 	andeq	r0, r0, r3, lsr r0
     788:	a0000954 	andge	r0, r0, r4, asr r9
     78c:	00000038 	andeq	r0, r0, r8, lsr r0
     790:	02c29c01 	sbceq	r9, r2, #256	; 0x100
     794:	690c0000 	stmdbvs	ip, {}	; <UNPREDICTABLE>
     798:	01007864 	tsteq	r0, r4, ror #16
     79c:	00004c46 	andeq	r4, r0, r6, asr #24
     7a0:	74910200 	ldrvc	r0, [r1], #512	; 0x200
     7a4:	06d80f00 	ldrbeq	r0, [r8], r0, lsl #30
     7a8:	49010000 	stmdbmi	r1, {}	; <UNPREDICTABLE>
     7ac:	00000033 	andeq	r0, r0, r3, lsr r0
     7b0:	a000098c 	andge	r0, r0, ip, lsl #19
     7b4:	00000038 	andeq	r0, r0, r8, lsr r0
     7b8:	02ea9c01 	rsceq	r9, sl, #256	; 0x100
     7bc:	690c0000 	stmdbvs	ip, {}	; <UNPREDICTABLE>
     7c0:	01007864 	tsteq	r0, r4, ror #16
     7c4:	00004c49 	andeq	r4, r0, r9, asr #24
     7c8:	74910200 	ldrvc	r0, [r1], #512	; 0x200
     7cc:	03e40b00 	mvneq	r0, #0, 22
     7d0:	4d010000 	stcmi	0, cr0, [r1, #-0]
     7d4:	a00009c4 	andge	r0, r0, r4, asr #19
     7d8:	0000008c 	andeq	r0, r0, ip, lsl #1
     7dc:	03389c01 	teqeq	r8, #256	; 0x100
     7e0:	690c0000 	stmdbvs	ip, {}	; <UNPREDICTABLE>
     7e4:	01007172 	tsteq	r0, r2, ror r1
     7e8:	00004c4d 	andeq	r4, r0, sp, asr #24
     7ec:	64910200 	ldrvs	r0, [r1], #512	; 0x200
     7f0:	7864690e 	stmdavc	r4!, {r1, r2, r3, r8, fp, sp, lr}^
     7f4:	4c4e0100 	stfmie	f0, [lr], {-0}
     7f8:	02000000 	andeq	r0, r0, #0
     7fc:	6f0e7491 	svcvs	0x000e7491
     800:	01006666 	tsteq	r0, r6, ror #12
     804:	00004c4f 	andeq	r4, r0, pc, asr #24
     808:	70910200 	addsvc	r0, r1, r0, lsl #4
     80c:	6c61760e 	stclvs	6, cr7, [r1], #-56	; 0xffffffc8
     810:	33500100 	cmpcc	r0, #0, 2
     814:	02000000 	andeq	r0, r0, #0
     818:	0b006c91 	bleq	1ba64 <load_address-0x9ffe459c>
     81c:	00000307 	andeq	r0, r0, r7, lsl #6
     820:	0a505601 	beq	141602c <load_address-0x9ebe9fd4>
     824:	008ca000 	addeq	sl, ip, r0
     828:	9c010000 	stcls	0, cr0, [r1], {-0}
     82c:	00000386 	andeq	r0, r0, r6, lsl #7
     830:	7172690c 	cmnvc	r2, ip, lsl #18
     834:	4c560100 	ldfmie	f0, [r6], {-0}
     838:	02000000 	andeq	r0, r0, #0
     83c:	690e6491 	stmdbvs	lr, {r0, r4, r7, sl, sp, lr}
     840:	01007864 	tsteq	r0, r4, ror #16
     844:	00004c57 	andeq	r4, r0, r7, asr ip
     848:	74910200 	ldrvc	r0, [r1], #512	; 0x200
     84c:	66666f0e 	strbtvs	r6, [r6], -lr, lsl #30
     850:	4c580100 	ldfmie	f0, [r8], {-0}
     854:	02000000 	andeq	r0, r0, #0
     858:	760e7091 			; <UNDEFINED> instruction: 0x760e7091
     85c:	01006c61 	tsteq	r0, r1, ror #24
     860:	00003359 	andeq	r3, r0, r9, asr r3
     864:	6c910200 	lfmvs	f0, 4, [r1], {0}
     868:	04680b00 	strbteq	r0, [r8], #-2816	; 0xb00
     86c:	5f010000 	svcpl	0x00010000
     870:	a0000adc 	ldrdge	r0, [r0], -ip
     874:	00000040 	andeq	r0, r0, r0, asr #32
     878:	03b89c01 			; <UNDEFINED> instruction: 0x03b89c01
     87c:	690c0000 	stmdbvs	ip, {}	; <UNPREDICTABLE>
     880:	01007864 	tsteq	r0, r4, ror #16
     884:	00004c5f 	andeq	r4, r0, pc, asr ip
     888:	74910200 	ldrvc	r0, [r1], #512	; 0x200
     88c:	6c61760c 	stclvs	6, cr7, [r1], #-48	; 0xffffffd0
     890:	335f0100 	cmpcc	pc, #0, 2
     894:	02000000 	andeq	r0, r0, #0
     898:	0b007091 	bleq	1cae4 <load_address-0x9ffe351c>
     89c:	000007b3 			; <UNDEFINED> instruction: 0x000007b3
     8a0:	0b1c6201 	bleq	7190ac <load_address-0x9f8e6f54>
     8a4:	0040a000 	subeq	sl, r0, r0
     8a8:	9c010000 	stcls	0, cr0, [r1], {-0}
     8ac:	000003ea 	andeq	r0, r0, sl, ror #7
     8b0:	7864690c 	stmdavc	r4!, {r2, r3, r8, fp, sp, lr}^
     8b4:	4c620100 	stfmie	f0, [r2], #-0
     8b8:	02000000 	andeq	r0, r0, #0
     8bc:	760c7491 			; <UNDEFINED> instruction: 0x760c7491
     8c0:	01006c61 	tsteq	r0, r1, ror #24
     8c4:	00003362 	andeq	r3, r0, r2, ror #6
     8c8:	70910200 	addsvc	r0, r1, r0, lsl #4
     8cc:	02f50f00 	rscseq	r0, r5, #0, 30
     8d0:	65010000 	strvs	r0, [r1, #-0]
     8d4:	00000033 	andeq	r0, r0, r3, lsr r0
     8d8:	a0000b5c 	andge	r0, r0, ip, asr fp
     8dc:	00000038 	andeq	r0, r0, r8, lsr r0
     8e0:	04129c01 	ldreq	r9, [r2], #-3073	; 0xc01
     8e4:	690c0000 	stmdbvs	ip, {}	; <UNPREDICTABLE>
     8e8:	01007864 	tsteq	r0, r4, ror #16
     8ec:	00004c65 	andeq	r4, r0, r5, ror #24
     8f0:	74910200 	ldrvc	r0, [r1], #512	; 0x200
     8f4:	06620f00 	strbteq	r0, [r2], -r0, lsl #30
     8f8:	68010000 	stmdavs	r1, {}	; <UNPREDICTABLE>
     8fc:	00000033 	andeq	r0, r0, r3, lsr r0
     900:	a0000b94 	mulge	r0, r4, fp
     904:	00000038 	andeq	r0, r0, r8, lsr r0
     908:	043a9c01 	ldrteq	r9, [sl], #-3073	; 0xc01
     90c:	690c0000 	stmdbvs	ip, {}	; <UNPREDICTABLE>
     910:	01007864 	tsteq	r0, r4, ror #16
     914:	00004c68 	andeq	r4, r0, r8, ror #24
     918:	74910200 	ldrvc	r0, [r1], #512	; 0x200
     91c:	04410b00 	strbeq	r0, [r1], #-2816	; 0xb00
     920:	6d010000 	stcvs	0, cr0, [r1, #-0]
     924:	a0000bcc 	andge	r0, r0, ip, asr #23
     928:	0000008c 	andeq	r0, r0, ip, lsl #1
     92c:	04889c01 	streq	r9, [r8], #3073	; 0xc01
     930:	690c0000 	stmdbvs	ip, {}	; <UNPREDICTABLE>
     934:	01007172 	tsteq	r0, r2, ror r1
     938:	00004c6d 	andeq	r4, r0, sp, ror #24
     93c:	64910200 	ldrvs	r0, [r1], #512	; 0x200
     940:	7864690e 	stmdavc	r4!, {r1, r2, r3, r8, fp, sp, lr}^
     944:	4c6e0100 	stfmie	f0, [lr], #-0
     948:	02000000 	andeq	r0, r0, #0
     94c:	6f0e7491 	svcvs	0x000e7491
     950:	01006666 	tsteq	r0, r6, ror #12
     954:	00004c6f 	andeq	r4, r0, pc, ror #24
     958:	70910200 	addsvc	r0, r1, r0, lsl #4
     95c:	6c61760e 	stclvs	6, cr7, [r1], #-56	; 0xffffffc8
     960:	33700100 	cmncc	r0, #0, 2
     964:	02000000 	andeq	r0, r0, #0
     968:	0b006c91 	bleq	1bbb4 <load_address-0x9ffe444c>
     96c:	00000507 	andeq	r0, r0, r7, lsl #10
     970:	0c587701 	mrrceq	7, 0, r7, r8, cr1
     974:	008ca000 	addeq	sl, ip, r0
     978:	9c010000 	stcls	0, cr0, [r1], {-0}
     97c:	000004d6 	ldrdeq	r0, [r0], -r6
     980:	7172690c 	cmnvc	r2, ip, lsl #18
     984:	4c770100 	ldfmie	f0, [r7], #-0
     988:	02000000 	andeq	r0, r0, #0
     98c:	690e6491 	stmdbvs	lr, {r0, r4, r7, sl, sp, lr}
     990:	01007864 	tsteq	r0, r4, ror #16
     994:	00004c78 	andeq	r4, r0, r8, ror ip
     998:	74910200 	ldrvc	r0, [r1], #512	; 0x200
     99c:	66666f0e 	strbtvs	r6, [r6], -lr, lsl #30
     9a0:	4c790100 	ldfmie	f0, [r9], #-0
     9a4:	02000000 	andeq	r0, r0, #0
     9a8:	760e7091 			; <UNDEFINED> instruction: 0x760e7091
     9ac:	01006c61 	tsteq	r0, r1, ror #24
     9b0:	0000337a 	andeq	r3, r0, sl, ror r3
     9b4:	6c910200 	lfmvs	f0, 4, [r1], {0}
     9b8:	03770b00 	cmneq	r7, #0, 22
     9bc:	80010000 	andhi	r0, r1, r0
     9c0:	a0000ce4 	andge	r0, r0, r4, ror #25
     9c4:	00000040 	andeq	r0, r0, r0, asr #32
     9c8:	05089c01 	streq	r9, [r8, #-3073]	; 0xc01
     9cc:	690c0000 	stmdbvs	ip, {}	; <UNPREDICTABLE>
     9d0:	01007864 	tsteq	r0, r4, ror #16
     9d4:	00004c80 	andeq	r4, r0, r0, lsl #25
     9d8:	74910200 	ldrvc	r0, [r1], #512	; 0x200
     9dc:	6c61760c 	stclvs	6, cr7, [r1], #-48	; 0xffffffd0
     9e0:	33800100 	orrcc	r0, r0, #0, 2
     9e4:	02000000 	andeq	r0, r0, #0
     9e8:	0b007091 	bleq	1cc34 <load_address-0x9ffe33cc>
     9ec:	0000040a 	andeq	r0, r0, sl, lsl #8
     9f0:	0d248301 	stceq	3, cr8, [r4, #-4]!
     9f4:	0040a000 	subeq	sl, r0, r0
     9f8:	9c010000 	stcls	0, cr0, [r1], {-0}
     9fc:	0000053a 	andeq	r0, r0, sl, lsr r5
     a00:	7864690c 	stmdavc	r4!, {r2, r3, r8, fp, sp, lr}^
     a04:	4c830100 	stfmis	f0, [r3], {0}
     a08:	02000000 	andeq	r0, r0, #0
     a0c:	760c7491 			; <UNDEFINED> instruction: 0x760c7491
     a10:	01006c61 	tsteq	r0, r1, ror #24
     a14:	00003383 	andeq	r3, r0, r3, lsl #7
     a18:	70910200 	addsvc	r0, r1, r0, lsl #4
     a1c:	02940f00 	addseq	r0, r4, #0, 30
     a20:	86010000 	strhi	r0, [r1], -r0
     a24:	00000033 	andeq	r0, r0, r3, lsr r0
     a28:	a0000d64 	andge	r0, r0, r4, ror #26
     a2c:	00000038 	andeq	r0, r0, r8, lsr r0
     a30:	05629c01 	strbeq	r9, [r2, #-3073]!	; 0xc01
     a34:	690c0000 	stmdbvs	ip, {}	; <UNPREDICTABLE>
     a38:	01007864 	tsteq	r0, r4, ror #16
     a3c:	00004c86 	andeq	r4, r0, r6, lsl #25
     a40:	74910200 	ldrvc	r0, [r1], #512	; 0x200
     a44:	05550f00 	ldrbeq	r0, [r5, #-3840]	; 0xf00
     a48:	89010000 	stmdbhi	r1, {}	; <UNPREDICTABLE>
     a4c:	00000033 	andeq	r0, r0, r3, lsr r0
     a50:	a0000d9c 	mulge	r0, ip, sp
     a54:	00000038 	andeq	r0, r0, r8, lsr r0
     a58:	058a9c01 	streq	r9, [sl, #3073]	; 0xc01
     a5c:	690c0000 	stmdbvs	ip, {}	; <UNPREDICTABLE>
     a60:	01007864 	tsteq	r0, r4, ror #16
     a64:	00004c89 	andeq	r4, r0, r9, lsl #25
     a68:	74910200 	ldrvc	r0, [r1], #512	; 0x200
     a6c:	05eb0b00 	strbeq	r0, [fp, #2816]!	; 0xb00
     a70:	8e010000 	cdphi	0, 0, cr0, cr1, cr0, {0}
     a74:	a0000dd4 	ldrdge	r0, [r0], -r4
     a78:	000000bc 	strheq	r0, [r0], -ip
     a7c:	05f49c01 	ldrbeq	r9, [r4, #3073]!	; 0xc01
     a80:	690c0000 	stmdbvs	ip, {}	; <UNPREDICTABLE>
     a84:	01007172 	tsteq	r0, r2, ror r1
     a88:	00004c8e 	andeq	r4, r0, lr, lsl #25
     a8c:	64910200 	ldrvs	r0, [r1], #512	; 0x200
     a90:	00034408 	andeq	r4, r3, r8, lsl #8
     a94:	4c8e0100 	stfmis	f0, [lr], {0}
     a98:	02000000 	andeq	r0, r0, #0
     a9c:	690e6091 	stmdbvs	lr, {r0, r4, r7, sp, lr}
     aa0:	01007864 	tsteq	r0, r4, ror #16
     aa4:	00004c8f 	andeq	r4, r0, pc, lsl #25
     aa8:	74910200 	ldrvc	r0, [r1], #512	; 0x200
     aac:	66666f0e 	strbtvs	r6, [r6], -lr, lsl #30
     ab0:	4c900100 	ldfmis	f0, [r0], {0}
     ab4:	02000000 	andeq	r0, r0, #0
     ab8:	760e7091 			; <UNDEFINED> instruction: 0x760e7091
     abc:	01006c61 	tsteq	r0, r1, ror #24
     ac0:	00003391 	muleq	r0, r1, r3
     ac4:	6c910200 	lfmvs	f0, 4, [r1], {0}
     ac8:	00071610 	andeq	r1, r7, r0, lsl r6
     acc:	33920100 	orrscc	r0, r2, #0, 2
     ad0:	02000000 	andeq	r0, r0, #0
     ad4:	0b006891 	bleq	1ad20 <load_address-0x9ffe52e0>
     ad8:	000006b3 			; <UNDEFINED> instruction: 0x000006b3
     adc:	0e909901 	cdpeq	9, 9, cr9, cr0, cr1, {0}
     ae0:	0040a000 	subeq	sl, r0, r0
     ae4:	9c010000 	stcls	0, cr0, [r1], {-0}
     ae8:	00000626 	andeq	r0, r0, r6, lsr #12
     aec:	7864690c 	stmdavc	r4!, {r2, r3, r8, fp, sp, lr}^
     af0:	4c990100 	ldfmis	f0, [r9], {0}
     af4:	02000000 	andeq	r0, r0, #0
     af8:	760c7491 			; <UNDEFINED> instruction: 0x760c7491
     afc:	01006c61 	tsteq	r0, r1, ror #24
     b00:	00003399 	muleq	r0, r9, r3
     b04:	70910200 	addsvc	r0, r1, r0, lsl #4
     b08:	07db0f00 	ldrbeq	r0, [fp, r0, lsl #30]
     b0c:	9c010000 	stcls	0, cr0, [r1], {-0}
     b10:	00000033 	andeq	r0, r0, r3, lsr r0
     b14:	a0000ed0 	ldrdge	r0, [r0], -r0	; <UNPREDICTABLE>
     b18:	00000038 	andeq	r0, r0, r8, lsr r0
     b1c:	064e9c01 	strbeq	r9, [lr], -r1, lsl #24
     b20:	690c0000 	stmdbvs	ip, {}	; <UNPREDICTABLE>
     b24:	01007864 	tsteq	r0, r4, ror #16
     b28:	00004c9c 	muleq	r0, ip, ip
     b2c:	74910200 	ldrvc	r0, [r1], #512	; 0x200
     b30:	05320b00 	ldreq	r0, [r2, #-2816]!	; 0xb00
     b34:	a1010000 	mrsge	r0, (UNDEF: 1)
     b38:	a0000f08 	andge	r0, r0, r8, lsl #30
     b3c:	0000009c 	muleq	r0, ip, r0
     b40:	06aa9c01 	strteq	r9, [sl], r1, lsl #24
     b44:	690c0000 	stmdbvs	ip, {}	; <UNPREDICTABLE>
     b48:	01007172 	tsteq	r0, r2, ror r1
     b4c:	00004ca1 	andeq	r4, r0, r1, lsr #25
     b50:	64910200 	ldrvs	r0, [r1], #512	; 0x200
     b54:	00050008 	andeq	r0, r5, r8
     b58:	4ca10100 	stfmis	f0, [r1]
     b5c:	02000000 	andeq	r0, r0, #0
     b60:	690e6091 	stmdbvs	lr, {r0, r4, r7, sp, lr}
     b64:	01007864 	tsteq	r0, r4, ror #16
     b68:	00004ca2 	andeq	r4, r0, r2, lsr #25
     b6c:	74910200 	ldrvc	r0, [r1], #512	; 0x200
     b70:	66666f0e 	strbtvs	r6, [r6], -lr, lsl #30
     b74:	4ca30100 	stfmis	f0, [r3]
     b78:	02000000 	andeq	r0, r0, #0
     b7c:	760e7091 			; <UNDEFINED> instruction: 0x760e7091
     b80:	01006c61 	tsteq	r0, r1, ror #24
     b84:	000033a4 	andeq	r3, r0, r4, lsr #7
     b88:	6c910200 	lfmvs	f0, 4, [r1], {0}
     b8c:	05c30b00 	strbeq	r0, [r3, #2816]	; 0xb00
     b90:	a9010000 	stmdbge	r1, {}	; <UNPREDICTABLE>
     b94:	a0000fa4 	andge	r0, r0, r4, lsr #31
     b98:	000000a0 	andeq	r0, r0, r0, lsr #1
     b9c:	07069c01 	streq	r9, [r6, -r1, lsl #24]
     ba0:	690c0000 	stmdbvs	ip, {}	; <UNPREDICTABLE>
     ba4:	01007172 	tsteq	r0, r2, ror r1
     ba8:	00004ca9 	andeq	r4, r0, r9, lsr #25
     bac:	64910200 	ldrvs	r0, [r1], #512	; 0x200
     bb0:	00050008 	andeq	r0, r5, r8
     bb4:	4ca90100 	stfmis	f0, [r9]
     bb8:	02000000 	andeq	r0, r0, #0
     bbc:	690e6091 	stmdbvs	lr, {r0, r4, r7, sp, lr}
     bc0:	01007864 	tsteq	r0, r4, ror #16
     bc4:	00004caa 	andeq	r4, r0, sl, lsr #25
     bc8:	74910200 	ldrvc	r0, [r1], #512	; 0x200
     bcc:	66666f0e 	strbtvs	r6, [r6], -lr, lsl #30
     bd0:	4cab0100 	stfmis	f0, [fp]
     bd4:	02000000 	andeq	r0, r0, #0
     bd8:	760e7091 			; <UNDEFINED> instruction: 0x760e7091
     bdc:	01006c61 	tsteq	r0, r1, ror #24
     be0:	000033ac 	andeq	r3, r0, ip, lsr #7
     be4:	6c910200 	lfmvs	f0, 4, [r1], {0}
     be8:	07750b00 	ldrbeq	r0, [r5, -r0, lsl #22]!
     bec:	b1010000 	mrslt	r0, (UNDEF: 1)
     bf0:	a0001044 	andge	r1, r0, r4, asr #32
     bf4:	00000040 	andeq	r0, r0, r0, asr #32
     bf8:	07389c01 	ldreq	r9, [r8, -r1, lsl #24]!
     bfc:	690c0000 	stmdbvs	ip, {}	; <UNPREDICTABLE>
     c00:	01007864 	tsteq	r0, r4, ror #16
     c04:	00004cb1 			; <UNDEFINED> instruction: 0x00004cb1
     c08:	74910200 	ldrvc	r0, [r1], #512	; 0x200
     c0c:	6c61760c 	stclvs	6, cr7, [r1], #-48	; 0xffffffd0
     c10:	33b10100 			; <UNDEFINED> instruction: 0x33b10100
     c14:	02000000 	andeq	r0, r0, #0
     c18:	0f007091 	svceq	0x00007091
     c1c:	000005d7 	ldrdeq	r0, [r0], -r7
     c20:	0033b401 	eorseq	fp, r3, r1, lsl #8
     c24:	10840000 	addne	r0, r4, r0
     c28:	0038a000 	eorseq	sl, r8, r0
     c2c:	9c010000 	stcls	0, cr0, [r1], {-0}
     c30:	00000760 	andeq	r0, r0, r0, ror #14
     c34:	7864690c 	stmdavc	r4!, {r2, r3, r8, fp, sp, lr}^
     c38:	4cb40100 	ldfmis	f0, [r4]
     c3c:	02000000 	andeq	r0, r0, #0
     c40:	0b007491 	bleq	1de8c <load_address-0x9ffe2174>
     c44:	0000072b 	andeq	r0, r0, fp, lsr #14
     c48:	10bcb901 	adcsne	fp, ip, r1, lsl #18
     c4c:	0040a000 	subeq	sl, r0, r0
     c50:	9c010000 	stcls	0, cr0, [r1], {-0}
     c54:	00000792 	muleq	r0, r2, r7
     c58:	7864690c 	stmdavc	r4!, {r2, r3, r8, fp, sp, lr}^
     c5c:	4cb90100 	ldfmis	f0, [r9]
     c60:	02000000 	andeq	r0, r0, #0
     c64:	760c7491 			; <UNDEFINED> instruction: 0x760c7491
     c68:	01006c61 	tsteq	r0, r1, ror #24
     c6c:	000033b9 			; <UNDEFINED> instruction: 0x000033b9
     c70:	70910200 	addsvc	r0, r1, r0, lsl #4
     c74:	071b0f00 	ldreq	r0, [fp, -r0, lsl #30]
     c78:	bc010000 	stclt	0, cr0, [r1], {-0}
     c7c:	00000033 	andeq	r0, r0, r3, lsr r0
     c80:	a00010fc 	strdge	r1, [r0], -ip
     c84:	00000038 	andeq	r0, r0, r8, lsr r0
     c88:	07ba9c01 	ldreq	r9, [sl, r1, lsl #24]!
     c8c:	690c0000 	stmdbvs	ip, {}	; <UNPREDICTABLE>
     c90:	01007864 	tsteq	r0, r4, ror #16
     c94:	00004cbc 			; <UNDEFINED> instruction: 0x00004cbc
     c98:	74910200 	ldrvc	r0, [r1], #512	; 0x200
     c9c:	04c80b00 	strbeq	r0, [r8], #2816	; 0xb00
     ca0:	c1010000 	mrsgt	r0, (UNDEF: 1)
     ca4:	a0001134 	andge	r1, r0, r4, lsr r1
     ca8:	0000004c 	andeq	r0, r0, ip, asr #32
     cac:	07fa9c01 	ldrbeq	r9, [sl, r1, lsl #24]!
     cb0:	730c0000 	movwvc	r0, #49152	; 0xc000
     cb4:	01006967 	tsteq	r0, r7, ror #18
     cb8:	00004cc1 	andeq	r4, r0, r1, asr #25
     cbc:	6c910200 	lfmvs	f0, 4, [r1], {0}
     cc0:	00050008 	andeq	r0, r5, r8
     cc4:	4cc10100 	stfmie	f0, [r1], {0}
     cc8:	02000000 	andeq	r0, r0, #0
     ccc:	760e6891 			; <UNDEFINED> instruction: 0x760e6891
     cd0:	01006c61 	tsteq	r0, r1, ror #24
     cd4:	000033c2 	andeq	r3, r0, r2, asr #7
     cd8:	74910200 	ldrvc	r0, [r1], #512	; 0x200
     cdc:	078a0b00 	streq	r0, [sl, r0, lsl #22]
     ce0:	c5010000 	strgt	r0, [r1, #-0]
     ce4:	a0001180 	andge	r1, r0, r0, lsl #3
     ce8:	00000048 	andeq	r0, r0, r8, asr #32
     cec:	083a9c01 	ldmdaeq	sl!, {r0, sl, fp, ip, pc}
     cf0:	730c0000 	movwvc	r0, #49152	; 0xc000
     cf4:	01006967 	tsteq	r0, r7, ror #18
     cf8:	00004cc5 	andeq	r4, r0, r5, asr #25
     cfc:	6c910200 	lfmvs	f0, 4, [r1], {0}
     d00:	00051b08 	andeq	r1, r5, r8, lsl #22
     d04:	33c50100 	biccc	r0, r5, #0, 2
     d08:	02000000 	andeq	r0, r0, #0
     d0c:	760e6891 			; <UNDEFINED> instruction: 0x760e6891
     d10:	01006c61 	tsteq	r0, r1, ror #24
     d14:	000033c6 	andeq	r3, r0, r6, asr #7
     d18:	74910200 	ldrvc	r0, [r1], #512	; 0x200
     d1c:	074b0b00 	strbeq	r0, [fp, -r0, lsl #22]
     d20:	c9010000 	stmdbgt	r1, {}	; <UNPREDICTABLE>
     d24:	a00011c8 	andge	r1, r0, r8, asr #3
     d28:	00000028 	andeq	r0, r0, r8, lsr #32
     d2c:	085e9c01 	ldmdaeq	lr, {r0, sl, fp, ip, pc}^
     d30:	760c0000 	strvc	r0, [ip], -r0
     d34:	01006c61 	tsteq	r0, r1, ror #24
     d38:	000033c9 	andeq	r3, r0, r9, asr #7
     d3c:	74910200 	ldrvc	r0, [r1], #512	; 0x200
     d40:	06740d00 	ldrbteq	r0, [r4], -r0, lsl #26
     d44:	cc010000 	stcgt	0, cr0, [r1], {-0}
     d48:	00000033 	andeq	r0, r0, r3, lsr r0
     d4c:	a00011f0 	strdge	r1, [r0], -r0
     d50:	0000001c 	andeq	r0, r0, ip, lsl r0
     d54:	dd0b9c01 	stcle	12, cr9, [fp, #-4]
     d58:	01000004 	tsteq	r0, r4
     d5c:	00120cd7 			; <UNDEFINED> instruction: 0x00120cd7
     d60:	000040a0 	andeq	r4, r0, r0, lsr #1
     d64:	a59c0100 	ldrge	r0, [ip, #256]	; 0x100
     d68:	0c000008 	stceq	0, cr0, [r0], {8}
     d6c:	00786469 	rsbseq	r6, r8, r9, ror #8
     d70:	004cd701 	subeq	sp, ip, r1, lsl #14
     d74:	91020000 	mrsls	r0, (UNDEF: 2)
     d78:	61760c74 	cmnvs	r6, r4, ror ip
     d7c:	d701006c 	strle	r0, [r1, -ip, rrx]
     d80:	00000033 	andeq	r0, r0, r3, lsr r0
     d84:	00709102 	rsbseq	r9, r0, r2, lsl #2
     d88:	0007c60b 	andeq	ip, r7, fp, lsl #12
     d8c:	4cda0100 	ldfmie	f0, [sl], {0}
     d90:	40a00012 	adcmi	r0, r0, r2, lsl r0
     d94:	01000000 	mrseq	r0, (UNDEF: 0)
     d98:	0008d79c 	muleq	r8, ip, r7
     d9c:	64690c00 	strbtvs	r0, [r9], #-3072	; 0xc00
     da0:	da010078 	ble	40f88 <load_address-0x9ffbf078>
     da4:	0000004c 	andeq	r0, r0, ip, asr #32
     da8:	0c749102 	ldfeqp	f1, [r4], #-8
     dac:	006c6176 	rsbeq	r6, ip, r6, ror r1
     db0:	0033da01 	eorseq	sp, r3, r1, lsl #20
     db4:	91020000 	mrsls	r0, (UNDEF: 2)
     db8:	d00f0070 	andle	r0, pc, r0, ror r0	; <UNPREDICTABLE>
     dbc:	01000003 	tsteq	r0, r3
     dc0:	000033dd 	ldrdeq	r3, [r0], -sp
     dc4:	00128c00 	andseq	r8, r2, r0, lsl #24
     dc8:	000038a0 	andeq	r3, r0, r0, lsr #17
     dcc:	ff9c0100 			; <UNDEFINED> instruction: 0xff9c0100
     dd0:	0c000008 	stceq	0, cr0, [r0], {8}
     dd4:	00786469 	rsbseq	r6, r8, r9, ror #8
     dd8:	004cdd01 	subeq	sp, ip, r1, lsl #26
     ddc:	91020000 	mrsls	r0, (UNDEF: 2)
     de0:	bc0f0074 	stclt	0, cr0, [pc], {116}	; 0x74
     de4:	01000003 	tsteq	r0, r3
     de8:	000033e0 	andeq	r3, r0, r0, ror #7
     dec:	0012c400 	andseq	ip, r2, r0, lsl #8
     df0:	000038a0 	andeq	r3, r0, r0, lsr #17
     df4:	279c0100 	ldrcs	r0, [ip, r0, lsl #2]
     df8:	0c000009 	stceq	0, cr0, [r0], {9}
     dfc:	00786469 	rsbseq	r6, r8, r9, ror #8
     e00:	004ce001 	subeq	lr, ip, r1
     e04:	91020000 	mrsls	r0, (UNDEF: 2)
     e08:	b40d0074 	strlt	r0, [sp], #-116	; 0x74
     e0c:	01000004 	tsteq	r0, r4
     e10:	000033e8 	andeq	r3, r0, r8, ror #7
     e14:	0012fc00 	andseq	pc, r2, r0, lsl #24
     e18:	00001ca0 	andeq	r1, r0, r0, lsr #25
     e1c:	0b9c0100 	bleq	fe701224 <stack_irq+0x5dee44cc>
     e20:	00000569 	andeq	r0, r0, r9, ror #10
     e24:	1318eb01 	tstne	r8, #1024	; 0x400
     e28:	0028a000 	eoreq	sl, r8, r0
     e2c:	9c010000 	stcls	0, cr0, [r1], {-0}
     e30:	00000960 	andeq	r0, r0, r0, ror #18
     e34:	6c61760c 	stclvs	6, cr7, [r1], #-48	; 0xffffffd0
     e38:	33eb0100 	mvncc	r0, #0, 2
     e3c:	02000000 	andeq	r0, r0, #0
     e40:	0b007491 	bleq	1e08c <load_address-0x9ffe1f74>
     e44:	0000034d 	andeq	r0, r0, sp, asr #6
     e48:	1340ee01 	movtne	lr, #3585	; 0xe01
     e4c:	002ca000 	eoreq	sl, ip, r0
     e50:	9c010000 	stcls	0, cr0, [r1], {-0}
     e54:	00000984 	andeq	r0, r0, r4, lsl #19
     e58:	6c61760e 	stclvs	6, cr7, [r1], #-56	; 0xffffffc8
     e5c:	33ef0100 	mvncc	r0, #0, 2
     e60:	02000000 	andeq	r0, r0, #0
     e64:	0b007491 	bleq	1e0b0 <load_address-0x9ffe1f50>
     e68:	00000617 	andeq	r0, r0, r7, lsl r6
     e6c:	136cf301 	msrne	SPSR_fs, #67108864	; 0x4000000
     e70:	002ca000 	eoreq	sl, ip, r0
     e74:	9c010000 	stcls	0, cr0, [r1], {-0}
     e78:	000009a8 	andeq	r0, r0, r8, lsr #19
     e7c:	6c61760e 	stclvs	6, cr7, [r1], #-56	; 0xffffffc8
     e80:	33f40100 	mvnscc	r0, #0, 2
     e84:	02000000 	andeq	r0, r0, #0
     e88:	0b007491 	bleq	1e0d4 <load_address-0x9ffe1f2c>
     e8c:	0000047b 	andeq	r0, r0, fp, ror r4
     e90:	1398f801 	orrsne	pc, r8, #65536	; 0x10000
     e94:	0050a000 	subseq	sl, r0, r0
     e98:	9c010000 	stcls	0, cr0, [r1], {-0}
     e9c:	000009d9 	ldrdeq	r0, [r0], -r9
     ea0:	00706f0c 	rsbseq	r6, r0, ip, lsl #30
     ea4:	005af801 	subseq	pc, sl, r1, lsl #16
     ea8:	91020000 	mrsls	r0, (UNDEF: 2)
     eac:	61760e6f 	cmnvs	r6, pc, ror #28
     eb0:	f901006c 			; <UNDEFINED> instruction: 0xf901006c
     eb4:	00000033 	andeq	r0, r0, r3, lsr r0
     eb8:	00749102 	rsbseq	r9, r4, r2, lsl #2
     ebc:	0007f011 	andeq	pc, r7, r1, lsl r0	; <UNPREDICTABLE>
     ec0:	01000100 	mrseq	r0, (UNDEF: 16)
     ec4:	00000033 	andeq	r0, r0, r3, lsr r0
     ec8:	a00013e8 	andge	r1, r0, r8, ror #7
     ecc:	0000001c 	andeq	r0, r0, ip, lsl r0
     ed0:	3c129c01 	ldccc	12, cr9, [r2], {1}
     ed4:	01000007 	tsteq	r0, r7
     ed8:	14040103 	strne	r0, [r4], #-259	; 0x103
     edc:	0028a000 	eoreq	sl, r8, r0
     ee0:	9c010000 	stcls	0, cr0, [r1], {-0}
     ee4:	00000a15 	andeq	r0, r0, r5, lsl sl
     ee8:	6c617613 	stclvs	6, cr7, [r1], #-76	; 0xffffffb4
     eec:	01030100 	mrseq	r0, (UNDEF: 19)
     ef0:	00000033 	andeq	r0, r0, r3, lsr r0
     ef4:	00749102 	rsbseq	r9, r4, r2, lsl #2
     ef8:	00031c12 	andeq	r1, r3, r2, lsl ip
     efc:	01060100 	mrseq	r0, (UNDEF: 22)
     f00:	a000142c 	andge	r1, r0, ip, lsr #8
     f04:	00000024 	andeq	r0, r0, r4, lsr #32
     f08:	0a3b9c01 	beq	ee7f14 <load_address-0x9f1180ec>
     f0c:	76130000 	ldrvc	r0, [r3], -r0
     f10:	01006c61 	tsteq	r0, r1, ror #24
     f14:	00330106 	eorseq	r0, r3, r6, lsl #2
     f18:	91020000 	mrsls	r0, (UNDEF: 2)
     f1c:	f2110074 	vqadd.s16	q0, <illegal reg q0.5>, q10
     f20:	01000004 	tsteq	r0, r4
     f24:	0033010a 	eorseq	r0, r3, sl, lsl #2
     f28:	14500000 	ldrbne	r0, [r0], #-0
     f2c:	001ca000 	andseq	sl, ip, r0
     f30:	9c010000 	stcls	0, cr0, [r1], {-0}
     f34:	0006c912 	andeq	ip, r6, r2, lsl r9
     f38:	010d0100 	mrseq	r0, (UNDEF: 29)
     f3c:	a000146c 	andge	r1, r0, ip, ror #8
     f40:	00000028 	andeq	r0, r0, r8, lsr #32
     f44:	0a779c01 	beq	1de7f50 <load_address-0x9e2180b0>
     f48:	76130000 	ldrvc	r0, [r3], -r0
     f4c:	01006c61 	tsteq	r0, r1, ror #24
     f50:	0033010d 	eorseq	r0, r3, sp, lsl #2
     f54:	91020000 	mrsls	r0, (UNDEF: 2)
     f58:	94120074 	ldrls	r0, [r2], #-116	; 0x74
     f5c:	01000006 	tsteq	r0, r6
     f60:	14940110 	ldrne	r0, [r4], #272	; 0x110
     f64:	0024a000 	eoreq	sl, r4, r0
     f68:	9c010000 	stcls	0, cr0, [r1], {-0}
     f6c:	00000a9d 	muleq	r0, sp, sl
     f70:	6c617613 	stclvs	6, cr7, [r1], #-76	; 0xffffffb4
     f74:	01100100 	tsteq	r0, r0, lsl #2
     f78:	00000033 	andeq	r0, r0, r3, lsr r0
     f7c:	00749102 	rsbseq	r9, r4, r2, lsl #2
     f80:	00059611 	andeq	r9, r5, r1, lsl r6
     f84:	01140100 	tsteq	r4, r0, lsl #2
     f88:	00000033 	andeq	r0, r0, r3, lsr r0
     f8c:	a00014b8 			; <UNDEFINED> instruction: 0xa00014b8
     f90:	0000001c 	andeq	r0, r0, ip, lsl r0
     f94:	25149c01 	ldrcs	r9, [r4, #-3073]	; 0xc01
     f98:	01000005 	tsteq	r0, r5
     f9c:	00330117 	eorseq	r0, r3, r7, lsl r1
     fa0:	14d40000 	ldrbne	r0, [r4], #0
     fa4:	0044a000 	subeq	sl, r4, r0
     fa8:	9c010000 	stcls	0, cr0, [r1], {-0}
     fac:	00000aec 	andeq	r0, r0, ip, ror #21
     fb0:	00076a15 	andeq	r6, r7, r5, lsl sl
     fb4:	01170100 	tsteq	r7, r0, lsl #2
     fb8:	00000aec 	andeq	r0, r0, ip, ror #21
     fbc:	166c9102 	strbtne	r9, [ip], -r2, lsl #2
     fc0:	006c6176 	rsbeq	r6, ip, r6, ror r1
     fc4:	33011801 	movwcc	r1, #6145	; 0x1801
     fc8:	02000000 	andeq	r0, r0, #0
     fcc:	17007491 			; <UNDEFINED> instruction: 0x17007491
     fd0:	00004c04 	andeq	r4, r0, r4, lsl #24
     fd4:	06321200 	ldrteq	r1, [r2], -r0, lsl #4
     fd8:	1d010000 	stcne	0, cr0, [r1, #-0]
     fdc:	00151801 	andseq	r1, r5, r1, lsl #16
     fe0:	000028a0 	andeq	r2, r0, r0, lsr #17
     fe4:	189c0100 	ldmne	ip, {r8}
     fe8:	1300000b 	movwne	r0, #11
     fec:	006c6176 	rsbeq	r6, ip, r6, ror r1
     ff0:	33011d01 	movwcc	r1, #7425	; 0x1d01
     ff4:	02000000 	andeq	r0, r0, #0
     ff8:	12007491 	andne	r7, r0, #-1862270976	; 0x91000000
     ffc:	00000579 	andeq	r0, r0, r9, ror r5
    1000:	40012001 	andmi	r2, r1, r1
    1004:	50a00015 	adcpl	r0, r0, r5, lsl r0
    1008:	01000000 	mrseq	r0, (UNDEF: 0)
    100c:	000b5c9c 	muleq	fp, ip, ip
    1010:	72691300 	rsbvc	r1, r9, #0, 6
    1014:	20010071 	andcs	r0, r1, r1, ror r0
    1018:	00004c01 	andeq	r4, r0, r1, lsl #24
    101c:	6c910200 	lfmvs	f0, 4, [r1], {0}
    1020:	00076a15 	andeq	r6, r7, r5, lsl sl
    1024:	01200100 	teqeq	r0, r0, lsl #2
    1028:	0000004c 	andeq	r0, r0, ip, asr #32
    102c:	16689102 	strbtne	r9, [r8], -r2, lsl #2
    1030:	006c6176 	rsbeq	r6, ip, r6, ror r1
    1034:	33012101 	movwcc	r2, #4353	; 0x1101
    1038:	02000000 	andeq	r0, r0, #0
    103c:	11007491 			; <UNDEFINED> instruction: 0x11007491
    1040:	00000588 	andeq	r0, r0, r8, lsl #11
    1044:	33012601 	movwcc	r2, #5633	; 0x1601
    1048:	90000000 	andls	r0, r0, r0
    104c:	1ca00015 	stcne	0, cr0, [r0], #84	; 0x54
    1050:	01000000 	mrseq	r0, (UNDEF: 0)
    1054:	0337119c 	teqeq	r7, #156, 2	; 0x27
    1058:	29010000 	stmdbcs	r1, {}	; <UNPREDICTABLE>
    105c:	00003301 	andeq	r3, r0, r1, lsl #6
    1060:	0015ac00 	andseq	sl, r5, r0, lsl #24
    1064:	000018a0 	andeq	r1, r0, r0, lsr #17
    1068:	119c0100 	orrsne	r0, ip, r0, lsl #2
    106c:	000002d7 	ldrdeq	r0, [r0], -r7
    1070:	33012d01 	movwcc	r2, #7425	; 0x1d01
    1074:	c4000000 	strgt	r0, [r0], #-0
    1078:	1ca00015 	stcne	0, cr0, [r0], #84	; 0x54
    107c:	01000000 	mrseq	r0, (UNDEF: 0)
    1080:	0601149c 			; <UNDEFINED> instruction: 0x0601149c
    1084:	30010000 	andcc	r0, r1, r0
    1088:	00003301 	andeq	r3, r0, r1, lsl #6
    108c:	0015e000 	andseq	lr, r5, r0
    1090:	00003ca0 	andeq	r3, r0, r0, lsr #25
    1094:	d79c0100 	ldrle	r0, [ip, r0, lsl #2]
    1098:	1300000b 	movwne	r0, #11
    109c:	00757063 	rsbseq	r7, r5, r3, rrx
    10a0:	ec013001 	stc	0, cr3, [r1], {1}
    10a4:	0200000a 	andeq	r0, r0, #10
    10a8:	76166c91 			; <UNDEFINED> instruction: 0x76166c91
    10ac:	01006c61 	tsteq	r0, r1, ror #24
    10b0:	00330131 	eorseq	r0, r3, r1, lsr r1
    10b4:	91020000 	mrsls	r0, (UNDEF: 2)
    10b8:	a5120074 	ldrge	r0, [r2, #-116]	; 0x74
    10bc:	01000004 	tsteq	r0, r4
    10c0:	161c0135 			; <UNDEFINED> instruction: 0x161c0135
    10c4:	0040a000 	subeq	sl, r0, r0
    10c8:	9c010000 	stcls	0, cr0, [r1], {-0}
    10cc:	00000c0c 	andeq	r0, r0, ip, lsl #24
    10d0:	78646913 	stmdavc	r4!, {r0, r1, r4, r8, fp, sp, lr}^
    10d4:	01350100 	teqeq	r5, r0, lsl #2
    10d8:	0000004c 	andeq	r0, r0, ip, asr #32
    10dc:	13749102 	cmnne	r4, #-2147483648	; 0x80000000
    10e0:	006c6176 	rsbeq	r6, ip, r6, ror r1
    10e4:	33013501 	movwcc	r3, #5377	; 0x1501
    10e8:	02000000 	andeq	r0, r0, #0
    10ec:	14007091 	strne	r7, [r0], #-145	; 0x91
    10f0:	00000433 	andeq	r0, r0, r3, lsr r4
    10f4:	33013801 	movwcc	r3, #6145	; 0x1801
    10f8:	5c000000 	stcpl	0, cr0, [r0], {-0}
    10fc:	38a00016 	stmiacc	r0!, {r1, r2, r4}
    1100:	01000000 	mrseq	r0, (UNDEF: 0)
    1104:	000c369c 	muleq	ip, ip, r6
    1108:	64691300 	strbtvs	r1, [r9], #-768	; 0x300
    110c:	38010078 	stmdacc	r1, {r3, r4, r5, r6}
    1110:	00004c01 	andeq	r4, r0, r1, lsl #24
    1114:	74910200 	ldrvc	r0, [r1], #512	; 0x200
    1118:	06831200 	streq	r1, [r3], r0, lsl #4
    111c:	3c010000 	stccc	0, cr0, [r1], {-0}
    1120:	00169401 	andseq	r9, r6, r1, lsl #8
    1124:	000040a0 	andeq	r4, r0, r0, lsr #1
    1128:	6b9c0100 	blvs	fe701530 <stack_irq+0x5dee47d8>
    112c:	1300000c 	movwne	r0, #12
    1130:	00786469 	rsbseq	r6, r8, r9, ror #8
    1134:	4c013c01 	stcmi	12, cr3, [r1], {1}
    1138:	02000000 	andeq	r0, r0, #0
    113c:	76137491 			; <UNDEFINED> instruction: 0x76137491
    1140:	01006c61 	tsteq	r0, r1, ror #24
    1144:	0033013c 	eorseq	r0, r3, ip, lsr r1
    1148:	91020000 	mrsls	r0, (UNDEF: 2)
    114c:	67140070 			; <UNDEFINED> instruction: 0x67140070
    1150:	01000003 	tsteq	r0, r3
    1154:	0033013f 	eorseq	r0, r3, pc, lsr r1
    1158:	16d40000 	ldrbne	r0, [r4], r0
    115c:	0038a000 	eorseq	sl, r8, r0
    1160:	9c010000 	stcls	0, cr0, [r1], {-0}
    1164:	00000c95 	muleq	r0, r5, ip
    1168:	78646913 	stmdavc	r4!, {r0, r1, r4, r8, fp, sp, lr}^
    116c:	013f0100 	teqeq	pc, r0, lsl #2
    1170:	0000004c 	andeq	r0, r0, ip, asr #32
    1174:	00749102 	rsbseq	r9, r4, r2, lsl #2
    1178:	00070711 	andeq	r0, r7, r1, lsl r7
    117c:	01430100 	mrseq	r0, (UNDEF: 83)
    1180:	00000033 	andeq	r0, r0, r3, lsr r0
    1184:	a000170c 	andge	r1, r0, ip, lsl #14
    1188:	0000001c 	andeq	r0, r0, ip, lsl r0
    118c:	a4129c01 	ldrge	r9, [r2], #-3073	; 0xc01
    1190:	01000007 	tsteq	r0, r7
    1194:	17280147 	strne	r0, [r8, -r7, asr #2]!
    1198:	0028a000 	eoreq	sl, r8, r0
    119c:	9c010000 	stcls	0, cr0, [r1], {-0}
    11a0:	00000cd1 	ldrdeq	r0, [r0], -r1
    11a4:	6c617613 	stclvs	6, cr7, [r1], #-76	; 0xffffffb4
    11a8:	01470100 	mrseq	r0, (UNDEF: 87)
    11ac:	00000033 	andeq	r0, r0, r3, lsr r0
    11b0:	00749102 	rsbseq	r9, r4, r2, lsl #2
    11b4:	0005a418 	andeq	sl, r5, r8, lsl r4
    11b8:	014a0100 	mrseq	r0, (UNDEF: 90)
    11bc:	a0001750 	andge	r1, r0, r0, asr r7
    11c0:	00000050 	andeq	r0, r0, r0, asr r0
    11c4:	69139c01 	ldmdbvs	r3, {r0, sl, fp, ip, pc}
    11c8:	01007172 	tsteq	r0, r2, ror r1
    11cc:	004c014a 	subeq	r0, ip, sl, asr #2
    11d0:	91020000 	mrsls	r0, (UNDEF: 2)
    11d4:	076a156c 	strbeq	r1, [sl, -ip, ror #10]!
    11d8:	4a010000 	bmi	411e0 <load_address-0x9ffbee20>
    11dc:	00004c01 	andeq	r4, r0, r1, lsl #24
    11e0:	68910200 	ldmvs	r1, {r9}
    11e4:	6c617616 	stclvs	6, cr7, [r1], #-88	; 0xffffffa8
    11e8:	014b0100 	mrseq	r0, (UNDEF: 91)
    11ec:	00000033 	andeq	r0, r0, r3, lsr r0
    11f0:	00749102 	rsbseq	r9, r4, r2, lsl #2
    11f4:	00031a00 	andeq	r1, r3, r0, lsl #20
    11f8:	a6000400 	strge	r0, [r0], -r0, lsl #8
    11fc:	04000003 	streq	r0, [r0], #-3
    1200:	00015b01 	andeq	r5, r1, r1, lsl #22
    1204:	089a0100 	ldmeq	sl, {r8}
    1208:	00a30000 	adceq	r0, r3, r0
    120c:	17a00000 	strne	r0, [r0, r0]!
    1210:	02f8a000 	rscseq	sl, r8, #0
    1214:	02fa0000 	rscseq	r0, sl, #0
    1218:	01020000 	mrseq	r0, (UNDEF: 2)
    121c:	00013608 	andeq	r3, r1, r8, lsl #12
    1220:	07020200 	streq	r0, [r2, -r0, lsl #4]
    1224:	000001be 			; <UNDEFINED> instruction: 0x000001be
    1228:	32337503 	eorscc	r7, r3, #12582912	; 0xc00000
    122c:	3e060300 	cdpcc	3, 0, cr0, cr6, cr0, {0}
    1230:	02000000 	andeq	r0, r0, #0
    1234:	014e0704 	cmpeq	lr, r4, lsl #14
    1238:	75030000 	strvc	r0, [r3, #-0]
    123c:	03003436 	movweq	r3, #1078	; 0x436
    1240:	00005007 	andeq	r5, r0, r7
    1244:	07080200 	streq	r0, [r8, -r0, lsl #4]
    1248:	00000144 	andeq	r0, r0, r4, asr #2
    124c:	69050404 	stmdbvs	r5, {r2, sl}
    1250:	0200746e 	andeq	r7, r0, #1845493760	; 0x6e000000
    1254:	00950508 	addseq	r0, r5, r8, lsl #10
    1258:	19050000 	stmdbne	r5, {}	; <UNPREDICTABLE>
    125c:	01000009 	tsteq	r0, r9
    1260:	00003309 	andeq	r3, r0, r9, lsl #6
    1264:	0017a000 	andseq	sl, r7, r0
    1268:	00001ca0 	andeq	r1, r0, r0, lsr #25
    126c:	8d9c0100 	ldfhis	f0, [ip]
    1270:	06000000 	streq	r0, [r0], -r0
    1274:	006c6176 	rsbeq	r6, ip, r6, ror r1
    1278:	00330901 	eorseq	r0, r3, r1, lsl #18
    127c:	91020000 	mrsls	r0, (UNDEF: 2)
    1280:	4205007c 	andmi	r0, r5, #124	; 0x7c
    1284:	01000008 	tsteq	r0, r8
    1288:	0000450c 	andeq	r4, r0, ip, lsl #10
    128c:	0017bc00 	andseq	fp, r7, r0, lsl #24
    1290:	000050a0 	andeq	r5, r0, r0, lsr #1
    1294:	c39c0100 	orrsgt	r0, ip, #0, 2
    1298:	07000000 	streq	r0, [r0, -r0]
    129c:	0000084d 	andeq	r0, r0, sp, asr #16
    12a0:	00330c01 	eorseq	r0, r3, r1, lsl #24
    12a4:	91020000 	mrsls	r0, (UNDEF: 2)
    12a8:	09240774 	stmdbeq	r4!, {r2, r4, r5, r6, r8, r9, sl}
    12ac:	0c010000 	stceq	0, cr0, [r1], {-0}
    12b0:	00000033 	andeq	r0, r0, r3, lsr r0
    12b4:	00709102 	rsbseq	r9, r0, r2, lsl #2
    12b8:	00081d05 	andeq	r1, r8, r5, lsl #26
    12bc:	331a0100 	tstcc	sl, #0, 2
    12c0:	0c000000 	stceq	0, cr0, [r0], {-0}
    12c4:	1ca00018 	stcne	0, cr0, [r0], #96	; 0x60
    12c8:	01000000 	mrseq	r0, (UNDEF: 0)
    12cc:	0000eb9c 	muleq	r0, ip, fp
    12d0:	61760600 	cmnvs	r6, r0, lsl #12
    12d4:	1a01006c 	bne	4148c <load_address-0x9ffbeb74>
    12d8:	00000033 	andeq	r0, r0, r3, lsr r0
    12dc:	007c9102 	rsbseq	r9, ip, r2, lsl #2
    12e0:	00095708 	andeq	r5, r9, r8, lsl #14
    12e4:	281b0100 	ldmdacs	fp, {r8}
    12e8:	18a00018 	stmiane	r0!, {r3, r4}
    12ec:	01000000 	mrseq	r0, (UNDEF: 0)
    12f0:	00010f9c 	muleq	r1, ip, pc	; <UNPREDICTABLE>
    12f4:	61760900 	cmnvs	r6, r0, lsl #18
    12f8:	1b01006c 	blne	414b0 <load_address-0x9ffbeb50>
    12fc:	00000033 	andeq	r0, r0, r3, lsr r0
    1300:	007c9102 	rsbseq	r9, ip, r2, lsl #2
    1304:	00081a05 	andeq	r1, r8, r5, lsl #20
    1308:	331c0100 	tstcc	ip, #0, 2
    130c:	40000000 	andmi	r0, r0, r0
    1310:	1ca00018 	stcne	0, cr0, [r0], #96	; 0x60
    1314:	01000000 	mrseq	r0, (UNDEF: 0)
    1318:	0001379c 	muleq	r1, ip, r7
    131c:	61760600 	cmnvs	r6, r0, lsl #12
    1320:	1c01006c 	stcne	0, cr0, [r1], {108}	; 0x6c
    1324:	00000033 	andeq	r0, r0, r3, lsr r0
    1328:	007c9102 	rsbseq	r9, ip, r2, lsl #2
    132c:	00095408 	andeq	r5, r9, r8, lsl #8
    1330:	5c1d0100 	ldfpls	f0, [sp], {-0}
    1334:	18a00018 	stmiane	r0!, {r3, r4}
    1338:	01000000 	mrseq	r0, (UNDEF: 0)
    133c:	00015b9c 	muleq	r1, ip, fp
    1340:	61760900 	cmnvs	r6, r0, lsl #18
    1344:	1d01006c 	stcne	0, cr0, [r1, #-432]	; 0xfffffe50
    1348:	00000033 	andeq	r0, r0, r3, lsr r0
    134c:	007c9102 	rsbseq	r9, ip, r2, lsl #2
    1350:	00088f05 	andeq	r8, r8, r5, lsl #30
    1354:	451f0100 	ldrmi	r0, [pc, #-256]	; 125c <load_address-0x9fffeda4>
    1358:	74000000 	strvc	r0, [r0], #-0
    135c:	50a00018 	adcpl	r0, r0, r8, lsl r0
    1360:	01000000 	mrseq	r0, (UNDEF: 0)
    1364:	0001919c 	muleq	r1, ip, r1
    1368:	084d0700 	stmdaeq	sp, {r8, r9, sl}^
    136c:	1f010000 	svcne	0x00010000
    1370:	00000033 	andeq	r0, r0, r3, lsr r0
    1374:	07749102 	ldrbeq	r9, [r4, -r2, lsl #2]!
    1378:	00000924 	andeq	r0, r0, r4, lsr #18
    137c:	00331f01 	eorseq	r1, r3, r1, lsl #30
    1380:	91020000 	mrsls	r0, (UNDEF: 2)
    1384:	81080070 	tsthi	r8, r0, ror r0
    1388:	01000008 	tsteq	r0, r8
    138c:	0018c425 	andseq	ip, r8, r5, lsr #8
    1390:	00003ca0 	andeq	r3, r0, r0, lsr #25
    1394:	b59c0100 	ldrlt	r0, [ip, #256]	; 0x100
    1398:	09000001 	stmdbeq	r0, {r0}
    139c:	006c6176 	rsbeq	r6, ip, r6, ror r1
    13a0:	00452501 	subeq	r2, r5, r1, lsl #10
    13a4:	91020000 	mrsls	r0, (UNDEF: 2)
    13a8:	10050070 	andne	r0, r5, r0, ror r0
    13ac:	01000008 	tsteq	r0, r8
    13b0:	00003327 	andeq	r3, r0, r7, lsr #6
    13b4:	00190000 	andseq	r0, r9, r0
    13b8:	00001ca0 	andeq	r1, r0, r0, lsr #25
    13bc:	dd9c0100 	ldfles	f0, [ip]
    13c0:	06000001 	streq	r0, [r0], -r1
    13c4:	006c6176 	rsbeq	r6, ip, r6, ror r1
    13c8:	00332701 	eorseq	r2, r3, r1, lsl #14
    13cc:	91020000 	mrsls	r0, (UNDEF: 2)
    13d0:	290a007c 	stmdbcs	sl, {r2, r3, r4, r5, r6}
    13d4:	02000009 	andeq	r0, r0, #9
    13d8:	00005703 	andeq	r5, r0, r3, lsl #14
    13dc:	00191c00 	andseq	r1, r9, r0, lsl #24
    13e0:	000018a0 	andeq	r1, r0, r0, lsr #17
    13e4:	0b9c0100 	bleq	fe7017ec <stack_irq+0x5dee4a94>
    13e8:	000007fe 	strdeq	r0, [r0], -lr
    13ec:	00330802 	eorseq	r0, r3, r2, lsl #16
    13f0:	19340000 	ldmdbne	r4!, {}	; <UNPREDICTABLE>
    13f4:	0014a000 	andseq	sl, r4, r0
    13f8:	9c010000 	stcls	0, cr0, [r1], {-0}
    13fc:	0009640a 	andeq	r6, r9, sl, lsl #8
    1400:	450c0200 	strmi	r0, [ip, #-512]	; 0x200
    1404:	48000000 	stmdami	r0, {}	; <UNPREDICTABLE>
    1408:	1ca00019 	stcne	0, cr0, [r0], #100	; 0x64
    140c:	01000000 	mrseq	r0, (UNDEF: 0)
    1410:	08520a9c 	ldmdaeq	r2, {r2, r3, r4, r7, r9, fp}^
    1414:	10020000 	andne	r0, r2, r0
    1418:	00000045 	andeq	r0, r0, r5, asr #32
    141c:	a0001964 	andge	r1, r0, r4, ror #18
    1420:	0000001c 	andeq	r0, r0, ip, lsl r0
    1424:	680c9c01 	stmdavs	ip, {r0, sl, fp, ip, pc}
    1428:	02000008 	andeq	r0, r0, #8
    142c:	00198014 	andseq	r8, r9, r4, lsl r0
    1430:	00002ca0 	andeq	r2, r0, r0, lsr #25
    1434:	559c0100 	ldrpl	r0, [ip, #256]	; 0x100
    1438:	06000002 	streq	r0, [r0], -r2
    143c:	006c6176 	rsbeq	r6, ip, r6, ror r1
    1440:	00331502 	eorseq	r1, r3, r2, lsl #10
    1444:	91020000 	mrsls	r0, (UNDEF: 2)
    1448:	010c0074 	tsteq	ip, r4, ror r0
    144c:	02000009 	andeq	r0, r0, #9
    1450:	0019ac1a 	andseq	sl, r9, sl, lsl ip
    1454:	00002ca0 	andeq	r2, r0, r0, lsr #25
    1458:	799c0100 	ldmibvc	ip, {r8}
    145c:	06000002 	streq	r0, [r0], -r2
    1460:	006c6176 	rsbeq	r6, ip, r6, ror r1
    1464:	00331b02 	eorseq	r1, r3, r2, lsl #22
    1468:	91020000 	mrsls	r0, (UNDEF: 2)
    146c:	330a0074 	movwcc	r0, #41076	; 0xa074
    1470:	02000009 	andeq	r0, r0, #9
    1474:	00005721 	andeq	r5, r0, r1, lsr #14
    1478:	0019d800 	andseq	sp, r9, r0, lsl #16
    147c:	00001ca0 	andeq	r1, r0, r0, lsr #25
    1480:	0c9c0100 	ldfeqs	f0, [ip], {0}
    1484:	000008eb 	andeq	r0, r0, fp, ror #17
    1488:	19f42502 	ldmibne	r4!, {r1, r8, sl, sp}^
    148c:	002ca000 	eoreq	sl, ip, r0
    1490:	9c010000 	stcls	0, cr0, [r1], {-0}
    1494:	000002b2 			; <UNDEFINED> instruction: 0x000002b2
    1498:	6c617606 	stclvs	6, cr7, [r1], #-24	; 0xffffffe8
    149c:	33260200 	teqcc	r6, #0, 4
    14a0:	02000000 	andeq	r0, r0, #0
    14a4:	0c007491 	cfstrseq	mvf7, [r0], {145}	; 0x91
    14a8:	0000082a 	andeq	r0, r0, sl, lsr #16
    14ac:	1a202b02 	bne	80c0bc <load_address-0x9f7f3f44>
    14b0:	002ca000 	eoreq	sl, ip, r0
    14b4:	9c010000 	stcls	0, cr0, [r1], {-0}
    14b8:	000002d6 	ldrdeq	r0, [r0], -r6
    14bc:	6c617606 	stclvs	6, cr7, [r1], #-24	; 0xffffffe8
    14c0:	332c0200 	teqcc	ip, #0, 4
    14c4:	02000000 	andeq	r0, r0, #0
    14c8:	0c007491 	cfstrseq	mvf7, [r0], {145}	; 0x91
    14cc:	000008bd 			; <UNDEFINED> instruction: 0x000008bd
    14d0:	1a4c3202 	bne	130dce0 <load_address-0x9ecf2320>
    14d4:	0038a000 	eorseq	sl, r8, r0
    14d8:	9c010000 	stcls	0, cr0, [r1], {-0}
    14dc:	00000308 	andeq	r0, r0, r8, lsl #6
    14e0:	0008d20d 	andeq	sp, r8, sp, lsl #4
    14e4:	45320200 	ldrmi	r0, [r2, #-512]!	; 0x200
    14e8:	02000000 	andeq	r0, r0, #0
    14ec:	a8076891 	stmdage	r7, {r0, r4, r7, fp, sp, lr}
    14f0:	02000008 	andeq	r0, r0, #8
    14f4:	00004533 	andeq	r4, r0, r3, lsr r5
    14f8:	70910200 	addsvc	r0, r1, r0, lsl #4
    14fc:	08db0a00 	ldmeq	fp, {r9, fp}^
    1500:	37020000 	strcc	r0, [r2, -r0]
    1504:	00000033 	andeq	r0, r0, r3, lsr r0
    1508:	a0001a84 	andge	r1, r0, r4, lsl #21
    150c:	00000014 	andeq	r0, r0, r4, lsl r0
    1510:	cb009c01 	blgt	2851c <load_address-0x9ffd7ae4>
    1514:	04000001 	streq	r0, [r0], #-1
    1518:	00049500 	andeq	r9, r4, r0, lsl #10
    151c:	5b010400 	blpl	42524 <load_address-0x9ffbdadc>
    1520:	01000001 	tsteq	r0, r1
    1524:	000009c9 	andeq	r0, r0, r9, asr #19
    1528:	000000a3 	andeq	r0, r0, r3, lsr #1
    152c:	a0001a98 	mulge	r0, r8, sl
    1530:	000001bc 			; <UNDEFINED> instruction: 0x000001bc
    1534:	0000039e 	muleq	r0, lr, r3
    1538:	0a011002 	beq	45548 <load_address-0x9ffbaab8>
    153c:	0000005e 	andeq	r0, r0, lr, asr r0
    1540:	0009c403 	andeq	ip, r9, r3, lsl #8
    1544:	5e0b0100 	adfple	f0, f3, f0
    1548:	00000000 	andeq	r0, r0, r0
    154c:	0009ba03 	andeq	fp, r9, r3, lsl #20
    1550:	5e0c0100 	adfple	f0, f4, f0
    1554:	04000000 	streq	r0, [r0], #-0
    1558:	0009b003 	andeq	fp, r9, r3
    155c:	5e0d0100 	adfple	f0, f5, f0
    1560:	08000000 	stmdaeq	r0, {}	; <UNPREDICTABLE>
    1564:	74696204 	strbtvc	r6, [r9], #-516	; 0x204
    1568:	5e0e0100 	adfple	f0, f6, f0
    156c:	0c000000 	stceq	0, cr0, [r0], {-0}
    1570:	07040500 	streq	r0, [r4, -r0, lsl #10]
    1574:	0000014e 	andeq	r0, r0, lr, asr #2
    1578:	000a0c06 	andeq	r0, sl, r6, lsl #24
    157c:	8c2e0100 	stfhis	f0, [lr], #-0
    1580:	98000000 	stmdals	r0, {}	; <UNPREDICTABLE>
    1584:	18a0001a 	stmiane	r0!, {r1, r3, r4}
    1588:	01000000 	mrseq	r0, (UNDEF: 0)
    158c:	00008c9c 	muleq	r0, ip, ip
    1590:	706f0700 	rsbvc	r0, pc, r0, lsl #14
    1594:	8c2e0100 	stfhis	f0, [lr], #-0
    1598:	02000000 	andeq	r0, r0, #0
    159c:	08007c91 	stmdaeq	r0, {r0, r4, r7, sl, fp, ip, sp, lr}
    15a0:	6e690504 	cdpvs	5, 6, cr0, cr9, cr4, {0}
    15a4:	79090074 	stmdbvc	r9, {r2, r4, r5, r6}
    15a8:	01000009 	tsteq	r0, r9
    15ac:	001ab045 	andseq	fp, sl, r5, asr #32
    15b0:	000098a0 	andeq	r9, r0, r0, lsr #17
    15b4:	b59c0100 	ldrlt	r0, [ip, #256]	; 0x100
    15b8:	07000000 	streq	r0, [r0, -r0]
    15bc:	45010063 	strmi	r0, [r1, #-99]	; 0x63
    15c0:	000000b5 	strheq	r0, [r0], -r5
    15c4:	007f9102 	rsbseq	r9, pc, r2, lsl #2
    15c8:	3f080105 	svccc	0x00080105
    15cc:	0a000001 	beq	15d8 <load_address-0x9fffea28>
    15d0:	00000986 	andeq	r0, r0, r6, lsl #19
    15d4:	1b485001 	blne	12155e0 <load_address-0x9edeaa20>
    15d8:	0038a000 	eorseq	sl, r8, r0
    15dc:	9c010000 	stcls	0, cr0, [r1], {-0}
    15e0:	000000de 	ldrdeq	r0, [r0], -lr
    15e4:	01006307 	tsteq	r0, r7, lsl #6
    15e8:	0000de50 	andeq	sp, r0, r0, asr lr
    15ec:	77910200 	ldrvc	r0, [r1, r0, lsl #4]
    15f0:	00b50b00 	adcseq	r0, r5, r0, lsl #22
    15f4:	da0c0000 	ble	3015fc <load_address-0x9fcfea04>
    15f8:	01000009 	tsteq	r0, r9
    15fc:	00008c57 	andeq	r8, r0, r7, asr ip
    1600:	001b8000 	andseq	r8, fp, r0
    1604:	000060a0 	andeq	r6, r0, r0, lsr #1
    1608:	269c0100 	ldrcs	r0, [ip], r0, lsl #2
    160c:	07000001 	streq	r0, [r0, -r1]
    1610:	00727473 	rsbseq	r7, r2, r3, ror r4
    1614:	01265701 	teqeq	r6, r1, lsl #14
    1618:	91020000 	mrsls	r0, (UNDEF: 2)
    161c:	0a070d6c 	beq	1c4bd4 <load_address-0x9fe3b42c>
    1620:	57010000 	strpl	r0, [r1, -r0]
    1624:	0000008c 	andeq	r0, r0, ip, lsl #1
    1628:	0e689102 	lgneqe	f1, f2
    162c:	0100706c 	tsteq	r0, ip, rrx
    1630:	00008c59 	andeq	r8, r0, r9, asr ip
    1634:	74910200 	ldrvc	r0, [r1], #512	; 0x200
    1638:	b5040f00 	strlt	r0, [r4, #-3840]	; 0xf00
    163c:	0c000000 	stceq	0, cr0, [r0], {-0}
    1640:	000009f1 	strdeq	r0, [r0], -r1
    1644:	008c6101 	addeq	r6, ip, r1, lsl #2
    1648:	1be00000 	blne	ff801650 <stack_irq+0x5efe48f8>
    164c:	0060a000 	rsbeq	sl, r0, r0
    1650:	9c010000 	stcls	0, cr0, [r1], {-0}
    1654:	0000016f 	andeq	r0, r0, pc, ror #2
    1658:	72747307 	rsbsvc	r7, r4, #469762048	; 0x1c000000
    165c:	26610100 	strbtcs	r0, [r1], -r0, lsl #2
    1660:	02000001 	andeq	r0, r0, #1
    1664:	070d6c91 			; <UNDEFINED> instruction: 0x070d6c91
    1668:	0100000a 	tsteq	r0, sl
    166c:	00008c61 	andeq	r8, r0, r1, ror #24
    1670:	68910200 	ldmvs	r1, {r9}
    1674:	00706c0e 	rsbseq	r6, r0, lr, lsl #24
    1678:	008c6301 	addeq	r6, ip, r1, lsl #6
    167c:	91020000 	mrsls	r0, (UNDEF: 2)
    1680:	a3100074 	tstge	r0, #116	; 0x74
    1684:	01000009 	tsteq	r0, r9
    1688:	0000b57a 	andeq	fp, r0, sl, ror r5
    168c:	001c4000 	andseq	r4, ip, r0
    1690:	00000ca0 	andeq	r0, r0, r0, lsr #25
    1694:	119c0100 	orrsne	r0, ip, r0, lsl #2
    1698:	000009e7 	andeq	r0, r0, r7, ror #19
    169c:	1c4c7f01 	mcrrne	15, 0, r7, ip, cr1
    16a0:	0008a000 	andeq	sl, r8, r0
    16a4:	9c010000 	stcls	0, cr0, [r1], {-0}
    16a8:	00099d12 	andeq	r9, r9, r2, lsl sp
    16ac:	a60f0100 	strge	r0, [pc], -r0, lsl #2
    16b0:	05000001 	streq	r0, [r0, #-1]
    16b4:	00955803 	addseq	r5, r5, r3, lsl #16
    16b8:	00250ba0 	eoreq	r0, r5, r0, lsr #23
    16bc:	1d130000 	ldcne	0, cr0, [r3, #-0]
    16c0:	0100000a 	tsteq	r0, sl
    16c4:	0001bc17 	andeq	fp, r1, r7, lsl ip
    16c8:	50030500 	andpl	r0, r3, r0, lsl #10
    16cc:	0fa080ad 	svceq	0x00a080ad
    16d0:	0001c204 	andeq	ip, r1, r4, lsl #4
    16d4:	01c71400 	biceq	r1, r7, r0, lsl #8
    16d8:	01050000 	mrseq	r0, (UNDEF: 5)
    16dc:	00013608 	andeq	r3, r1, r8, lsl #12
    16e0:	02d50000 	sbcseq	r0, r5, #0
    16e4:	00040000 	andeq	r0, r4, r0
    16e8:	000005e6 	andeq	r0, r0, r6, ror #11
    16ec:	015b0104 	cmpeq	fp, r4, lsl #2
    16f0:	43010000 	movwmi	r0, #4096	; 0x1000
    16f4:	a300000a 	movwge	r0, #10
    16f8:	54000000 	strpl	r0, [r0], #-0
    16fc:	20a0001c 	adccs	r0, r0, ip, lsl r0
    1700:	2b000004 	blcs	1718 <load_address-0x9fffe8e8>
    1704:	02000004 	andeq	r0, r0, #4
    1708:	00000221 	andeq	r0, r0, r1, lsr #4
    170c:	18020100 	stmdane	r2, {r8}
    1710:	000000f1 	strdeq	r0, [r0], -r1
    1714:	666e6303 	strbtvs	r6, [lr], -r3, lsl #6
    1718:	f11a0200 			; <UNDEFINED> instruction: 0xf11a0200
    171c:	00000000 	andeq	r0, r0, r0
    1720:	00656f03 	rsbeq	r6, r5, r3, lsl #30
    1724:	00f11b02 	rscseq	r1, r1, r2, lsl #22
    1728:	03100000 	tsteq	r0, #0
    172c:	0074756f 	rsbseq	r7, r4, pc, ror #10
    1730:	00f11c02 	rscseq	r1, r1, r2, lsl #24
    1734:	03200000 	teqeq	r0, #0
    1738:	02006e69 	andeq	r6, r0, #1680	; 0x690
    173c:	0000f11d 	andeq	pc, r0, sp, lsl r1	; <UNPREDICTABLE>
    1740:	f4043000 	vst4.8	{d3-d6}, [r4], r0
    1744:	02000000 	andeq	r0, r0, #0
    1748:	0000f11e 	andeq	pc, r0, lr, lsl r1	; <UNPREDICTABLE>
    174c:	7c044000 	stcvc	0, cr4, [r4], {-0}
    1750:	02000000 	andeq	r0, r0, #0
    1754:	0000f11f 	andeq	pc, r0, pc, lsl r1	; <UNPREDICTABLE>
    1758:	0e045000 	cdpeq	0, 0, cr5, cr4, cr0, {0}
    175c:	02000002 	andeq	r0, r0, #2
    1760:	0000f120 	andeq	pc, r0, r0, lsr #2
    1764:	3c046000 	stccc	0, cr6, [r4], {-0}
    1768:	02000002 	andeq	r0, r0, #2
    176c:	0000f121 	andeq	pc, r0, r1, lsr #2
    1770:	2b047000 	blcs	11d778 <load_address-0x9fee2888>
    1774:	02000002 	andeq	r0, r0, #2
    1778:	0000f123 	andeq	pc, r0, r3, lsr #2
    177c:	d7048000 	strle	r8, [r4, -r0]
    1780:	02000001 	andeq	r0, r0, #1
    1784:	0000f124 	andeq	pc, r0, r4, lsr #2
    1788:	e8049000 	stmda	r4, {ip, pc}
    178c:	02000000 	andeq	r0, r0, #0
    1790:	0000f125 	andeq	pc, r0, r5, lsr #2
    1794:	7504a000 	strvc	sl, [r4, #-0]
    1798:	02000002 	andeq	r0, r0, #2
    179c:	0000f126 	andeq	pc, r0, r6, lsr #2
    17a0:	f004b000 			; <UNDEFINED> instruction: 0xf004b000
    17a4:	02000000 	andeq	r0, r0, #0
    17a8:	0000f127 	andeq	pc, r0, r7, lsr #2
    17ac:	7804c000 	stmdavc	r4, {lr, pc}
    17b0:	02000000 	andeq	r0, r0, #0
    17b4:	0000f128 	andeq	pc, r0, r8, lsr #2
    17b8:	0a04d000 	beq	1357c0 <load_address-0x9feca840>
    17bc:	02000002 	andeq	r0, r0, #2
    17c0:	0000f129 	andeq	pc, r0, r9, lsr #2
    17c4:	7a04e000 	bvc	1397cc <load_address-0x9fec6834>
    17c8:	02000002 	andeq	r0, r0, #2
    17cc:	0000f12a 	andeq	pc, r0, sl, lsr #2
    17d0:	0500f000 	streq	pc, [r0, #-0]
    17d4:	00000108 	andeq	r0, r0, r8, lsl #2
    17d8:	00000101 	andeq	r0, r0, r1, lsl #2
    17dc:	00010106 	andeq	r0, r1, r6, lsl #2
    17e0:	07000300 	streq	r0, [r0, -r0, lsl #6]
    17e4:	02540704 	subseq	r0, r4, #4, 14	; 0x100000
    17e8:	04070000 	streq	r0, [r7], #-0
    17ec:	00014e07 	andeq	r4, r1, r7, lsl #28
    17f0:	0a360800 	beq	d837f8 <load_address-0x9f27c808>
    17f4:	0f010000 	svceq	0x00010000
    17f8:	a0001c54 	andge	r1, r0, r4, asr ip
    17fc:	000000d4 	ldrdeq	r0, [r0], -r4
    1800:	016b9c01 	cmneq	fp, r1, lsl #24
    1804:	26090000 	strcs	r0, [r9], -r0
    1808:	01000002 	tsteq	r0, r2
    180c:	00016b0f 	andeq	r6, r1, pc, lsl #22
    1810:	6c910200 	lfmvs	f0, 4, [r1], {0}
    1814:	0001e809 	andeq	lr, r1, r9, lsl #16
    1818:	710f0100 	mrsvc	r0, (UNDEF: 31)
    181c:	02000001 	andeq	r0, r0, #1
    1820:	700a6891 	mulvc	sl, r1, r8
    1824:	01006e69 	tsteq	r0, r9, ror #28
    1828:	0001710f 	andeq	r7, r1, pc, lsl #2
    182c:	64910200 	ldrvs	r0, [r1], #512	; 0x200
    1830:	6766630a 	strbvs	r6, [r6, -sl, lsl #6]!
    1834:	710f0100 	mrsvc	r0, (UNDEF: 31)
    1838:	02000001 	andeq	r0, r0, #1
    183c:	5b0b6091 	blpl	2d9a88 <load_address-0x9fd26578>
    1840:	0100000a 	tsteq	r0, sl
    1844:	00010811 	andeq	r0, r1, r1, lsl r8
    1848:	74910200 	ldrvc	r0, [r1], #512	; 0x200
    184c:	25040c00 	strcs	r0, [r4, #-3072]	; 0xc00
    1850:	0d000000 	stceq	0, cr0, [r0, #-0]
    1854:	6e690504 	cdpvs	5, 6, cr0, cr9, cr4, {0}
    1858:	290e0074 	stmdbcs	lr, {r2, r4, r5, r6}
    185c:	0100000a 	tsteq	r0, sl
    1860:	001d2821 	andseq	r2, sp, r1, lsr #16
    1864:	000148a0 	andeq	r4, r1, r0, lsr #17
    1868:	d49c0100 	ldrle	r0, [ip], #256	; 0x100
    186c:	09000001 	stmdbeq	r0, {r0}
    1870:	00000226 	andeq	r0, r0, r6, lsr #4
    1874:	016b2101 	cmneq	fp, r1, lsl #2
    1878:	91020000 	mrsls	r0, (UNDEF: 2)
    187c:	01e80974 	mvneq	r0, r4, ror r9
    1880:	21010000 	mrscs	r0, (UNDEF: 1)
    1884:	00000171 	andeq	r0, r0, r1, ror r1
    1888:	0a709102 	beq	1c25c98 <load_address-0x9e3da368>
    188c:	006e6970 	rsbeq	r6, lr, r0, ror r9
    1890:	01712101 	cmneq	r1, r1, lsl #2
    1894:	91020000 	mrsls	r0, (UNDEF: 2)
    1898:	66630a6c 	strbtvs	r0, [r3], -ip, ror #20
    189c:	21010067 	tstcs	r1, r7, rrx
    18a0:	00000171 	andeq	r0, r0, r1, ror r1
    18a4:	0b689102 	bleq	1a25cb4 <load_address-0x9e5da34c>
    18a8:	00000a5b 	andeq	r0, r0, fp, asr sl
    18ac:	01082301 	tsteq	r8, r1, lsl #6
    18b0:	91020000 	mrsls	r0, (UNDEF: 2)
    18b4:	650e007c 	strvs	r0, [lr, #-124]	; 0x7c
    18b8:	0100000a 	tsteq	r0, sl
    18bc:	001e7035 	andseq	r7, lr, r5, lsr r0
    18c0:	00008ca0 	andeq	r8, r0, r0, lsr #25
    18c4:	2f9c0100 	svccs	0x009c0100
    18c8:	09000002 	stmdbeq	r0, {r1}
    18cc:	00000226 	andeq	r0, r0, r6, lsr #4
    18d0:	016b3501 	cmneq	fp, r1, lsl #10
    18d4:	91020000 	mrsls	r0, (UNDEF: 2)
    18d8:	01e80974 	mvneq	r0, r4, ror r9
    18dc:	35010000 	strcc	r0, [r1, #-0]
    18e0:	00000171 	andeq	r0, r0, r1, ror r1
    18e4:	0a709102 	beq	1c25cf4 <load_address-0x9e3da30c>
    18e8:	006e6970 	rsbeq	r6, lr, r0, ror r9
    18ec:	01713501 	cmneq	r1, r1, lsl #10
    18f0:	91020000 	mrsls	r0, (UNDEF: 2)
    18f4:	6e650a6c 	vnmulvs.f32	s1, s10, s25
    18f8:	71350100 	teqvc	r5, r0, lsl #2
    18fc:	02000001 	andeq	r0, r0, #1
    1900:	5b0b6891 	blpl	2dbb4c <load_address-0x9fd244b4>
    1904:	0100000a 	tsteq	r0, sl
    1908:	00010837 	andeq	r0, r1, r7, lsr r8
    190c:	7c910200 	lfmvc	f0, 4, [r1], {0}
    1910:	0a520f00 	beq	1485518 <load_address-0x9eb7aae8>
    1914:	3f010000 	svccc	0x00010000
    1918:	00000108 	andeq	r0, r0, r8, lsl #2
    191c:	a0001efc 	strdge	r1, [r0], -ip
    1920:	00000064 	andeq	r0, r0, r4, rrx
    1924:	02819c01 	addeq	r9, r1, #256	; 0x100
    1928:	26090000 	strcs	r0, [r9], -r0
    192c:	01000002 	tsteq	r0, r2
    1930:	00016b3f 	andeq	r6, r1, pc, lsr fp
    1934:	74910200 	ldrvc	r0, [r1], #512	; 0x200
    1938:	0001e809 	andeq	lr, r1, r9, lsl #16
    193c:	713f0100 	teqvc	pc, r0, lsl #2
    1940:	02000001 	andeq	r0, r0, #1
    1944:	700a7091 	mulvc	sl, r1, r0
    1948:	01006e69 	tsteq	r0, r9, ror #28
    194c:	0001713f 	andeq	r7, r1, pc, lsr r1
    1950:	6c910200 	lfmvs	f0, 4, [r1], {0}
    1954:	000a220b 	andeq	r2, sl, fp, lsl #4
    1958:	08410100 	stmdaeq	r1, {r8}^
    195c:	02000001 	andeq	r0, r0, #1
    1960:	10007c91 	mulne	r0, r1, ip
    1964:	00000a61 	andeq	r0, r0, r1, ror #20
    1968:	1f604801 	svcne	0x00604801
    196c:	0114a000 	tsteq	r4, r0
    1970:	9c010000 	stcls	0, cr0, [r1], {-0}
    1974:	00022609 	andeq	r2, r2, r9, lsl #12
    1978:	6b480100 	blvs	1201d80 <load_address-0x9edfe280>
    197c:	02000001 	andeq	r0, r0, #1
    1980:	e8097491 	stmda	r9, {r0, r4, r7, sl, ip, sp, lr}
    1984:	01000001 	tsteq	r0, r1
    1988:	00017148 	andeq	r7, r1, r8, asr #2
    198c:	70910200 	addsvc	r0, r1, r0, lsl #4
    1990:	6e69700a 	cdpvs	0, 6, cr7, cr9, cr10, {0}
    1994:	71480100 	mrsvc	r0, (UNDEF: 88)
    1998:	02000001 	andeq	r0, r0, #1
    199c:	650a6c91 	strvs	r6, [sl, #-3217]	; 0xc91
    19a0:	4801006e 	stmdami	r1, {r1, r2, r3, r5, r6}
    19a4:	00000171 	andeq	r0, r0, r1, ror r1
    19a8:	0b689102 	bleq	1a25db8 <load_address-0x9e5da248>
    19ac:	00000a5b 	andeq	r0, r0, fp, asr sl
    19b0:	01084a01 	tsteq	r8, r1, lsl #20
    19b4:	91020000 	mrsls	r0, (UNDEF: 2)
    19b8:	6800007c 	stmdavs	r0, {r2, r3, r4, r5, r6}
    19bc:	04000002 	streq	r0, [r0], #-2
    19c0:	0006ed00 	andeq	lr, r6, r0, lsl #26
    19c4:	5b010400 	blpl	429cc <load_address-0x9ffbd634>
    19c8:	01000001 	tsteq	r0, r1
    19cc:	00000aa4 	andeq	r0, r0, r4, lsr #21
    19d0:	000000a3 	andeq	r0, r0, r3, lsr #1
    19d4:	a0002074 	andge	r2, r0, r4, ror r0
    19d8:	00000280 	andeq	r0, r0, r0, lsl #5
    19dc:	000004ae 	andeq	r0, r0, lr, lsr #9
    19e0:	000ab102 	andeq	fp, sl, r2, lsl #2
    19e4:	30060300 	andcc	r0, r6, r0, lsl #6
    19e8:	03000000 	movweq	r0, #0
    19ec:	00003604 	andeq	r3, r0, r4, lsl #12
    19f0:	08010400 	stmdaeq	r1, {sl}
    19f4:	0000013f 	andeq	r0, r0, pc, lsr r1
    19f8:	4e070404 	cdpmi	4, 0, cr0, cr7, cr4, {0}
    19fc:	04000001 	streq	r0, [r0], #-1
    1a00:	01be0702 			; <UNDEFINED> instruction: 0x01be0702
    1a04:	04040000 	streq	r0, [r4], #-0
    1a08:	00009a05 	andeq	r9, r0, r5, lsl #20
    1a0c:	0ac30500 	beq	ff0c2e14 <stack_irq+0x5e8a60bc>
    1a10:	0f010000 	svceq	0x00010000
    1a14:	00000078 	andeq	r0, r0, r8, ror r0
    1a18:	a0002074 	andge	r2, r0, r4, ror r0
    1a1c:	0000002c 	andeq	r0, r0, ip, lsr #32
    1a20:	00789c01 	rsbseq	r9, r8, r1, lsl #24
    1a24:	63060000 	movwvs	r0, #24576	; 0x6000
    1a28:	360f0100 	strcc	r0, [pc], -r0, lsl #2
    1a2c:	02000000 	andeq	r0, r0, #0
    1a30:	07007791 			; <UNDEFINED> instruction: 0x07007791
    1a34:	6e690504 	cdpvs	5, 6, cr0, cr9, cr4, {0}
    1a38:	7d050074 	stcvc	0, cr0, [r5, #-464]	; 0xfffffe30
    1a3c:	0100000a 	tsteq	r0, sl
    1a40:	00007815 	andeq	r7, r0, r5, lsl r8
    1a44:	0020a000 	eoreq	sl, r0, r0
    1a48:	00002ca0 	andeq	r2, r0, r0, lsr #25
    1a4c:	a59c0100 	ldrge	r0, [ip, #256]	; 0x100
    1a50:	06000000 	streq	r0, [r0], -r0
    1a54:	15010063 	strne	r0, [r1, #-99]	; 0x63
    1a58:	00000036 	andeq	r0, r0, r6, lsr r0
    1a5c:	00779102 	rsbseq	r9, r7, r2, lsl #2
    1a60:	000abc05 	andeq	fp, sl, r5, lsl #24
    1a64:	781b0100 	ldmdavc	fp, {r8}
    1a68:	cc000000 	stcgt	0, cr0, [r0], {-0}
    1a6c:	6ca00020 	stcvs	0, cr0, [r0], #128	; 0x80
    1a70:	01000000 	mrseq	r0, (UNDEF: 0)
    1a74:	0000f89c 	muleq	r0, ip, r8
    1a78:	6d660600 	stclvs	6, cr0, [r6, #-0]
    1a7c:	1b010074 	blne	41c54 <load_address-0x9ffbe3ac>
    1a80:	000000f8 	strdeq	r0, [r0], -r8
    1a84:	08709102 	ldmdaeq	r0!, {r1, r8, ip, pc}^
    1a88:	000ac809 	andeq	ip, sl, r9, lsl #16
    1a8c:	031d0100 	tsteq	sp, #0, 2
    1a90:	03000001 	movweq	r0, #1
    1a94:	0a77e091 	beq	1df9ce0 <load_address-0x9e206320>
    1a98:	01007061 	tsteq	r0, r1, rrx
    1a9c:	0000251e 	andeq	r2, r0, lr, lsl r5
    1aa0:	64910200 	ldrvs	r0, [r1], #512	; 0x200
    1aa4:	6e656c0a 	cdpvs	12, 6, cr6, cr5, cr10, {0}
    1aa8:	781f0100 	ldmdavc	pc, {r8}	; <UNPREDICTABLE>
    1aac:	02000000 	andeq	r0, r0, #0
    1ab0:	03006091 	movweq	r6, #145	; 0x91
    1ab4:	0000fe04 	andeq	pc, r0, r4, lsl #28
    1ab8:	00360b00 	eorseq	r0, r6, r0, lsl #22
    1abc:	360c0000 	strcc	r0, [ip], -r0
    1ac0:	14000000 	strne	r0, [r0], #-0
    1ac4:	0d000001 	stceq	0, cr0, [r0, #-4]
    1ac8:	00000114 	andeq	r0, r0, r4, lsl r1
    1acc:	040003ff 	streq	r0, [r0], #-1023	; 0x3ff
    1ad0:	02540704 	subseq	r0, r4, #4, 14	; 0x100000
    1ad4:	b9050000 	stmdblt	r5, {}	; <UNPREDICTABLE>
    1ad8:	0100000a 	tsteq	r0, sl
    1adc:	0000782a 	andeq	r7, r0, sl, lsr #16
    1ae0:	00213800 	eoreq	r3, r1, r0, lsl #16
    1ae4:	00006ca0 	andeq	r6, r0, r0, lsr #25
    1ae8:	6e9c0100 	fmlvse	f0, f4, f0
    1aec:	06000001 	streq	r0, [r0], -r1
    1af0:	00746d66 	rsbseq	r6, r4, r6, ror #26
    1af4:	00f82a01 	rscseq	r2, r8, r1, lsl #20
    1af8:	91020000 	mrsls	r0, (UNDEF: 2)
    1afc:	c8090870 	stmdagt	r9, {r4, r5, r6, fp}
    1b00:	0100000a 	tsteq	r0, sl
    1b04:	0001032c 	andeq	r0, r1, ip, lsr #6
    1b08:	e0910300 	adds	r0, r1, r0, lsl #6
    1b0c:	70610a77 	rsbvc	r0, r1, r7, ror sl
    1b10:	252d0100 	strcs	r0, [sp, #-256]!	; 0x100
    1b14:	02000000 	andeq	r0, r0, #0
    1b18:	6c0a6491 	cfstrsvs	mvf6, [sl], {145}	; 0x91
    1b1c:	01006e65 	tsteq	r0, r5, ror #28
    1b20:	0000782e 	andeq	r7, r0, lr, lsr #16
    1b24:	60910200 	addsvs	r0, r1, r0, lsl #4
    1b28:	0a8b0e00 	beq	fe2c5330 <stack_irq+0x5daa85d8>
    1b2c:	3a010000 	bcc	41b34 <load_address-0x9ffbe4cc>
    1b30:	00000078 	andeq	r0, r0, r8, ror r0
    1b34:	a00021a4 	andge	r2, r0, r4, lsr #3
    1b38:	00000014 	andeq	r0, r0, r4, lsl r0
    1b3c:	97059c01 	strls	r9, [r5, -r1, lsl #24]
    1b40:	0100000a 	tsteq	r0, sl
    1b44:	00007840 	andeq	r7, r0, r0, asr #16
    1b48:	0021b800 	eoreq	fp, r1, r0, lsl #16
    1b4c:	0000d8a0 	andeq	sp, r0, r0, lsr #17
    1b50:	c39c0100 	orrsgt	r0, ip, #0, 2
    1b54:	06000001 	streq	r0, [r0], -r1
    1b58:	40010073 	andmi	r0, r1, r3, ror r0
    1b5c:	00000030 	andeq	r0, r0, r0, lsr r0
    1b60:	0a6c9102 	beq	1b25f70 <load_address-0x9e4da090>
    1b64:	00746e63 	rsbseq	r6, r4, r3, ror #28
    1b68:	00784201 	rsbseq	r4, r8, r1, lsl #4
    1b6c:	91020000 	mrsls	r0, (UNDEF: 2)
    1b70:	00630a74 	rsbeq	r0, r3, r4, ror sl
    1b74:	00364301 	eorseq	r4, r6, r1, lsl #6
    1b78:	91020000 	mrsls	r0, (UNDEF: 2)
    1b7c:	90050073 	andls	r0, r5, r3, ror r0
    1b80:	0100000a 	tsteq	r0, sl
    1b84:	00007859 	andeq	r7, r0, r9, asr r8
    1b88:	00229000 	eoreq	r9, r2, r0
    1b8c:	000064a0 	andeq	r6, r0, r0, lsr #9
    1b90:	059c0100 	ldreq	r0, [ip, #256]	; 0x100
    1b94:	06000002 	streq	r0, [r0], -r2
    1b98:	00667562 	rsbeq	r7, r6, r2, ror #10
    1b9c:	00305901 	eorseq	r5, r0, r1, lsl #18
    1ba0:	91020000 	mrsls	r0, (UNDEF: 2)
    1ba4:	0a070f6c 	beq	1c595c <load_address-0x9fe3a6a4>
    1ba8:	59010000 	stmdbpl	r1, {}	; <UNPREDICTABLE>
    1bac:	00000078 	andeq	r0, r0, r8, ror r0
    1bb0:	0a689102 	beq	1a25fc0 <load_address-0x9e5da040>
    1bb4:	5b010069 	blpl	41d60 <load_address-0x9ffbe2a0>
    1bb8:	00000078 	andeq	r0, r0, r8, ror r0
    1bbc:	00749102 	rsbseq	r9, r4, r2, lsl #2
    1bc0:	0002100c 	andeq	r1, r2, ip
    1bc4:	00021000 	andeq	r1, r2, r0
    1bc8:	04001000 	streq	r1, [r0], #-0
    1bcc:	01360801 	teqeq	r6, r1, lsl #16
    1bd0:	00110000 	andseq	r0, r1, r0
    1bd4:	02000000 	andeq	r0, r0, #0
    1bd8:	0002053f 	andeq	r0, r2, pc, lsr r5
    1bdc:	00360c00 	eorseq	r0, r6, r0, lsl #24
    1be0:	02380000 	eorseq	r0, r8, #0
    1be4:	14120000 	ldrne	r0, [r2], #-0
    1be8:	07000001 	streq	r0, [r0, -r1]
    1bec:	00011412 	andeq	r1, r1, r2, lsl r4
    1bf0:	13001f00 	movwne	r1, #3840	; 0xf00
    1bf4:	00000a9c 	muleq	r0, ip, sl
    1bf8:	02220601 	eoreq	r0, r2, #1048576	; 0x100000
    1bfc:	03050000 	movweq	r0, #20480	; 0x5000
    1c00:	a00097f4 	strdge	r9, [r0], -r4
    1c04:	000a7413 	andeq	r7, sl, r3, lsl r4
    1c08:	78070100 	stmdavc	r7, {r8}
    1c0c:	05000000 	streq	r0, [r0, #-0]
    1c10:	0098f403 	addseq	pc, r8, r3, lsl #8
    1c14:	0a8213a0 	beq	fe086a9c <stack_irq+0x5d869d44>
    1c18:	08010000 	stmdaeq	r1, {}	; <UNPREDICTABLE>
    1c1c:	00000078 	andeq	r0, r0, r8, ror r0
    1c20:	98f80305 	ldmls	r8!, {r0, r2, r8, r9}^
    1c24:	1600a000 	strne	sl, [r0], -r0
    1c28:	0400000c 	streq	r0, [r0], #-12
    1c2c:	0007ed00 	andeq	lr, r7, r0, lsl #26
    1c30:	5b010400 	blpl	42c38 <load_address-0x9ffbd3c8>
    1c34:	01000001 	tsteq	r0, r1
    1c38:	00000b51 	andeq	r0, r0, r1, asr fp
    1c3c:	000000a3 	andeq	r0, r0, r3, lsr #1
    1c40:	a00022f4 	strdge	r2, [r0], -r4
    1c44:	00001da0 	andeq	r1, r0, r0, lsr #27
    1c48:	0000054b 	andeq	r0, r0, fp, asr #10
    1c4c:	000ab102 	andeq	fp, sl, r2, lsl #2
    1c50:	30060400 	andcc	r0, r6, r0, lsl #8
    1c54:	03000000 	movweq	r0, #0
    1c58:	00003604 	andeq	r3, r0, r4, lsl #12
    1c5c:	08010400 	stmdaeq	r1, {sl}
    1c60:	0000013f 	andeq	r0, r0, pc, lsr r1
    1c64:	000c1d02 	andeq	r1, ip, r2, lsl #26
    1c68:	48060100 	stmdami	r6, {r8}
    1c6c:	04000000 	streq	r0, [r0], #-0
    1c70:	014e0704 	cmpeq	lr, r4, lsl #14
    1c74:	02040000 	andeq	r0, r4, #0
    1c78:	0001be07 	andeq	fp, r1, r7, lsl #28
    1c7c:	05040400 	streq	r0, [r4, #-1024]	; 0x400
    1c80:	0000009a 	muleq	r0, sl, r0
    1c84:	000c2602 	andeq	r2, ip, r2, lsl #12
    1c88:	3d0a0100 	stfccs	f0, [sl, #-0]
    1c8c:	05000000 	streq	r0, [r0, #-0]
    1c90:	00000afd 	strdeq	r0, [r0], -sp
    1c94:	008e5201 	addeq	r5, lr, r1, lsl #4
    1c98:	22f40000 	rscscs	r0, r4, #0
    1c9c:	0054a000 	subseq	sl, r4, r0
    1ca0:	9c010000 	stcls	0, cr0, [r1], {-0}
    1ca4:	0000008e 	andeq	r0, r0, lr, lsl #1
    1ca8:	01006306 	tsteq	r0, r6, lsl #6
    1cac:	00008e52 	andeq	r8, r0, r2, asr lr
    1cb0:	7f910200 	svcvc	0x00910200
    1cb4:	08010400 	stmdaeq	r1, {sl}
    1cb8:	00000136 	andeq	r0, r0, r6, lsr r1
    1cbc:	000b6005 	andeq	r6, fp, r5
    1cc0:	8e590100 	rdfhie	f0, f1, f0
    1cc4:	48000000 	stmdami	r0, {}	; <UNPREDICTABLE>
    1cc8:	54a00023 	strtpl	r0, [r0], #35	; 0x23
    1ccc:	01000000 	mrseq	r0, (UNDEF: 0)
    1cd0:	0000bb9c 	muleq	r0, ip, fp
    1cd4:	00630600 	rsbeq	r0, r3, r0, lsl #12
    1cd8:	008e5901 	addeq	r5, lr, r1, lsl #18
    1cdc:	91020000 	mrsls	r0, (UNDEF: 2)
    1ce0:	2a07007f 	bcs	1c1ee4 <load_address-0x9fe3e11c>
    1ce4:	0200000b 	andeq	r0, r0, #11
    1ce8:	00011704 	andeq	r1, r1, r4, lsl #14
    1cec:	00239c00 	eoreq	r9, r3, r0, lsl #24
    1cf0:	000100a0 	andeq	r0, r1, r0, lsr #1
    1cf4:	179c0100 	ldrne	r0, [ip, r0, lsl #2]
    1cf8:	06000001 	streq	r0, [r0], -r1
    1cfc:	02003173 	andeq	r3, r0, #-1073741796	; 0xc000001c
    1d00:	00011e04 	andeq	r1, r1, r4, lsl #28
    1d04:	6c910200 	lfmvs	f0, 4, [r1], {0}
    1d08:	00327306 	eorseq	r7, r2, r6, lsl #6
    1d0c:	011e0402 	tsteq	lr, r2, lsl #8
    1d10:	91020000 	mrsls	r0, (UNDEF: 2)
    1d14:	656c0668 	strbvs	r0, [ip, #-1640]!	; 0x668
    1d18:	0402006e 	streq	r0, [r2], #-110	; 0x6e
    1d1c:	0000005d 	andeq	r0, r0, sp, asr r0
    1d20:	08649102 	stmdaeq	r4!, {r1, r8, ip, pc}^
    1d24:	02003163 	andeq	r3, r0, #-1073741800	; 0xc0000018
    1d28:	00008e06 	andeq	r8, r0, r6, lsl #28
    1d2c:	77910200 	ldrvc	r0, [r1, r0, lsl #4]
    1d30:	00326308 	eorseq	r6, r2, r8, lsl #6
    1d34:	008e0602 	addeq	r0, lr, r2, lsl #12
    1d38:	91020000 	mrsls	r0, (UNDEF: 2)
    1d3c:	04090076 	streq	r0, [r9], #-118	; 0x76
    1d40:	746e6905 	strbtvc	r6, [lr], #-2309	; 0x905
    1d44:	24040300 	strcs	r0, [r4], #-768	; 0x300
    1d48:	0a000001 	beq	1d54 <load_address-0x9fffe2ac>
    1d4c:	00000036 	andeq	r0, r0, r6, lsr r0
    1d50:	000bd00b 	andeq	sp, fp, fp
    1d54:	301e0200 	andscc	r0, lr, r0, lsl #4
    1d58:	9c000000 	stcls	0, cr0, [r0], {-0}
    1d5c:	54a00024 	strtpl	r0, [r0], #36	; 0x24
    1d60:	01000000 	mrseq	r0, (UNDEF: 0)
    1d64:	00016d9c 	muleq	r1, ip, sp
    1d68:	0ae40c00 	beq	ff904d70 <stack_irq+0x5f0e8018>
    1d6c:	1e020000 	cdpne	0, 0, cr0, cr2, cr0, {0}
    1d70:	00000030 	andeq	r0, r0, r0, lsr r0
    1d74:	06749102 	ldrbteq	r9, [r4], -r2, lsl #2
    1d78:	00637273 	rsbeq	r7, r3, r3, ror r2
    1d7c:	011e1e02 	tsteq	lr, r2, lsl #28
    1d80:	91020000 	mrsls	r0, (UNDEF: 2)
    1d84:	6d740870 	ldclvs	8, cr0, [r4, #-448]!	; 0xfffffe40
    1d88:	20020070 	andcs	r0, r2, r0, ror r0
    1d8c:	00000030 	andeq	r0, r0, r0, lsr r0
    1d90:	007c9102 	rsbseq	r9, ip, r2, lsl #2
    1d94:	000ad70b 	andeq	sp, sl, fp, lsl #14
    1d98:	30280200 	eorcc	r0, r8, r0, lsl #4
    1d9c:	f0000000 			; <UNDEFINED> instruction: 0xf0000000
    1da0:	6ca00024 	stcvs	0, cr0, [r0], #144	; 0x90
    1da4:	01000000 	mrseq	r0, (UNDEF: 0)
    1da8:	0001bf9c 	muleq	r1, ip, pc	; <UNPREDICTABLE>
    1dac:	0ae40c00 	beq	ff904db4 <stack_irq+0x5f0e805c>
    1db0:	28020000 	stmdacs	r2, {}	; <UNPREDICTABLE>
    1db4:	00000030 	andeq	r0, r0, r0, lsr r0
    1db8:	06749102 	ldrbteq	r9, [r4], -r2, lsl #2
    1dbc:	00637273 	rsbeq	r7, r3, r3, ror r2
    1dc0:	011e2802 	tsteq	lr, r2, lsl #16
    1dc4:	91020000 	mrsls	r0, (UNDEF: 2)
    1dc8:	08620c70 	stmdaeq	r2!, {r4, r5, r6, sl, fp}^
    1dcc:	28020000 	stmdacs	r2, {}	; <UNPREDICTABLE>
    1dd0:	0000005d 	andeq	r0, r0, sp, asr r0
    1dd4:	086c9102 	stmdaeq	ip!, {r1, r8, ip, pc}^
    1dd8:	00706d74 	rsbseq	r6, r0, r4, ror sp
    1ddc:	00302a02 	eorseq	r2, r0, r2, lsl #20
    1de0:	91020000 	mrsls	r0, (UNDEF: 2)
    1de4:	b30b007c 	movwlt	r0, #45180	; 0xb07c
    1de8:	0200000b 	andeq	r0, r0, #11
    1dec:	00003031 	andeq	r3, r0, r1, lsr r0
    1df0:	00255c00 	eoreq	r5, r5, r0, lsl #24
    1df4:	000074a0 	andeq	r7, r0, r0, lsr #9
    1df8:	039c0100 	orrseq	r0, ip, #0, 2
    1dfc:	0c000002 	stceq	0, cr0, [r0], {2}
    1e00:	00000ae4 	andeq	r0, r0, r4, ror #21
    1e04:	00303102 	eorseq	r3, r0, r2, lsl #2
    1e08:	91020000 	mrsls	r0, (UNDEF: 2)
    1e0c:	72730674 	rsbsvc	r0, r3, #116, 12	; 0x7400000
    1e10:	31020063 	tstcc	r2, r3, rrx
    1e14:	0000011e 	andeq	r0, r0, lr, lsl r1
    1e18:	08709102 	ldmdaeq	r0!, {r1, r8, ip, pc}^
    1e1c:	00706d74 	rsbseq	r6, r0, r4, ror sp
    1e20:	00303302 	eorseq	r3, r0, r2, lsl #6
    1e24:	91020000 	mrsls	r0, (UNDEF: 2)
    1e28:	4f0b007c 	svcmi	0x000b007c
    1e2c:	0200000c 	andeq	r0, r0, #12
    1e30:	0000303d 	andeq	r3, r0, sp, lsr r0
    1e34:	0025d000 	eoreq	sp, r5, r0
    1e38:	0000aca0 	andeq	sl, r0, r0, lsr #25
    1e3c:	559c0100 	ldrpl	r0, [ip, #256]	; 0x100
    1e40:	0c000002 	stceq	0, cr0, [r0], {2}
    1e44:	00000ae4 	andeq	r0, r0, r4, ror #21
    1e48:	00303d02 	eorseq	r3, r0, r2, lsl #26
    1e4c:	91020000 	mrsls	r0, (UNDEF: 2)
    1e50:	72730674 	rsbsvc	r0, r3, #116, 12	; 0x7400000
    1e54:	3d020063 	stccc	0, cr0, [r2, #-396]	; 0xfffffe74
    1e58:	0000011e 	andeq	r0, r0, lr, lsl r1
    1e5c:	0c709102 	ldfeqp	f1, [r0], #-8
    1e60:	00000862 	andeq	r0, r0, r2, ror #16
    1e64:	005d3d02 	subseq	r3, sp, r2, lsl #26
    1e68:	91020000 	mrsls	r0, (UNDEF: 2)
    1e6c:	6d74086c 	ldclvs	8, cr0, [r4, #-432]!	; 0xfffffe50
    1e70:	3f020070 	svccc	0x00020070
    1e74:	00000030 	andeq	r0, r0, r0, lsr r0
    1e78:	007c9102 	rsbseq	r9, ip, r2, lsl #2
    1e7c:	000c000b 	andeq	r0, ip, fp
    1e80:	174f0200 	strbne	r0, [pc, -r0, lsl #4]
    1e84:	7c000001 	stcvc	0, cr0, [r0], {1}
    1e88:	6ca00026 	stcvs	0, cr0, [r0], #152	; 0x98
    1e8c:	01000000 	mrseq	r0, (UNDEF: 0)
    1e90:	0002969c 	muleq	r2, ip, r6
    1e94:	73630600 	cmnvc	r3, #0, 12
    1e98:	1e4f0200 	cdpne	2, 4, cr0, cr15, cr0, {0}
    1e9c:	02000001 	andeq	r0, r0, #1
    1ea0:	63067491 	movwvs	r7, #25745	; 0x6491
    1ea4:	4f020074 	svcmi	0x00020074
    1ea8:	0000011e 	andeq	r0, r0, lr, lsl r1
    1eac:	0d709102 	ldfeqp	f1, [r0, #-8]!
    1eb0:	00000b1b 	andeq	r0, r0, fp, lsl fp
    1eb4:	02965102 	addseq	r5, r6, #-2147483648	; 0x80000000
    1eb8:	54010000 	strpl	r0, [r1], #-0
    1ebc:	06010400 	streq	r0, [r1], -r0, lsl #8
    1ec0:	00000138 	andeq	r0, r0, r8, lsr r1
    1ec4:	000c340b 	andeq	r3, ip, fp, lsl #8
    1ec8:	175a0200 	ldrbne	r0, [sl, -r0, lsl #4]
    1ecc:	e8000001 	stmda	r0, {r0}
    1ed0:	8ca00026 	stchi	0, cr0, [r0], #152	; 0x98
    1ed4:	01000000 	mrseq	r0, (UNDEF: 0)
    1ed8:	0002ec9c 	muleq	r2, ip, ip
    1edc:	73630600 	cmnvc	r3, #0, 12
    1ee0:	1e5a0200 	cdpne	2, 5, cr0, cr10, cr0, {0}
    1ee4:	02000001 	andeq	r0, r0, #1
    1ee8:	63067491 	movwvs	r7, #25745	; 0x6491
    1eec:	5a020074 	bpl	820c4 <load_address-0x9ff7df3c>
    1ef0:	0000011e 	andeq	r0, r0, lr, lsl r1
    1ef4:	0c709102 	ldfeqp	f1, [r0], #-8
    1ef8:	00000862 	andeq	r0, r0, r2, ror #16
    1efc:	005d5a02 	subseq	r5, sp, r2, lsl #20
    1f00:	91020000 	mrsls	r0, (UNDEF: 2)
    1f04:	0b1b0d6c 	bleq	6c54bc <load_address-0x9f93ab44>
    1f08:	5c020000 	stcpl	0, cr0, [r2], {-0}
    1f0c:	00000296 	muleq	r0, r6, r2
    1f10:	0b005401 	bleq	16f1c <load_address-0x9ffe90e4>
    1f14:	00000b8d 	andeq	r0, r0, sp, lsl #23
    1f18:	00306602 	eorseq	r6, r0, r2, lsl #12
    1f1c:	27740000 	ldrbcs	r0, [r4, -r0]!
    1f20:	005ca000 	subseq	sl, ip, r0
    1f24:	9c010000 	stcls	0, cr0, [r1], {-0}
    1f28:	0000031e 	andeq	r0, r0, lr, lsl r3
    1f2c:	02007306 	andeq	r7, r0, #402653184	; 0x18000000
    1f30:	00011e66 	andeq	r1, r1, r6, ror #28
    1f34:	7c910200 	lfmvc	f0, 4, [r1], {0}
    1f38:	02006306 	andeq	r6, r0, #402653184	; 0x18000000
    1f3c:	00011766 	andeq	r1, r1, r6, ror #14
    1f40:	78910200 	ldmvc	r1, {r9}
    1f44:	0bba0b00 	bleq	fee84b4c <stack_irq+0x5e667df4>
    1f48:	6d020000 	stcvs	0, cr0, [r2, #-0]
    1f4c:	0000005d 	andeq	r0, r0, sp, asr r0
    1f50:	a00027d0 	ldrdge	r2, [r0], -r0
    1f54:	00000048 	andeq	r0, r0, r8, asr #32
    1f58:	03519c01 	cmpeq	r1, #256	; 0x100
    1f5c:	73060000 	movwvc	r0, #24576	; 0x6000
    1f60:	1e6d0200 	cdpne	2, 6, cr0, cr13, cr0, {0}
    1f64:	02000001 	andeq	r0, r0, #1
    1f68:	73087491 	movwvc	r7, #33937	; 0x8491
    1f6c:	6f020063 	svcvs	0x00020063
    1f70:	0000011e 	andeq	r0, r0, lr, lsl r1
    1f74:	007c9102 	rsbseq	r9, ip, r2, lsl #2
    1f78:	000c1507 	andeq	r1, ip, r7, lsl #10
    1f7c:	30760200 	rsbscc	r0, r6, r0, lsl #4
    1f80:	18000000 	stmdane	r0, {}	; <UNPREDICTABLE>
    1f84:	74a00028 	strtvc	r0, [r0], #40	; 0x28
    1f88:	01000000 	mrseq	r0, (UNDEF: 0)
    1f8c:	00038f9c 	muleq	r3, ip, pc	; <UNPREDICTABLE>
    1f90:	00730600 	rsbseq	r0, r3, r0, lsl #12
    1f94:	011e7602 	tsteq	lr, r2, lsl #12
    1f98:	91020000 	mrsls	r0, (UNDEF: 2)
    1f9c:	0063066c 	rsbeq	r0, r3, ip, ror #12
    1fa0:	01177602 	tsteq	r7, r2, lsl #12
    1fa4:	91020000 	mrsls	r0, (UNDEF: 2)
    1fa8:	00700868 	rsbseq	r0, r0, r8, ror #16
    1fac:	011e7802 	tsteq	lr, r2, lsl #16
    1fb0:	91020000 	mrsls	r0, (UNDEF: 2)
    1fb4:	cf0b0074 	svcgt	0x000b0074
    1fb8:	0200000a 	andeq	r0, r0, #10
    1fbc:	00005d7f 	andeq	r5, r0, pc, ror sp
    1fc0:	00288c00 	eoreq	r8, r8, r0, lsl #24
    1fc4:	000060a0 	andeq	r6, r0, r0, lsr #1
    1fc8:	d09c0100 	addsle	r0, ip, r0, lsl #2
    1fcc:	06000003 	streq	r0, [r0], -r3
    1fd0:	7f020073 	svcvc	0x00020073
    1fd4:	0000011e 	andeq	r0, r0, lr, lsl r1
    1fd8:	0c749102 	ldfeqp	f1, [r4], #-8
    1fdc:	00000862 	andeq	r0, r0, r2, ror #16
    1fe0:	005d7f02 	subseq	r7, sp, r2, lsl #30
    1fe4:	91020000 	mrsls	r0, (UNDEF: 2)
    1fe8:	63730870 	cmnvs	r3, #112, 16	; 0x700000
    1fec:	1e810200 	cdpne	2, 8, cr0, cr1, cr0, {0}
    1ff0:	02000001 	andeq	r0, r0, #1
    1ff4:	0b007c91 	bleq	21240 <load_address-0x9ffdedc0>
    1ff8:	00000bde 	ldrdeq	r0, [r0], -lr
    1ffc:	005d8702 	subseq	r8, sp, r2, lsl #14
    2000:	28ec0000 	stmiacs	ip!, {}^	; <UNPREDICTABLE>
    2004:	00b4a000 	adcseq	sl, r4, r0
    2008:	9c010000 	stcls	0, cr0, [r1], {-0}
    200c:	0000042a 	andeq	r0, r0, sl, lsr #8
    2010:	02007306 	andeq	r7, r0, #402653184	; 0x18000000
    2014:	00011e87 	andeq	r1, r1, r7, lsl #29
    2018:	6c910200 	lfmvs	f0, 4, [r1], {0}
    201c:	000bd70c 	andeq	sp, fp, ip, lsl #14
    2020:	1e870200 	cdpne	2, 8, cr0, cr7, cr0, {0}
    2024:	02000001 	andeq	r0, r0, #1
    2028:	70086891 	mulvc	r8, r1, r8
    202c:	1e890200 	cdpne	2, 8, cr0, cr9, cr0, {0}
    2030:	02000001 	andeq	r0, r0, #1
    2034:	61087c91 			; <UNDEFINED> instruction: 0x61087c91
    2038:	1e8a0200 	cdpne	2, 8, cr0, cr10, cr0, {0}
    203c:	02000001 	andeq	r0, r0, #1
    2040:	620d7891 	andvs	r7, sp, #9502720	; 0x910000
    2044:	02000008 	andeq	r0, r0, #8
    2048:	00005d8b 	andeq	r5, r0, fp, lsl #27
    204c:	74910200 	ldrvc	r0, [r1], #512	; 0x200
    2050:	0af50b00 	beq	ffd44c58 <stack_irq+0x5f527f00>
    2054:	99020000 	stmdbls	r2, {}	; <UNPREDICTABLE>
    2058:	00000030 	andeq	r0, r0, r0, lsr r0
    205c:	a00029a0 	andge	r2, r0, r0, lsr #19
    2060:	0000008c 	andeq	r0, r0, ip, lsl #1
    2064:	047a9c01 	ldrbteq	r9, [sl], #-3073	; 0xc01
    2068:	63060000 	movwvs	r0, #24576	; 0x6000
    206c:	99020073 	stmdbls	r2, {r0, r1, r4, r5, r6}
    2070:	0000011e 	andeq	r0, r0, lr, lsl r1
    2074:	06749102 	ldrbteq	r9, [r4], -r2, lsl #2
    2078:	02007463 	andeq	r7, r0, #1660944384	; 0x63000000
    207c:	00011e99 	muleq	r1, r9, lr
    2080:	70910200 	addsvc	r0, r1, r0, lsl #4
    2084:	31637308 	cmncc	r3, r8, lsl #6
    2088:	1e9b0200 	cdpne	2, 9, cr0, cr11, cr0, {0}
    208c:	02000001 	andeq	r0, r0, #1
    2090:	73087c91 	movwvc	r7, #35985	; 0x8c91
    2094:	02003263 	andeq	r3, r0, #805306374	; 0x30000006
    2098:	00011e9b 	muleq	r1, fp, lr
    209c:	78910200 	ldmvc	r1, {r9}
    20a0:	0b3b0700 	bleq	ec3ca8 <load_address-0x9f13c358>
    20a4:	a5020000 	strge	r0, [r2, #-0]
    20a8:	00000030 	andeq	r0, r0, r0, lsr r0
    20ac:	a0002a2c 	andge	r2, r0, ip, lsr #20
    20b0:	000000fc 	strdeq	r0, [r0], -ip
    20b4:	04c99c01 	strbeq	r9, [r9], #3073	; 0xc01
    20b8:	73060000 	movwvc	r0, #24576	; 0x6000
    20bc:	30a50200 	adccc	r0, r5, r0, lsl #4
    20c0:	02000000 	andeq	r0, r0, #0
    20c4:	63066c91 	movwvs	r6, #27793	; 0x6c91
    20c8:	a5020074 	strge	r0, [r2, #-116]	; 0x74
    20cc:	0000011e 	andeq	r0, r0, lr, lsl r1
    20d0:	0d689102 	stfeqp	f1, [r8, #-8]!
    20d4:	00000bac 	andeq	r0, r0, ip, lsr #23
    20d8:	0030a702 	eorseq	sl, r0, r2, lsl #14
    20dc:	91020000 	mrsls	r0, (UNDEF: 2)
    20e0:	0adf0d70 	beq	ff7c56a8 <stack_irq+0x5efa8950>
    20e4:	a7020000 	strge	r0, [r2, -r0]
    20e8:	00000030 	andeq	r0, r0, r0, lsr r0
    20ec:	00749102 	rsbseq	r9, r4, r2, lsl #2
    20f0:	000b9407 	andeq	r9, fp, r7, lsl #8
    20f4:	30b80200 	adcscc	r0, r8, r0, lsl #4
    20f8:	28000000 	stmdacs	r0, {}	; <UNPREDICTABLE>
    20fc:	7ca0002b 	stcvc	0, cr0, [r0], #172	; 0xac
    2100:	01000000 	mrseq	r0, (UNDEF: 0)
    2104:	0005189c 	muleq	r5, ip, r8
    2108:	00730600 	rsbseq	r0, r3, r0, lsl #12
    210c:	0518b802 	ldreq	fp, [r8, #-2050]	; 0x802
    2110:	91020000 	mrsls	r0, (UNDEF: 2)
    2114:	7463066c 	strbtvc	r0, [r3], #-1644	; 0x66c
    2118:	1eb80200 	cdpne	2, 11, cr0, cr8, cr0, {0}
    211c:	02000001 	andeq	r0, r0, #1
    2120:	ac0d6891 	stcge	8, cr6, [sp], {145}	; 0x91
    2124:	0200000b 	andeq	r0, r0, #11
    2128:	000030ba 	strheq	r3, [r0], -sl
    212c:	70910200 	addsvc	r0, r1, r0, lsl #4
    2130:	646e6508 	strbtvs	r6, [lr], #-1288	; 0x508
    2134:	30ba0200 	adcscc	r0, sl, r0, lsl #4
    2138:	02000000 	andeq	r0, r0, #0
    213c:	03007491 	movweq	r7, #1169	; 0x491
    2140:	00003004 	andeq	r3, r0, r4
    2144:	0c070b00 	stceq	11, cr0, [r7], {-0}
    2148:	c6020000 	strgt	r0, [r2], -r0
    214c:	0000056b 	andeq	r0, r0, fp, ror #10
    2150:	a0002ba4 	andge	r2, r0, r4, lsr #23
    2154:	00000058 	andeq	r0, r0, r8, asr r0
    2158:	056b9c01 	strbeq	r9, [fp, #-3073]!	; 0xc01
    215c:	73060000 	movwvc	r0, #24576	; 0x6000
    2160:	6bc60200 	blvs	ff182968 <stack_irq+0x5e965c10>
    2164:	02000005 	andeq	r0, r0, #5
    2168:	63067491 	movwvs	r7, #25745	; 0x6491
    216c:	17c60200 	strbne	r0, [r6, r0, lsl #4]
    2170:	02000001 	andeq	r0, r0, #1
    2174:	620c7091 	andvs	r7, ip, #145	; 0x91
    2178:	02000008 	andeq	r0, r0, #8
    217c:	00005dc6 	andeq	r5, r0, r6, asr #27
    2180:	6c910200 	lfmvs	f0, 4, [r1], {0}
    2184:	00737808 	rsbseq	r7, r3, r8, lsl #16
    2188:	0030c802 	eorseq	ip, r0, r2, lsl #16
    218c:	91020000 	mrsls	r0, (UNDEF: 2)
    2190:	040e007c 	streq	r0, [lr], #-124	; 0x7c
    2194:	000ba60b 	andeq	sl, fp, fp, lsl #12
    2198:	30d00200 	sbcscc	r0, r0, r0, lsl #4
    219c:	fc000000 	stc2	0, cr0, [r0], {-0}
    21a0:	60a0002b 	adcvs	r0, r0, fp, lsr #32
    21a4:	01000000 	mrseq	r0, (UNDEF: 0)
    21a8:	0005bf9c 	muleq	r5, ip, pc	; <UNPREDICTABLE>
    21ac:	72730600 	rsbsvc	r0, r3, #0, 12
    21b0:	d0020063 	andle	r0, r2, r3, rrx
    21b4:	0000011e 	andeq	r0, r0, lr, lsl r1
    21b8:	0c749102 	ldfeqp	f1, [r4], #-8
    21bc:	00000ae4 	andeq	r0, r0, r4, ror #21
    21c0:	0030d002 	eorseq	sp, r0, r2
    21c4:	91020000 	mrsls	r0, (UNDEF: 2)
    21c8:	08620c70 	stmdaeq	r2!, {r4, r5, r6, sl, fp}^
    21cc:	d0020000 	andle	r0, r2, r0
    21d0:	00000117 	andeq	r0, r0, r7, lsl r1
    21d4:	086c9102 	stmdaeq	ip!, {r1, r8, ip, pc}^
    21d8:	00706d74 	rsbseq	r6, r0, r4, ror sp
    21dc:	0030d202 	eorseq	sp, r0, r2, lsl #4
    21e0:	91020000 	mrsls	r0, (UNDEF: 2)
    21e4:	0e0b007c 	mcreq	0, 0, r0, cr11, cr12, {3}
    21e8:	0200000b 	andeq	r0, r0, #11
    21ec:	00056bd9 	ldrdeq	r6, [r5], -r9
    21f0:	002c5c00 	eoreq	r5, ip, r0, lsl #24
    21f4:	000068a0 	andeq	r6, r0, r0, lsr #17
    21f8:	1d9c0100 	ldfnes	f0, [ip]
    21fc:	0c000006 	stceq	0, cr0, [r0], {6}
    2200:	00000ae4 	andeq	r0, r0, r4, ror #21
    2204:	056bd902 	strbeq	sp, [fp, #-2306]!	; 0x902
    2208:	91020000 	mrsls	r0, (UNDEF: 2)
    220c:	72730674 	rsbsvc	r0, r3, #116, 12	; 0x7400000
    2210:	d9020063 	stmdble	r2, {r0, r1, r5, r6}
    2214:	0000061d 	andeq	r0, r0, sp, lsl r6
    2218:	0c709102 	ldfeqp	f1, [r0], #-8
    221c:	00000862 	andeq	r0, r0, r2, ror #16
    2220:	005dd902 	subseq	sp, sp, r2, lsl #18
    2224:	91020000 	mrsls	r0, (UNDEF: 2)
    2228:	6d74086c 	ldclvs	8, cr0, [r4, #-432]!	; 0xfffffe50
    222c:	db020070 	blle	823f4 <load_address-0x9ff7dc0c>
    2230:	00000030 	andeq	r0, r0, r0, lsr r0
    2234:	087c9102 	ldmdaeq	ip!, {r1, r8, ip, pc}^
    2238:	db020073 	blle	8240c <load_address-0x9ff7dbf4>
    223c:	00000030 	andeq	r0, r0, r0, lsr r0
    2240:	00789102 	rsbseq	r9, r8, r2, lsl #2
    2244:	06230403 	strteq	r0, [r3], -r3, lsl #8
    2248:	0b0f0000 	bleq	3c2250 <load_address-0x9fc3ddb0>
    224c:	00000b85 	andeq	r0, r0, r5, lsl #23
    2250:	056be202 	strbeq	lr, [fp, #-514]!	; 0x202
    2254:	2cc40000 	stclcs	0, cr0, [r4], {0}
    2258:	00dca000 	sbcseq	sl, ip, r0
    225c:	9c010000 	stcls	0, cr0, [r1], {-0}
    2260:	00000682 	andeq	r0, r0, r2, lsl #13
    2264:	000ae40c 	andeq	lr, sl, ip, lsl #8
    2268:	6be20200 	blvs	ff882a70 <stack_irq+0x5f065d18>
    226c:	02000005 	andeq	r0, r0, #5
    2270:	73067491 	movwvc	r7, #25745	; 0x6491
    2274:	02006372 	andeq	r6, r0, #-939524095	; 0xc8000001
    2278:	00061de2 	andeq	r1, r6, r2, ror #27
    227c:	70910200 	addsvc	r0, r1, r0, lsl #4
    2280:	0008620c 	andeq	r6, r8, ip, lsl #4
    2284:	5de20200 	sfmpl	f0, 2, [r2]
    2288:	02000000 	andeq	r0, r0, #0
    228c:	74086c91 	strvc	r6, [r8], #-3217	; 0xc91
    2290:	0200706d 	andeq	r7, r0, #109	; 0x6d
    2294:	000030e4 	andeq	r3, r0, r4, ror #1
    2298:	7c910200 	lfmvc	f0, 4, [r1], {0}
    229c:	02007308 	andeq	r7, r0, #8, 6	; 0x20000000
    22a0:	000030e4 	andeq	r3, r0, r4, ror #1
    22a4:	78910200 	ldmvc	r1, {r9}
    22a8:	0b4a0b00 	bleq	1284eb0 <load_address-0x9ed7b150>
    22ac:	f5020000 			; <UNDEFINED> instruction: 0xf5020000
    22b0:	00000117 	andeq	r0, r0, r7, lsl r1
    22b4:	a0002da0 	andge	r2, r0, r0, lsr #27
    22b8:	00000098 	muleq	r0, r8, r0
    22bc:	06ee9c01 	strbteq	r9, [lr], r1, lsl #24
    22c0:	63060000 	movwvs	r0, #24576	; 0x6000
    22c4:	f5020073 			; <UNDEFINED> instruction: 0xf5020073
    22c8:	0000061d 	andeq	r0, r0, sp, lsl r6
    22cc:	066c9102 	strbteq	r9, [ip], -r2, lsl #2
    22d0:	02007463 	andeq	r7, r0, #1660944384	; 0x63000000
    22d4:	00061df5 	strdeq	r1, [r6], -r5
    22d8:	68910200 	ldmvs	r1, {r9}
    22dc:	0008620c 	andeq	r6, r8, ip, lsl #4
    22e0:	5df50200 	lfmpl	f0, 2, [r5]
    22e4:	02000000 	andeq	r0, r0, #0
    22e8:	73086491 	movwvc	r6, #33937	; 0x8491
    22ec:	02003175 	andeq	r3, r0, #1073741853	; 0x4000001d
    22f0:	0006eef7 	strdeq	lr, [r6], -r7
    22f4:	7c910200 	lfmvc	f0, 4, [r1], {0}
    22f8:	32757308 	rsbscc	r7, r5, #8, 6	; 0x20000000
    22fc:	eef70200 	cdp	2, 15, cr0, cr7, cr0, {0}
    2300:	02000006 	andeq	r0, r0, #6
    2304:	72087891 	andvc	r7, r8, #9502720	; 0x910000
    2308:	02007365 	andeq	r7, r0, #-1811939327	; 0x94000001
    230c:	000296f8 	strdeq	r9, [r2], -r8
    2310:	77910200 	ldrvc	r0, [r1, r0, lsl #4]
    2314:	f4040300 	vst2.8	{d0-d3}, [r4], r0
    2318:	0a000006 	beq	2338 <load_address-0x9fffdcc8>
    231c:	0000008e 	andeq	r0, r0, lr, lsl #1
    2320:	000b420b 	andeq	r4, fp, fp, lsl #4
    2324:	6bff0200 	blvs	fffc2b2c <stack_irq+0x5f7a5dd4>
    2328:	38000005 	stmdacc	r0, {r0, r2}
    232c:	70a0002e 	adcvc	r0, r0, lr, lsr #32
    2330:	01000000 	mrseq	r0, (UNDEF: 0)
    2334:	0007489c 	muleq	r7, ip, r8
    2338:	04c30c00 	strbeq	r0, [r3], #3072	; 0xc00
    233c:	ff020000 			; <UNDEFINED> instruction: 0xff020000
    2340:	0000056b 	andeq	r0, r0, fp, ror #10
    2344:	06749102 	ldrbteq	r9, [r4], -r2, lsl #2
    2348:	ff020063 			; <UNDEFINED> instruction: 0xff020063
    234c:	00000117 	andeq	r0, r0, r7, lsl r1
    2350:	0c709102 	ldfeqp	f1, [r0], #-8
    2354:	00000a07 	andeq	r0, r0, r7, lsl #20
    2358:	005dff02 	subseq	pc, sp, r2, lsl #30
    235c:	91020000 	mrsls	r0, (UNDEF: 2)
    2360:	0070106c 	rsbseq	r1, r0, ip, rrx
    2364:	48010102 	stmdami	r1, {r1, r8}
    2368:	02000007 	andeq	r0, r0, #7
    236c:	03007c91 	movweq	r7, #3217	; 0xc91
    2370:	00008e04 	andeq	r8, r0, r4, lsl #28
    2374:	0c0e1100 	stfeqs	f1, [lr], {-0}
    2378:	0b020000 	bleq	82380 <load_address-0x9ff7dc80>
    237c:	00003001 	andeq	r3, r0, r1
    2380:	002ea800 	eoreq	sl, lr, r0, lsl #16
    2384:	0000a8a0 	andeq	sl, r0, r0, lsr #17
    2388:	a19c0100 	orrsge	r0, ip, r0, lsl #2
    238c:	12000007 	andne	r0, r0, #7
    2390:	02003173 	andeq	r3, r0, #-1073741796	; 0xc000001c
    2394:	011e010b 	tsteq	lr, fp, lsl #2
    2398:	91020000 	mrsls	r0, (UNDEF: 2)
    239c:	3273126c 	rsbscc	r1, r3, #108, 4	; 0xc0000006
    23a0:	010b0200 	mrseq	r0, R11_fiq
    23a4:	0000011e 	andeq	r0, r0, lr, lsl r1
    23a8:	10689102 	rsbne	r9, r8, r2, lsl #2
    23ac:	0200316c 	andeq	r3, r0, #108, 2
    23b0:	0117010d 	tsteq	r7, sp, lsl #2
    23b4:	91020000 	mrsls	r0, (UNDEF: 2)
    23b8:	326c1074 	rsbcc	r1, ip, #116	; 0x74
    23bc:	010d0200 	mrseq	r0, SP_fiq
    23c0:	00000117 	andeq	r0, r0, r7, lsl r1
    23c4:	00709102 	rsbseq	r9, r0, r2, lsl #2
    23c8:	000bf913 	andeq	pc, fp, r3, lsl r9	; <UNPREDICTABLE>
    23cc:	011b0200 	tsteq	fp, r0, lsl #4
    23d0:	0000056b 	andeq	r0, r0, fp, ror #10
    23d4:	a0002f50 	andge	r2, r0, r0, asr pc
    23d8:	0000006c 	andeq	r0, r0, ip, rrx
    23dc:	07f09c01 	ldrbeq	r9, [r0, r1, lsl #24]!
    23e0:	73120000 	tstvc	r2, #0
    23e4:	011b0200 	tsteq	fp, r0, lsl #4
    23e8:	0000061d 	andeq	r0, r0, sp, lsl r6
    23ec:	12749102 	rsbsne	r9, r4, #-2147483648	; 0x80000000
    23f0:	1b020063 	blne	82584 <load_address-0x9ff7da7c>
    23f4:	00011701 	andeq	r1, r1, r1, lsl #14
    23f8:	70910200 	addsvc	r0, r1, r0, lsl #4
    23fc:	02006e12 	andeq	r6, r0, #288	; 0x120
    2400:	005d011b 	subseq	r0, sp, fp, lsl r1
    2404:	91020000 	mrsls	r0, (UNDEF: 2)
    2408:	0070106c 	rsbseq	r1, r0, ip, rrx
    240c:	ee011d02 	cdp	13, 0, cr1, cr1, cr2, {0}
    2410:	02000006 	andeq	r0, r0, #6
    2414:	14007c91 	strne	r7, [r0], #-3217	; 0xc91
    2418:	00000bc1 	andeq	r0, r0, r1, asr #23
    241c:	bc012502 	cfstr32lt	mvfx2, [r1], {2}
    2420:	54a0002f 	strtpl	r0, [r0], #47	; 0x2f
    2424:	01000000 	mrseq	r0, (UNDEF: 0)
    2428:	0008169c 	muleq	r8, ip, r6
    242c:	74531200 	ldrbvc	r1, [r3], #-512	; 0x200
    2430:	25020072 	strcs	r0, [r2, #-114]	; 0x72
    2434:	00003001 	andeq	r3, r0, r1
    2438:	74910200 	ldrvc	r0, [r1], #512	; 0x200
    243c:	0c3c1400 	cfldrseq	mvf1, [ip], #-0
    2440:	29020000 	stmdbcs	r2, {}	; <UNPREDICTABLE>
    2444:	00301001 	eorseq	r1, r0, r1
    2448:	000054a0 	andeq	r5, r0, r0, lsr #9
    244c:	3c9c0100 	ldfccs	f0, [ip], {0}
    2450:	12000008 	andne	r0, r0, #8
    2454:	00727453 	rsbseq	r7, r2, r3, asr r4
    2458:	30012902 	andcc	r2, r1, r2, lsl #18
    245c:	02000000 	andeq	r0, r0, #0
    2460:	13007491 	movwne	r7, #1169	; 0x491
    2464:	00000b78 	andeq	r0, r0, r8, ror fp
    2468:	a6012d02 	strge	r2, [r1], -r2, lsl #26
    246c:	64000008 	strvs	r0, [r0], #-8
    2470:	10a00030 	adcne	r0, r0, r0, lsr r0
    2474:	01000002 	tsteq	r0, r2
    2478:	0008a69c 	muleq	r8, ip, r6
    247c:	00701200 	rsbseq	r1, r0, r0, lsl #4
    2480:	1e012d02 	cdpne	13, 0, cr2, cr1, cr2, {0}
    2484:	02000001 	andeq	r0, r0, #1
    2488:	ca157491 	bgt	55f6d4 <load_address-0x9faa092c>
    248c:	0200000b 	andeq	r0, r0, #11
    2490:	0518012d 	ldreq	r0, [r8, #-301]	; 0x12d
    2494:	91020000 	mrsls	r0, (UNDEF: 2)
    2498:	09c41570 	stmibeq	r4, {r4, r5, r6, r8, sl, ip}^
    249c:	2d020000 	stccs	0, cr0, [r2, #-0]
    24a0:	00011701 	andeq	r1, r1, r1, lsl #14
    24a4:	6c910200 	lfmvs	f0, 4, [r1], {0}
    24a8:	02007610 	andeq	r7, r0, #16, 12	; 0x1000000
    24ac:	08a6012f 	stmiaeq	r6!, {r0, r1, r2, r3, r5, r8}
    24b0:	91020000 	mrsls	r0, (UNDEF: 2)
    24b4:	3148167c 	hvccc	33132	; 0x816c
    24b8:	00f8a000 	rscseq	sl, r8, r0
    24bc:	63100000 	tstvs	r0, #0
    24c0:	01420200 	mrseq	r0, (UNDEF: 98)
    24c4:	00000036 	andeq	r0, r0, r6, lsr r0
    24c8:	007b9102 	rsbseq	r9, fp, r2, lsl #2
    24cc:	07040400 	streq	r0, [r4, -r0, lsl #8]
    24d0:	00000149 	andeq	r0, r0, r9, asr #2
    24d4:	000b8013 	andeq	r8, fp, r3, lsl r0
    24d8:	01550200 	cmpeq	r5, r0, lsl #4
    24dc:	00000030 	andeq	r0, r0, r0, lsr r0
    24e0:	a0003274 	andge	r3, r0, r4, ror r2
    24e4:	0000019c 	muleq	r0, ip, r1
    24e8:	094a9c01 	stmdbeq	sl, {r0, sl, fp, ip, pc}^
    24ec:	5b150000 	blpl	5424f4 <load_address-0x9fabdb0c>
    24f0:	0200000a 	andeq	r0, r0, #10
    24f4:	01170155 	tsteq	r7, r5, asr r1
    24f8:	91020000 	mrsls	r0, (UNDEF: 2)
    24fc:	0b6a1544 	bleq	1a87a14 <load_address-0x9e5785ec>
    2500:	55020000 	strpl	r0, [r2, #-0]
    2504:	00003001 	andeq	r3, r0, r1
    2508:	40910200 	addsmi	r0, r1, r0, lsl #4
    250c:	000b1515 	andeq	r1, fp, r5, lsl r5
    2510:	01550200 	cmpeq	r5, r0, lsl #4
    2514:	00000117 	andeq	r0, r0, r7, lsl r1
    2518:	7fbc9103 	svcvc	0x00bc9103
    251c:	706d7410 	rsbvc	r7, sp, r0, lsl r4
    2520:	01570200 	cmpeq	r7, r0, lsl #4
    2524:	0000094a 	andeq	r0, r0, sl, asr #18
    2528:	10489102 	subne	r9, r8, r2, lsl #2
    252c:	02007074 	andeq	r7, r0, #116	; 0x74
    2530:	00300158 	eorseq	r0, r0, r8, asr r1
    2534:	91020000 	mrsls	r0, (UNDEF: 2)
    2538:	0069107c 	rsbeq	r1, r9, ip, ror r0
    253c:	17015902 	strne	r5, [r1, -r2, lsl #18]
    2540:	02000001 	andeq	r0, r0, #1
    2544:	76106c91 			; <UNDEFINED> instruction: 0x76106c91
    2548:	015a0200 	cmpeq	sl, r0, lsl #4
    254c:	00000048 	andeq	r0, r0, r8, asr #32
    2550:	17789102 	ldrbne	r9, [r8, -r2, lsl #2]!
    2554:	00000b33 	andeq	r0, r0, r3, lsr fp
    2558:	17015b02 	strne	r5, [r1, -r2, lsl #22]
    255c:	02000001 	andeq	r0, r0, #1
    2560:	73107091 	tstvc	r0, #145	; 0x91
    2564:	5c020070 	stcpl	0, cr0, [r2], {112}	; 0x70
    2568:	00003001 	andeq	r3, r0, r1
    256c:	74910200 	ldrvc	r0, [r1], #512	; 0x200
    2570:	00361800 	eorseq	r1, r6, r0, lsl #16
    2574:	095a0000 	ldmdbeq	sl, {}^	; <UNPREDICTABLE>
    2578:	5a190000 	bpl	642580 <load_address-0x9f9bda80>
    257c:	20000009 	andcs	r0, r0, r9
    2580:	07040400 	streq	r0, [r4, -r0, lsl #8]
    2584:	00000254 	andeq	r0, r0, r4, asr r2
    2588:	000bef05 	andeq	lr, fp, r5, lsl #30
    258c:	17200300 	strne	r0, [r0, -r0, lsl #6]!
    2590:	10000001 	andne	r0, r0, r1
    2594:	94a00034 	strtls	r0, [r0], #52	; 0x34
    2598:	01000000 	mrseq	r0, (UNDEF: 0)
    259c:	0009939c 	muleq	r9, ip, r3
    25a0:	00730600 	rsbseq	r0, r3, r0, lsl #12
    25a4:	09932003 	ldmibeq	r3, {r0, r1, sp}
    25a8:	91020000 	mrsls	r0, (UNDEF: 2)
    25ac:	00690874 	rsbeq	r0, r9, r4, ror r8
    25b0:	01172203 	tsteq	r7, r3, lsl #4
    25b4:	91020000 	mrsls	r0, (UNDEF: 2)
    25b8:	0403007c 	streq	r0, [r3], #-124	; 0x7c
    25bc:	0000011e 	andeq	r0, r0, lr, lsl r1
    25c0:	000c2d05 	andeq	r2, ip, r5, lsl #26
    25c4:	30270300 	eorcc	r0, r7, r0, lsl #6
    25c8:	a4000000 	strge	r0, [r0], #-0
    25cc:	fca00034 	stc2	0, cr0, [r0], #208	; 0xd0
    25d0:	01000003 	tsteq	r0, r3
    25d4:	000a649c 	muleq	sl, ip, r4
    25d8:	74730600 	ldrbtvc	r0, [r3], #-1536	; 0x600
    25dc:	27030072 	smlsdxcs	r3, r2, r0, r0
    25e0:	00000030 	andeq	r0, r0, r0, lsr r0
    25e4:	7fa49103 	svcvc	0x00a49103
    25e8:	6d756e06 	ldclvs	14, cr6, [r5, #-24]!	; 0xffffffe8
    25ec:	64270300 	strtvs	r0, [r7], #-768	; 0x300
    25f0:	0300000a 	movweq	r0, #10
    25f4:	0c7f9891 	ldcleq	8, cr9, [pc], #-580	; 23b8 <load_address-0x9fffdc48>
    25f8:	000009c4 	andeq	r0, r0, r4, asr #19
    25fc:	01172703 	tsteq	r7, r3, lsl #14
    2600:	91020000 	mrsls	r0, (UNDEF: 2)
    2604:	0a070c00 	beq	1c560c <load_address-0x9fe3a9f4>
    2608:	27030000 	strcs	r0, [r3, -r0]
    260c:	00000117 	andeq	r0, r0, r7, lsl r1
    2610:	0c049102 	stfeqd	f1, [r4], {2}
    2614:	00000c45 	andeq	r0, r0, r5, asr #24
    2618:	01172703 	tsteq	r7, r3, lsl #14
    261c:	91020000 	mrsls	r0, (UNDEF: 2)
    2620:	00020c08 	andeq	r0, r2, r8, lsl #24
    2624:	27030000 	strcs	r0, [r3, -r0]
    2628:	00000117 	andeq	r0, r0, r7, lsl r1
    262c:	080c9102 	stmdaeq	ip, {r1, r8, ip, pc}
    2630:	29030063 	stmdbcs	r3, {r0, r1, r5, r6}
    2634:	00000036 	andeq	r0, r0, r6, lsr r0
    2638:	0d739102 	ldfeqp	f1, [r3, #-8]!
    263c:	00000b33 	andeq	r0, r0, r3, lsr fp
    2640:	00362903 	eorseq	r2, r6, r3, lsl #18
    2644:	91020000 	mrsls	r0, (UNDEF: 2)
    2648:	6d74087f 	ldclvs	8, cr0, [r4, #-508]!	; 0xfffffe04
    264c:	29030070 	stmdbcs	r3, {r4, r5, r6}
    2650:	00000a6b 	andeq	r0, r0, fp, ror #20
    2654:	7fa89103 	svcvc	0x00a89103
    2658:	000b710d 	andeq	r7, fp, sp, lsl #2
    265c:	1e2a0300 	cdpne	3, 2, cr0, cr10, cr0, {0}
    2660:	02000001 	andeq	r0, r0, #1
    2664:	69087891 	stmdbvs	r8, {r0, r4, r7, fp, ip, sp, lr}
    2668:	172b0300 	strne	r0, [fp, -r0, lsl #6]!
    266c:	02000001 	andeq	r0, r0, #1
    2670:	60167491 	mulsvs	r6, r1, r4
    2674:	34a00036 	strtcc	r0, [r0], #54	; 0x36
    2678:	0d000000 	stceq	0, cr0, [r0, #-0]
    267c:	00000b1b 	andeq	r0, r0, fp, lsl fp
    2680:	01174c03 	tsteq	r7, r3, lsl #24
    2684:	91020000 	mrsls	r0, (UNDEF: 2)
    2688:	0400006c 	streq	r0, [r0], #-108	; 0x6c
    268c:	00950508 	addseq	r0, r5, r8, lsl #10
    2690:	36180000 	ldrcc	r0, [r8], -r0
    2694:	7b000000 	blvc	269c <load_address-0x9fffd964>
    2698:	1900000a 	stmdbne	r0, {r1, r3}
    269c:	0000095a 	andeq	r0, r0, sl, asr r9
    26a0:	21070041 	tstcs	r7, r1, asr #32
    26a4:	0300000b 	movweq	r0, #11
    26a8:	00011769 	andeq	r1, r1, r9, ror #14
    26ac:	0038a000 	eorseq	sl, r8, r0
    26b0:	0007aca0 	andeq	sl, r7, r0, lsr #25
    26b4:	859c0100 	ldrhi	r0, [ip, #256]	; 0x100
    26b8:	0600000b 	streq	r0, [r0], -fp
    26bc:	00667562 	rsbeq	r7, r6, r2, ror #10
    26c0:	00306903 	eorseq	r6, r0, r3, lsl #18
    26c4:	91020000 	mrsls	r0, (UNDEF: 2)
    26c8:	6d660644 	stclvs	6, cr0, [r6, #-272]!	; 0xfffffef0
    26cc:	69030074 	stmdbvs	r3, {r2, r4, r5, r6}
    26d0:	0000011e 	andeq	r0, r0, lr, lsl r1
    26d4:	0c409102 	stfeqp	f1, [r0], {2}
    26d8:	00000ba1 	andeq	r0, r0, r1, lsr #23
    26dc:	00256903 	eoreq	r6, r5, r3, lsl #18
    26e0:	91030000 	mrsls	r0, (UNDEF: 3)
    26e4:	6c087fbc 	stcvs	15, cr7, [r8], {188}	; 0xbc
    26e8:	03006e65 	movweq	r6, #3685	; 0xe65
    26ec:	0001176b 	andeq	r1, r1, fp, ror #14
    26f0:	50910200 	addspl	r0, r1, r0, lsl #4
    26f4:	6d756e08 	ldclvs	14, cr6, [r5, #-32]!	; 0xffffffe0
    26f8:	a66c0300 	strbtge	r0, [ip], -r0, lsl #6
    26fc:	02000008 	andeq	r0, r0, #8
    2700:	69087491 	stmdbvs	r8, {r0, r4, r7, sl, ip, sp, lr}
    2704:	176d0300 	strbne	r0, [sp, -r0, lsl #6]!
    2708:	02000001 	andeq	r0, r0, #1
    270c:	c40d7091 	strgt	r7, [sp], #-145	; 0x91
    2710:	03000009 	movweq	r0, #9
    2714:	0001176d 	andeq	r1, r1, sp, ror #14
    2718:	6c910200 	lfmvs	f0, 4, [r1], {0}
    271c:	72747308 	rsbsvc	r7, r4, #8, 6	; 0x20000000
    2720:	306e0300 	rsbcc	r0, lr, r0, lsl #6
    2724:	02000000 	andeq	r0, r0, #0
    2728:	73086891 	movwvc	r6, #34961	; 0x8891
    272c:	1e6f0300 	cdpne	3, 6, cr0, cr15, cr0, {0}
    2730:	02000001 	andeq	r0, r0, #1
    2734:	9b0d6491 	blls	35b980 <load_address-0x9fca4680>
    2738:	0300000b 	movweq	r0, #11
    273c:	00011771 	andeq	r1, r1, r1, ror r7
    2740:	60910200 	addsvs	r0, r1, r0, lsl #4
    2744:	000ae90d 	andeq	lr, sl, sp, lsl #18
    2748:	17730300 	ldrbne	r0, [r3, -r0, lsl #6]!
    274c:	02000001 	andeq	r0, r0, #1
    2750:	450d5c91 	strmi	r5, [sp, #-3217]	; 0xc91
    2754:	0300000c 	movweq	r0, #12
    2758:	00011774 	andeq	r1, r1, r4, ror r7
    275c:	58910200 	ldmpl	r1, {r9}
    2760:	000be50d 	andeq	lr, fp, sp, lsl #10
    2764:	17760300 	ldrbne	r0, [r6, -r0, lsl #6]!
    2768:	02000001 	andeq	r0, r0, #1
    276c:	071a5491 			; <UNDEFINED> instruction: 0x071a5491
    2770:	0300000b 	movweq	r0, #11
    2774:	0038fc80 	eorseq	pc, r8, r0, lsl #25
    2778:	3dfc1ba0 	ldclcc	11, cr1, [ip, #640]!	; 0x280
    277c:	002ca000 	eoreq	sl, ip, r0
    2780:	0b6d0000 	bleq	1b42788 <load_address-0x9e4bd878>
    2784:	69080000 	stmdbvs	r8, {}	; <UNPREDICTABLE>
    2788:	d9030070 	stmdble	r3, {r4, r5, r6}
    278c:	00000b85 	andeq	r0, r0, r5, lsl #23
    2790:	004c9102 	subeq	r9, ip, r2, lsl #2
    2794:	003e2c16 	eorseq	r2, lr, r6, lsl ip
    2798:	00002ca0 	andeq	r2, r0, r0, lsr #25
    279c:	70690800 	rsbvc	r0, r9, r0, lsl #16
    27a0:	8bdc0300 	blhi	ff7033a8 <stack_irq+0x5eee6650>
    27a4:	0200000b 	andeq	r0, r0, #11
    27a8:	00004891 	muleq	r0, r1, r8
    27ac:	00560403 	subseq	r0, r6, r3, lsl #8
    27b0:	04030000 	streq	r0, [r3], #-0
    27b4:	00000117 	andeq	r0, r0, r7, lsl r1
    27b8:	000b2211 	andeq	r2, fp, r1, lsl r2
    27bc:	010c0300 	mrseq	r0, LR_mon
    27c0:	00000117 	andeq	r0, r0, r7, lsl r1
    27c4:	a000404c 	andge	r4, r0, ip, asr #32
    27c8:	00000048 	andeq	r0, r0, r8, asr #32
    27cc:	0be79c01 	bleq	ff9e97d8 <stack_irq+0x5f1cca80>
    27d0:	62120000 	andsvs	r0, r2, #0
    27d4:	03006675 	movweq	r6, #1653	; 0x675
    27d8:	0030010c 	eorseq	r0, r0, ip, lsl #2
    27dc:	91020000 	mrsls	r0, (UNDEF: 2)
    27e0:	6d661264 	sfmvs	f1, 2, [r6, #-400]!	; 0xfffffe70
    27e4:	0c030074 	stceq	0, cr0, [r3], {116}	; 0x74
    27e8:	00011e01 	andeq	r1, r1, r1, lsl #28
    27ec:	74910200 	ldrvc	r0, [r1], #512	; 0x200
    27f0:	0ba1171c 	bleq	fe848468 <stack_irq+0x5e02b710>
    27f4:	0e030000 	cdpeq	0, 0, cr0, cr3, cr0, {0}
    27f8:	00002501 	andeq	r2, r0, r1, lsl #10
    27fc:	6c910200 	lfmvs	f0, 4, [r1], {0}
    2800:	03006910 	movweq	r6, #2320	; 0x910
    2804:	0117010f 	tsteq	r7, pc, lsl #2
    2808:	91020000 	mrsls	r0, (UNDEF: 2)
    280c:	8e180068 	cdphi	0, 1, cr0, cr8, cr8, {3}
    2810:	f7000000 			; <UNDEFINED> instruction: 0xf7000000
    2814:	1900000b 	stmdbne	r0, {r0, r1, r3}
    2818:	0000095a 	andeq	r0, r0, sl, asr r9
    281c:	001d00ff 	ldrsheq	r0, [sp], -pc	; <UNPREDICTABLE>
    2820:	03000000 	movweq	r0, #0
    2824:	000be705 	andeq	lr, fp, r5, lsl #14
    2828:	e8030500 	stmda	r3, {r8, sl}
    282c:	1da00096 	stcne	0, cr0, [r0, #600]!	; 0x258
    2830:	00000b38 	andeq	r0, r0, r8, lsr fp
    2834:	00301c02 	eorseq	r1, r0, r2, lsl #24
    2838:	03050000 	movweq	r0, #20480	; 0x5000
    283c:	a080ad54 	addge	sl, r0, r4, asr sp
    2840:	00046800 	andeq	r6, r4, r0, lsl #16
    2844:	a5000400 	strge	r0, [r0, #-1024]	; 0x400
    2848:	04000009 	streq	r0, [r0], #-9
    284c:	00015b01 	andeq	r5, r1, r1, lsl #22
    2850:	0df30100 	ldfeqe	f0, [r3]
    2854:	00a30000 	adceq	r0, r3, r0
    2858:	40940000 	addsmi	r0, r4, r0
    285c:	0894a000 	ldmeq	r4, {sp, pc}
    2860:	09580000 	ldmdbeq	r8, {}^	; <UNPREDICTABLE>
    2864:	04020000 	streq	r0, [r2], #-0
    2868:	746e6905 	strbtvc	r6, [lr], #-2309	; 0x905
    286c:	07040300 	streq	r0, [r4, -r0, lsl #6]
    2870:	0000014e 	andeq	r0, r0, lr, asr #2
    2874:	be050404 	cdplt	4, 0, cr0, cr5, cr4, {0}
    2878:	0300000c 	movweq	r0, #12
    287c:	00004055 	andeq	r4, r0, r5, asr r0
    2880:	07040300 	streq	r0, [r4, -r0, lsl #6]
    2884:	00000149 	andeq	r0, r0, r9, asr #2
    2888:	9a050403 	bls	14389c <load_address-0x9febc764>
    288c:	06000000 	streq	r0, [r0], -r0
    2890:	00000d0a 	andeq	r0, r0, sl, lsl #26
    2894:	97620214 			; <UNDEFINED> instruction: 0x97620214
    2898:	07000000 	streq	r0, [r0, -r0]
    289c:	00000ccb 	andeq	r0, r0, fp, asr #25
    28a0:	00356402 	eorseq	r6, r5, r2, lsl #8
    28a4:	07000000 	streq	r0, [r0, -r0]
    28a8:	00000e76 	andeq	r0, r0, r6, ror lr
    28ac:	00976502 	addseq	r6, r7, r2, lsl #10
    28b0:	07040000 	streq	r0, [r4, -r0]
    28b4:	00000d7a 	andeq	r0, r0, sl, ror sp
    28b8:	00976602 	addseq	r6, r7, r2, lsl #12
    28bc:	07080000 	streq	r0, [r8, -r0]
    28c0:	00000cdf 	ldrdeq	r0, [r0], -pc	; <UNPREDICTABLE>
    28c4:	00336702 	eorseq	r6, r3, r2, lsl #14
    28c8:	070c0000 	streq	r0, [ip, -r0]
    28cc:	00000c89 	andeq	r0, r0, r9, lsl #25
    28d0:	00336802 	eorseq	r6, r3, r2, lsl #16
    28d4:	00100000 	andseq	r0, r0, r0
    28d8:	009d0408 	addseq	r0, sp, r8, lsl #8
    28dc:	4e090000 	cdpmi	0, 0, cr0, cr9, cr0, {0}
    28e0:	05000000 	streq	r0, [r0, #-0]
    28e4:	00000eb6 			; <UNDEFINED> instruction: 0x00000eb6
    28e8:	004e6a02 	subeq	r6, lr, r2, lsl #20
    28ec:	14060000 	strne	r0, [r6], #-0
    28f0:	0c00000f 	stceq	0, cr0, [r0], {15}
    28f4:	00de6c02 	sbcseq	r6, lr, r2, lsl #24
    28f8:	cb070000 	blgt	1c2900 <load_address-0x9fe3d700>
    28fc:	0200000c 	andeq	r0, r0, #12
    2900:	0000356e 	andeq	r3, r0, lr, ror #10
    2904:	76070000 	strvc	r0, [r7], -r0
    2908:	0200000e 	andeq	r0, r0, #14
    290c:	0000976f 	andeq	r9, r0, pc, ror #14
    2910:	7a070400 	bvc	1c3918 <load_address-0x9fe3c6e8>
    2914:	0200000d 	andeq	r0, r0, #13
    2918:	00009770 	andeq	r9, r0, r0, ror r7
    291c:	05000800 	streq	r0, [r0, #-2048]	; 0x800
    2920:	00000e89 	andeq	r0, r0, r9, lsl #29
    2924:	00ad7202 	adceq	r7, sp, r2, lsl #4
    2928:	24060000 	strcs	r0, [r6], #-0
    292c:	1400000f 	strne	r0, [r0], #-15
    2930:	011a7702 	tsteq	sl, r2, lsl #14
    2934:	16070000 	strne	r0, [r7], -r0
    2938:	0200000e 	andeq	r0, r0, #14
    293c:	00011a79 	andeq	r1, r1, r9, ror sl
    2940:	b6070000 	strlt	r0, [r7], -r0
    2944:	0200000c 	andeq	r0, r0, #12
    2948:	00011f7a 	andeq	r1, r1, sl, ror pc
    294c:	d6070400 	strle	r0, [r7], -r0, lsl #8
    2950:	0200000c 	andeq	r0, r0, #12
    2954:	00012a7b 	andeq	r2, r1, fp, ror sl
    2958:	09000800 	stmdbeq	r0, {fp}
    295c:	00000040 	andeq	r0, r0, r0, asr #32
    2960:	01250408 	teqeq	r5, r8, lsl #8
    2964:	a2090000 	andge	r0, r9, #0
    2968:	09000000 	stmdbeq	r0, {}	; <UNPREDICTABLE>
    296c:	000000de 	ldrdeq	r0, [r0], -lr
    2970:	00102405 	andseq	r2, r0, r5, lsl #8
    2974:	e97c0200 	ldmdb	ip!, {r9}^
    2978:	03000000 	movweq	r0, #0
    297c:	01380601 	teqeq	r8, r1, lsl #12
    2980:	02030000 	andeq	r0, r3, #0
    2984:	0001be07 	andeq	fp, r1, r7, lsl #28
    2988:	07040300 	streq	r0, [r4, -r0, lsl #6]
    298c:	00000254 	andeq	r0, r0, r4, asr r2
    2990:	000e4a05 	andeq	r4, lr, r5, lsl #20
    2994:	334c0400 	movtcc	r0, #50176	; 0xc400
    2998:	05000000 	streq	r0, [r0, #-0]
    299c:	00000f88 	andeq	r0, r0, r8, lsl #31
    29a0:	01654f04 	cmneq	r5, r4, lsl #30
    29a4:	04080000 	streq	r0, [r8], #-0
    29a8:	0000016b 	andeq	r0, r0, fp, ror #2
    29ac:	00017b0a 	andeq	r7, r1, sl, lsl #22
    29b0:	014f0b00 	cmpeq	pc, r0, lsl #22
    29b4:	400b0000 	andmi	r0, fp, r0
    29b8:	00000000 	andeq	r0, r0, r0
    29bc:	000d9506 	andeq	r9, sp, r6, lsl #10
    29c0:	51043800 	tstpl	r4, r0, lsl #16
    29c4:	000001d0 	ldrdeq	r0, [r0], -r0	; <UNPREDICTABLE>
    29c8:	000c9507 	andeq	r9, ip, r7, lsl #10
    29cc:	5a530400 	bpl	14c39d4 <load_address-0x9eb3c62c>
    29d0:	00000001 	andeq	r0, r0, r1
    29d4:	000f5407 	andeq	r5, pc, r7, lsl #8
    29d8:	a2540400 	subsge	r0, r4, #0, 8
    29dc:	04000000 	streq	r0, [r0], #-0
    29e0:	000f6507 	andeq	r6, pc, r7, lsl #10
    29e4:	a2550400 	subsge	r0, r5, #0, 8
    29e8:	18000000 	stmdane	r0, {}	; <UNPREDICTABLE>
    29ec:	000e3f07 	andeq	r3, lr, r7, lsl #30
    29f0:	40560400 	subsmi	r0, r6, r0, lsl #8
    29f4:	2c000000 	stccs	0, cr0, [r0], {-0}
    29f8:	000deb07 	andeq	lr, sp, r7, lsl #22
    29fc:	40570400 	subsmi	r0, r7, r0, lsl #8
    2a00:	30000000 	andcc	r0, r0, r0
    2a04:	000edf07 	andeq	sp, lr, r7, lsl #30
    2a08:	41580400 	cmpmi	r8, r0, lsl #8
    2a0c:	34000001 	strcc	r0, [r0], #-1
    2a10:	0d6b0500 	cfstr64eq	mvdx0, [fp, #-0]
    2a14:	59040000 	stmdbpl	r4, {}	; <UNPREDICTABLE>
    2a18:	0000017b 	andeq	r0, r0, fp, ror r1
    2a1c:	000e050c 	andeq	r0, lr, ip, lsl #10
    2a20:	47830100 	strmi	r0, [r3, r0, lsl #2]
    2a24:	94000000 	strls	r0, [r0], #-0
    2a28:	88a00040 	stmiahi	r0!, {r6}
    2a2c:	01000001 	tsteq	r0, r1
    2a30:	00023b9c 	muleq	r2, ip, fp
    2a34:	0d850d00 	stceq	13, cr0, [r5]
    2a38:	83010000 	movwhi	r0, #4096	; 0x1000
    2a3c:	0000015a 	andeq	r0, r0, sl, asr r1
    2a40:	0d6c9102 	stfeqp	f1, [ip, #-8]!
    2a44:	00000e3f 	andeq	r0, r0, pc, lsr lr
    2a48:	00408301 	subeq	r8, r0, r1, lsl #6
    2a4c:	91020000 	mrsls	r0, (UNDEF: 2)
    2a50:	0deb0d68 	stcleq	13, cr0, [fp, #416]!	; 0x1a0
    2a54:	83010000 	movwhi	r0, #4096	; 0x1000
    2a58:	00000040 	andeq	r0, r0, r0, asr #32
    2a5c:	0e649102 	lgneqs	f1, f2
    2a60:	000011df 	ldrdeq	r1, [r0], -pc	; <UNPREDICTABLE>
    2a64:	00478501 	subeq	r8, r7, r1, lsl #10
    2a68:	91020000 	mrsls	r0, (UNDEF: 2)
    2a6c:	0ed30e74 	mrceq	14, 6, r0, cr3, cr4, {3}
    2a70:	86010000 	strhi	r0, [r1], -r0
    2a74:	0000023b 	andeq	r0, r0, fp, lsr r2
    2a78:	00709102 	rsbseq	r9, r0, r2, lsl #2
    2a7c:	01d00408 	bicseq	r0, r0, r8, lsl #8
    2a80:	6e0f0000 	cdpvs	0, 0, cr0, cr15, cr0, {0}
    2a84:	0100000c 	tsteq	r0, ip
    2a88:	00421cbc 	strheq	r1, [r2], #-204	; 0xffffff34
    2a8c:	000110a0 	andeq	r1, r1, r0, lsr #1
    2a90:	819c0100 	orrshi	r0, ip, r0, lsl #2
    2a94:	0d000002 	stceq	0, cr0, [r0, #-8]
    2a98:	00000f46 	andeq	r0, r0, r6, asr #30
    2a9c:	0035bc01 	eorseq	fp, r5, r1, lsl #24
    2aa0:	91020000 	mrsls	r0, (UNDEF: 2)
    2aa4:	0e7d0d6c 	cdpeq	13, 7, cr0, cr13, cr12, {3}
    2aa8:	bc010000 	stclt	0, cr0, [r1], {-0}
    2aac:	00000281 	andeq	r0, r0, r1, lsl #5
    2ab0:	0e689102 	lgneqe	f1, f2
    2ab4:	00000eaa 	andeq	r0, r0, sl, lsr #29
    2ab8:	0035be01 	eorseq	fp, r5, r1, lsl #28
    2abc:	91020000 	mrsls	r0, (UNDEF: 2)
    2ac0:	04080074 	streq	r0, [r8], #-116	; 0x74
    2ac4:	0000012f 	andeq	r0, r0, pc, lsr #2
    2ac8:	000e2610 	andeq	r2, lr, r0, lsl r6
    2acc:	2ce20100 	stfcse	f0, [r2]
    2ad0:	e4a00043 	strt	r0, [r0], #67	; 0x43
    2ad4:	01000000 	mrseq	r0, (UNDEF: 0)
    2ad8:	0002b59c 	muleq	r2, ip, r5
    2adc:	43381100 	teqmi	r8, #0, 2
    2ae0:	00a8a000 	adceq	sl, r8, r0
    2ae4:	570e0000 	strpl	r0, [lr, -r0]
    2ae8:	0100000c 	tsteq	r0, ip
    2aec:	00023be9 	andeq	r3, r2, r9, ror #23
    2af0:	74910200 	ldrvc	r0, [r1], #512	; 0x200
    2af4:	74100000 	ldrvc	r0, [r0], #-0
    2af8:	0100000f 	tsteq	r0, pc
    2afc:	004410f9 	strdeq	r1, [r4], #-9
    2b00:	000234a0 	andeq	r3, r2, r0, lsr #9
    2b04:	f29c0100 	vaddw.s16	q0, q6, d0
    2b08:	0e000002 	cdpeq	0, 0, cr0, cr0, cr2, {0}
    2b0c:	00000d73 	andeq	r0, r0, r3, ror sp
    2b10:	023bfb01 	eorseq	pc, fp, #1024	; 0x400
    2b14:	91020000 	mrsls	r0, (UNDEF: 2)
    2b18:	448c1170 	strmi	r1, [ip], #368	; 0x170
    2b1c:	0038a000 	eorseq	sl, r8, r0
    2b20:	67120000 	ldrvs	r0, [r2, -r0]
    2b24:	0100000c 	tsteq	r0, ip
    2b28:	02810106 	addeq	r0, r1, #-2147483647	; 0x80000001
    2b2c:	91020000 	mrsls	r0, (UNDEF: 2)
    2b30:	13000074 	movwne	r0, #116	; 0x74
    2b34:	00000ec0 	andeq	r0, r0, r0, asr #29
    2b38:	44013301 	strmi	r3, [r1], #-769	; 0x301
    2b3c:	70a00046 	adcvc	r0, r0, r6, asr #32
    2b40:	01000001 	tsteq	r0, r1
    2b44:	0003229c 	muleq	r3, ip, r2
    2b48:	46c81100 	strbmi	r1, [r8], r0, lsl #2
    2b4c:	0084a000 	addeq	sl, r4, r0
    2b50:	15120000 	ldrne	r0, [r2, #-0]
    2b54:	0100000d 	tsteq	r0, sp
    2b58:	03220148 	teqeq	r2, #72, 2
    2b5c:	91020000 	mrsls	r0, (UNDEF: 2)
    2b60:	14000074 	strne	r0, [r0], #-116	; 0x74
    2b64:	00000281 	andeq	r0, r0, r1, lsl #5
    2b68:	000f2a15 	andeq	r2, pc, r5, lsl sl	; <UNPREDICTABLE>
    2b6c:	01510100 	cmpeq	r1, r0, lsl #2
    2b70:	a00047b4 			; <UNDEFINED> instruction: 0xa00047b4
    2b74:	000000d4 	ldrdeq	r0, [r0], -r4
    2b78:	034d9c01 	movteq	r9, #56321	; 0xdc01
    2b7c:	3f120000 	svccc	0x00120000
    2b80:	0100000e 	tsteq	r0, lr
    2b84:	00400153 	subeq	r0, r0, r3, asr r1
    2b88:	91020000 	mrsls	r0, (UNDEF: 2)
    2b8c:	ae160074 	mrcge	0, 0, r0, cr6, cr4, {3}
    2b90:	0100000d 	tsteq	r0, sp
    2b94:	00470165 	subeq	r0, r7, r5, ror #2
    2b98:	48880000 	stmmi	r8, {}	; <UNPREDICTABLE>
    2b9c:	00a0a000 	adceq	sl, r0, r0
    2ba0:	9c010000 	stcls	0, cr0, [r1], {-0}
    2ba4:	00000395 	muleq	r0, r5, r3
    2ba8:	000e7d17 	andeq	r7, lr, r7, lsl sp
    2bac:	01650100 	cmneq	r5, r0, lsl #2
    2bb0:	00000395 	muleq	r0, r5, r3
    2bb4:	126c9102 	rsbne	r9, ip, #-2147483648	; 0x80000000
    2bb8:	00000c57 	andeq	r0, r0, r7, asr ip
    2bbc:	3b016701 	blcc	5c7c8 <load_address-0x9ffa3838>
    2bc0:	02000002 	andeq	r0, r0, #2
    2bc4:	df127091 	svcle	0x00127091
    2bc8:	01000011 	tsteq	r0, r1, lsl r0
    2bcc:	00470168 	subeq	r0, r7, r8, ror #2
    2bd0:	91020000 	mrsls	r0, (UNDEF: 2)
    2bd4:	04080074 	streq	r0, [r8], #-116	; 0x74
    2bd8:	0000039b 	muleq	r0, fp, r3
    2bdc:	00012f14 	andeq	r2, r1, r4, lsl pc
    2be0:	012f1800 	teqeq	pc, r0, lsl #16
    2be4:	03b00000 	movseq	r0, #0
    2be8:	48190000 	ldmdami	r9, {}	; <UNPREDICTABLE>
    2bec:	01000001 	tsteq	r0, r1
    2bf0:	0efe0e00 	cdpeq	14, 15, cr0, cr14, cr0, {0}
    2bf4:	4a010000 	bmi	42bfc <load_address-0x9ffbd404>
    2bf8:	000003a0 	andeq	r0, r0, r0, lsr #7
    2bfc:	98fc0305 	ldmls	ip!, {r0, r2, r8, r9}^
    2c00:	3d0ea000 	stccc	0, cr10, [lr, #-0]
    2c04:	0100000d 	tsteq	r0, sp
    2c08:	00012f4b 	andeq	r2, r1, fp, asr #30
    2c0c:	24030500 	strcs	r0, [r3], #-1280	; 0x500
    2c10:	0ea00099 	mcreq	0, 5, r0, cr0, cr9, {4}
    2c14:	00000d54 	andeq	r0, r0, r4, asr sp
    2c18:	012f4c01 	teqeq	pc, r1, lsl #24
    2c1c:	03050000 	movweq	r0, #20480	; 0x5000
    2c20:	a0009938 	andge	r9, r0, r8, lsr r9
    2c24:	000ee70e 	andeq	lr, lr, lr, lsl #14
    2c28:	814d0100 	mrshi	r0, (UNDEF: 93)
    2c2c:	05000002 	streq	r0, [r0, #-2]
    2c30:	00994c03 	addseq	r4, r9, r3, lsl #24
    2c34:	0dcc0ea0 	stcleq	14, cr0, [ip, #640]	; 0x280
    2c38:	4e010000 	cdpmi	0, 0, cr0, cr1, cr0, {0}
    2c3c:	00000281 	andeq	r0, r0, r1, lsl #5
    2c40:	99500305 	ldmdbls	r0, {r0, r2, r8, r9}^
    2c44:	5b0ea000 	blpl	3aac4c <load_address-0x9fc553b4>
    2c48:	0100000e 	tsteq	r0, lr
    2c4c:	00012f4f 	andeq	r2, r1, pc, asr #30
    2c50:	54030500 	strpl	r0, [r3], #-1280	; 0x500
    2c54:	0ea00099 	mcreq	0, 5, r0, cr0, cr9, {4}
    2c58:	00000d21 	andeq	r0, r0, r1, lsr #26
    2c5c:	00405301 	subeq	r5, r0, r1, lsl #6
    2c60:	03050000 	movweq	r0, #20480	; 0x5000
    2c64:	a000996c 	andge	r9, r0, ip, ror #18
    2c68:	000cf60e 	andeq	pc, ip, lr, lsl #12
    2c6c:	35540100 	ldrbcc	r0, [r4, #-256]	; 0x100
    2c70:	05000000 	streq	r0, [r0, #-0]
    2c74:	00997003 	addseq	r7, r9, r3
    2c78:	0ce70ea0 	stcleq	14, cr0, [r7], #640	; 0x280
    2c7c:	54010000 	strpl	r0, [r1], #-0
    2c80:	00000035 	andeq	r0, r0, r5, lsr r0
    2c84:	99740305 	ldmdbls	r4!, {r0, r2, r8, r9}^
    2c88:	a90ea000 	stmdbge	lr, {sp, pc}
    2c8c:	0100000c 	tsteq	r0, ip
    2c90:	00003554 	andeq	r3, r0, r4, asr r5
    2c94:	78030500 	stmdavc	r3, {r8, sl}
    2c98:	1aa00099 	bne	fe802f04 <stack_irq+0x5dfe61ac>
    2c9c:	00000e97 	muleq	r0, r7, lr
    2ca0:	023b5201 	eorseq	r5, fp, #268435456	; 0x10000000
    2ca4:	03050000 	movweq	r0, #20480	; 0x5000
    2ca8:	a0009968 	andge	r9, r0, r8, ror #18
    2cac:	00027f00 	andeq	r7, r2, r0, lsl #30
    2cb0:	2c000400 	cfstrscs	mvf0, [r0], {-0}
    2cb4:	0400000b 	streq	r0, [r0], #-11
    2cb8:	00015b01 	andeq	r5, r1, r1, lsl #22
    2cbc:	0f990100 	svceq	0x00990100
    2cc0:	00a30000 	adceq	r0, r3, r0
    2cc4:	49280000 	stmdbmi	r8!, {}	; <UNPREDICTABLE>
    2cc8:	024ca000 	subeq	sl, ip, #0
    2ccc:	0ace0000 	beq	ff382cd4 <stack_irq+0x5eb65f7c>
    2cd0:	04020000 	streq	r0, [r2], #-0
    2cd4:	00014e07 	andeq	r4, r1, r7, lsl #28
    2cd8:	05040300 	streq	r0, [r4, #-768]	; 0x300
    2cdc:	00746e69 	rsbseq	r6, r4, r9, ror #28
    2ce0:	38060102 	stmdacc	r6, {r1, r8}
    2ce4:	02000001 	andeq	r0, r0, #1
    2ce8:	01360801 	teqeq	r6, r1, lsl #16
    2cec:	02020000 	andeq	r0, r2, #0
    2cf0:	00101905 	andseq	r1, r0, r5, lsl #18
    2cf4:	07020200 	streq	r0, [r2, -r0, lsl #4]
    2cf8:	000001be 			; <UNDEFINED> instruction: 0x000001be
    2cfc:	9a050402 	bls	143d0c <load_address-0x9febc2f4>
    2d00:	02000000 	andeq	r0, r0, #0
    2d04:	01490704 	cmpeq	r9, r4, lsl #14
    2d08:	08020000 	stmdaeq	r2, {}	; <UNPREDICTABLE>
    2d0c:	00009505 	andeq	r9, r0, r5, lsl #10
    2d10:	07080200 	streq	r0, [r8, -r0, lsl #4]
    2d14:	00000144 	andeq	r0, r0, r4, asr #2
    2d18:	54070402 	strpl	r0, [r7], #-1026	; 0x402
    2d1c:	04000002 	streq	r0, [r0], #-2
    2d20:	08010204 	stmdaeq	r1, {r2, r9}
    2d24:	0000013f 	andeq	r0, r0, pc, lsr r1
    2d28:	000cbe05 	andeq	fp, ip, r5, lsl #28
    2d2c:	56550300 	ldrbpl	r0, [r5], -r0, lsl #6
    2d30:	06000000 	streq	r0, [r0], -r0
    2d34:	00000d0a 	andeq	r0, r0, sl, lsl #26
    2d38:	cf620214 	svcgt	0x00620214
    2d3c:	07000000 	streq	r0, [r0, -r0]
    2d40:	00000ccb 	andeq	r0, r0, fp, asr #25
    2d44:	007b6402 	rsbseq	r6, fp, r2, lsl #8
    2d48:	07000000 	streq	r0, [r0, -r0]
    2d4c:	00000e76 	andeq	r0, r0, r6, ror lr
    2d50:	00cf6502 	sbceq	r6, pc, r2, lsl #10
    2d54:	07040000 	streq	r0, [r4, -r0]
    2d58:	00000d7a 	andeq	r0, r0, sl, ror sp
    2d5c:	00cf6602 	sbceq	r6, pc, r2, lsl #12
    2d60:	07080000 	streq	r0, [r8, -r0]
    2d64:	00000cdf 	ldrdeq	r0, [r0], -pc	; <UNPREDICTABLE>
    2d68:	00726702 	rsbseq	r6, r2, r2, lsl #14
    2d6c:	070c0000 	streq	r0, [ip, -r0]
    2d70:	00000c89 	andeq	r0, r0, r9, lsl #25
    2d74:	00726802 	rsbseq	r6, r2, r2, lsl #16
    2d78:	00100000 	andseq	r0, r0, r0
    2d7c:	00d50408 	sbcseq	r0, r5, r8, lsl #8
    2d80:	86090000 	strhi	r0, [r9], -r0
    2d84:	05000000 	streq	r0, [r0, #-0]
    2d88:	00000eb6 			; <UNDEFINED> instruction: 0x00000eb6
    2d8c:	00866a02 	addeq	r6, r6, r2, lsl #20
    2d90:	14060000 	strne	r0, [r6], #-0
    2d94:	0c00000f 	stceq	0, cr0, [r0], {15}
    2d98:	01166c02 	tsteq	r6, r2, lsl #24
    2d9c:	cb070000 	blgt	1c2da4 <load_address-0x9fe3d25c>
    2da0:	0200000c 	andeq	r0, r0, #12
    2da4:	00007b6e 	andeq	r7, r0, lr, ror #22
    2da8:	76070000 	strvc	r0, [r7], -r0
    2dac:	0200000e 	andeq	r0, r0, #14
    2db0:	0000cf6f 	andeq	ip, r0, pc, ror #30
    2db4:	7a070400 	bvc	1c3dbc <load_address-0x9fe3c244>
    2db8:	0200000d 	andeq	r0, r0, #13
    2dbc:	0000cf70 	andeq	ip, r0, r0, ror pc
    2dc0:	05000800 	streq	r0, [r0, #-2048]	; 0x800
    2dc4:	00000e89 	andeq	r0, r0, r9, lsl #29
    2dc8:	00e57202 	rsceq	r7, r5, r2, lsl #4
    2dcc:	24060000 	strcs	r0, [r6], #-0
    2dd0:	1400000f 	strne	r0, [r0], #-15
    2dd4:	01527702 	cmpeq	r2, r2, lsl #14
    2dd8:	16070000 	strne	r0, [r7], -r0
    2ddc:	0200000e 	andeq	r0, r0, #14
    2de0:	00015279 	andeq	r5, r1, r9, ror r2
    2de4:	b6070000 	strlt	r0, [r7], -r0
    2de8:	0200000c 	andeq	r0, r0, #12
    2dec:	0001577a 	andeq	r5, r1, sl, ror r7
    2df0:	d6070400 	strle	r0, [r7], -r0, lsl #8
    2df4:	0200000c 	andeq	r0, r0, #12
    2df8:	0001627b 	andeq	r6, r1, fp, ror r2
    2dfc:	09000800 	stmdbeq	r0, {fp}
    2e00:	00000056 	andeq	r0, r0, r6, asr r0
    2e04:	015d0408 	cmpeq	sp, r8, lsl #8
    2e08:	da090000 	ble	242e10 <load_address-0x9fdbd1f0>
    2e0c:	09000000 	stmdbeq	r0, {}	; <UNPREDICTABLE>
    2e10:	00000116 	andeq	r0, r0, r6, lsl r1
    2e14:	00102405 	andseq	r2, r0, r5, lsl #8
    2e18:	217c0200 	cmncs	ip, r0, lsl #4
    2e1c:	0a000001 	beq	2e28 <load_address-0x9fffd1d8>
    2e20:	00000fd9 	ldrdeq	r0, [r0], -r9
    2e24:	49284501 	stmdbmi	r8!, {r0, r8, sl, lr}
    2e28:	0058a000 	subseq	sl, r8, r0
    2e2c:	9c010000 	stcls	0, cr0, [r1], {-0}
    2e30:	00000196 	muleq	r0, r6, r1
    2e34:	0010230b 	andseq	r2, r0, fp, lsl #6
    2e38:	96450100 	strbls	r0, [r5], -r0, lsl #2
    2e3c:	02000001 	andeq	r0, r0, #1
    2e40:	08007c91 	stmdaeq	r0, {r0, r4, r7, sl, fp, ip, sp, lr}
    2e44:	00016704 	andeq	r6, r1, r4, lsl #14
    2e48:	0fb60a00 	svceq	0x00b60a00
    2e4c:	59010000 	stmdbpl	r1, {}	; <UNPREDICTABLE>
    2e50:	a0004980 	andge	r4, r0, r0, lsl #19
    2e54:	0000001c 	andeq	r0, r0, ip, lsl r0
    2e58:	01c09c01 	biceq	r9, r0, r1, lsl #24
    2e5c:	fb0b0000 	blx	2c2e66 <load_address-0x9fd3d19a>
    2e60:	0100000f 	tsteq	r0, pc
    2e64:	0001c059 	andeq	ip, r1, r9, asr r0
    2e68:	7c910200 	lfmvc	f0, 4, [r1], {0}
    2e6c:	da040800 	ble	104e74 <load_address-0x9fefb18c>
    2e70:	0a000000 	beq	2e78 <load_address-0x9fffd188>
    2e74:	00000fca 	andeq	r0, r0, sl, asr #31
    2e78:	499c6001 	ldmibmi	ip, {r0, sp, lr}
    2e7c:	0088a000 	addeq	sl, r8, r0
    2e80:	9c010000 	stcls	0, cr0, [r1], {-0}
    2e84:	00000206 	andeq	r0, r0, r6, lsl #4
    2e88:	0010230b 	andseq	r2, r0, fp, lsl #6
    2e8c:	96600100 	strbtls	r0, [r0], -r0, lsl #2
    2e90:	02000001 	andeq	r0, r0, #1
    2e94:	2a0b7491 	bcs	2e00e0 <load_address-0x9fd1ff20>
    2e98:	01000010 	tsteq	r0, r0, lsl r0
    2e9c:	0001c060 	andeq	ip, r1, r0, rrx
    2ea0:	70910200 	addsvc	r0, r1, r0, lsl #4
    2ea4:	000cb60c 	andeq	fp, ip, ip, lsl #12
    2ea8:	57620100 	strbpl	r0, [r2, -r0, lsl #2]!
    2eac:	02000001 	andeq	r0, r0, #1
    2eb0:	0a007c91 	beq	220fc <load_address-0x9ffddf04>
    2eb4:	00001038 	andeq	r1, r0, r8, lsr r0
    2eb8:	4a247701 	bmi	920ac4 <load_address-0x9f6df53c>
    2ebc:	00c8a000 	sbceq	sl, r8, r0
    2ec0:	9c010000 	stcls	0, cr0, [r1], {-0}
    2ec4:	00000254 	andeq	r0, r0, r4, asr r2
    2ec8:	0010230b 	andseq	r2, r0, fp, lsl #6
    2ecc:	96770100 	ldrbtls	r0, [r7], -r0, lsl #2
    2ed0:	02000001 	andeq	r0, r0, #1
    2ed4:	2a0b7491 	bcs	2e0120 <load_address-0x9fd1fee0>
    2ed8:	01000010 	tsteq	r0, r0, lsl r0
    2edc:	0001c077 	andeq	ip, r1, r7, ror r0
    2ee0:	70910200 	addsvc	r0, r1, r0, lsl #4
    2ee4:	00100e0c 	andseq	r0, r0, ip, lsl #28
    2ee8:	57790100 	ldrbpl	r0, [r9, -r0, lsl #2]!
    2eec:	02000001 	andeq	r0, r0, #1
    2ef0:	e90c7c91 	stmdb	ip, {r0, r4, r7, sl, fp, ip, sp, lr}
    2ef4:	0100000f 	tsteq	r0, pc
    2ef8:	00007b7a 	andeq	r7, r0, sl, ror fp
    2efc:	78910200 	ldmvc	r1, {r9}
    2f00:	10020d00 	andne	r0, r2, r0, lsl #26
    2f04:	b0010000 	andlt	r0, r1, r0
    2f08:	a0004aec 	andge	r4, r0, ip, ror #21
    2f0c:	00000088 	andeq	r0, r0, r8, lsl #1
    2f10:	a70b9c01 	strge	r9, [fp, -r1, lsl #24]
    2f14:	0100000f 	tsteq	r0, pc
    2f18:	0001c0b0 	strheq	ip, [r1], -r0
    2f1c:	74910200 	ldrvc	r0, [r1], #512	; 0x200
    2f20:	0010230c 	andseq	r2, r0, ip, lsl #6
    2f24:	96b20100 	ldrtls	r0, [r2], r0, lsl #2
    2f28:	02000001 	andeq	r0, r0, #1
    2f2c:	00007c91 	muleq	r0, r1, ip
    2f30:	0000080c 	andeq	r0, r0, ip, lsl #16
    2f34:	0be80004 	bleq	ffa02f4c <stack_irq+0x5f1e61f4>
    2f38:	01040000 	mrseq	r0, (UNDEF: 4)
    2f3c:	0000015b 	andeq	r0, r0, fp, asr r1
    2f40:	0012aa01 	andseq	sl, r2, r1, lsl #20
    2f44:	0000a300 	andeq	sl, r0, r0, lsl #6
    2f48:	004b7400 	subeq	r7, fp, r0, lsl #8
    2f4c:	000ecca0 	andeq	ip, lr, r0, lsr #25
    2f50:	000b8f00 	andeq	r8, fp, r0, lsl #30
    2f54:	07040200 	streq	r0, [r4, -r0, lsl #4]
    2f58:	0000014e 	andeq	r0, r0, lr, asr #2
    2f5c:	69050403 	stmdbvs	r5, {r0, r1, sl}
    2f60:	0200746e 	andeq	r7, r0, #1845493760	; 0x6e000000
    2f64:	01380601 	teqeq	r8, r1, lsl #12
    2f68:	01020000 	mrseq	r0, (UNDEF: 2)
    2f6c:	00013608 	andeq	r3, r1, r8, lsl #12
    2f70:	05020200 	streq	r0, [r2, #-512]	; 0x200
    2f74:	00001019 	andeq	r1, r0, r9, lsl r0
    2f78:	be070202 	cdplt	2, 0, cr0, cr7, cr2, {0}
    2f7c:	02000001 	andeq	r0, r0, #1
    2f80:	009a0504 	addseq	r0, sl, r4, lsl #10
    2f84:	04020000 	streq	r0, [r2], #-0
    2f88:	00014907 	andeq	r4, r1, r7, lsl #18
    2f8c:	05080200 	streq	r0, [r8, #-512]	; 0x200
    2f90:	00000095 	muleq	r0, r5, r0
    2f94:	44070802 	strmi	r0, [r7], #-2050	; 0x802
    2f98:	02000001 	andeq	r0, r0, #1
    2f9c:	02540704 	subseq	r0, r4, #4, 14	; 0x100000
    2fa0:	04040000 	streq	r0, [r4], #-0
    2fa4:	3f080102 	svccc	0x00080102
    2fa8:	05000001 	streq	r0, [r0, #-1]
    2fac:	00008104 	andeq	r8, r0, r4, lsl #2
    2fb0:	1d070600 	stcne	6, cr0, [r7, #-0]
    2fb4:	0200000c 	andeq	r0, r0, #12
    2fb8:	00002506 	andeq	r2, r0, r6, lsl #10
    2fbc:	0cbe0700 	ldceq	7, cr0, [lr]
    2fc0:	55030000 	strpl	r0, [r3, #-0]
    2fc4:	00000056 	andeq	r0, r0, r6, asr r0
    2fc8:	000d0a08 	andeq	r0, sp, r8, lsl #20
    2fcc:	62041400 	andvs	r1, r4, #0, 8
    2fd0:	000000e1 	andeq	r0, r0, r1, ror #1
    2fd4:	000ccb09 	andeq	ip, ip, r9, lsl #22
    2fd8:	8d640400 	cfstrdhi	mvd0, [r4, #-0]
    2fdc:	00000000 	andeq	r0, r0, r0
    2fe0:	000e7609 	andeq	r7, lr, r9, lsl #12
    2fe4:	e1650400 	cmn	r5, r0, lsl #8
    2fe8:	04000000 	streq	r0, [r0], #-0
    2fec:	000d7a09 	andeq	r7, sp, r9, lsl #20
    2ff0:	e1660400 	cmn	r6, r0, lsl #8
    2ff4:	08000000 	stmdaeq	r0, {}	; <UNPREDICTABLE>
    2ff8:	000cdf09 	andeq	sp, ip, r9, lsl #30
    2ffc:	72670400 	rsbvc	r0, r7, #0, 8
    3000:	0c000000 	stceq	0, cr0, [r0], {-0}
    3004:	000c8909 	andeq	r8, ip, r9, lsl #18
    3008:	72680400 	rsbvc	r0, r8, #0, 8
    300c:	10000000 	andne	r0, r0, r0
    3010:	e7040500 	str	r0, [r4, -r0, lsl #10]
    3014:	0a000000 	beq	301c <load_address-0x9fffcfe4>
    3018:	00000098 	muleq	r0, r8, r0
    301c:	000eb607 	andeq	fp, lr, r7, lsl #12
    3020:	986a0400 	stmdals	sl!, {sl}^
    3024:	08000000 	stmdaeq	r0, {}	; <UNPREDICTABLE>
    3028:	00000f14 	andeq	r0, r0, r4, lsl pc
    302c:	286c040c 	stmdacs	ip!, {r2, r3, sl}^
    3030:	09000001 	stmdbeq	r0, {r0}
    3034:	00000ccb 	andeq	r0, r0, fp, asr #25
    3038:	008d6e04 	addeq	r6, sp, r4, lsl #28
    303c:	09000000 	stmdbeq	r0, {}	; <UNPREDICTABLE>
    3040:	00000e76 	andeq	r0, r0, r6, ror lr
    3044:	00e16f04 	rsceq	r6, r1, r4, lsl #30
    3048:	09040000 	stmdbeq	r4, {}	; <UNPREDICTABLE>
    304c:	00000d7a 	andeq	r0, r0, sl, ror sp
    3050:	00e17004 	rsceq	r7, r1, r4
    3054:	00080000 	andeq	r0, r8, r0
    3058:	000e8907 	andeq	r8, lr, r7, lsl #18
    305c:	f7720400 			; <UNDEFINED> instruction: 0xf7720400
    3060:	08000000 	stmdaeq	r0, {}	; <UNPREDICTABLE>
    3064:	00000f24 	andeq	r0, r0, r4, lsr #30
    3068:	64770414 	ldrbtvs	r0, [r7], #-1044	; 0x414
    306c:	09000001 	stmdbeq	r0, {r0}
    3070:	00000e16 	andeq	r0, r0, r6, lsl lr
    3074:	01647904 	cmneq	r4, r4, lsl #18
    3078:	09000000 	stmdbeq	r0, {}	; <UNPREDICTABLE>
    307c:	00000cb6 			; <UNDEFINED> instruction: 0x00000cb6
    3080:	01697a04 	cmneq	r9, r4, lsl #20
    3084:	09040000 	stmdbeq	r4, {}	; <UNPREDICTABLE>
    3088:	00000cd6 	ldrdeq	r0, [r0], -r6
    308c:	01747b04 	cmneq	r4, r4, lsl #22
    3090:	00080000 	andeq	r0, r8, r0
    3094:	0000560a 	andeq	r5, r0, sl, lsl #12
    3098:	6f040500 	svcvs	0x00040500
    309c:	0a000001 	beq	30a8 <load_address-0x9fffcf58>
    30a0:	000000ec 	andeq	r0, r0, ip, ror #1
    30a4:	0001280a 	andeq	r2, r1, sl, lsl #16
    30a8:	10240700 	eorne	r0, r4, r0, lsl #14
    30ac:	7c040000 	stcvc	0, cr0, [r4], {-0}
    30b0:	00000133 	andeq	r0, r0, r3, lsr r1
    30b4:	00110908 	andseq	r0, r1, r8, lsl #18
    30b8:	60050800 	andvs	r0, r5, r0, lsl #16
    30bc:	000001a9 	andeq	r0, r0, r9, lsr #3
    30c0:	00115609 	andseq	r5, r1, r9, lsl #12
    30c4:	4f620500 	svcmi	0x00620500
    30c8:	00000000 	andeq	r0, r0, r0
    30cc:	00119d09 	andseq	r9, r1, r9, lsl #26
    30d0:	8d630500 	cfstr64hi	mvdx0, [r3, #-0]
    30d4:	04000000 	streq	r0, [r0], #-0
    30d8:	11bf0700 			; <UNDEFINED> instruction: 0x11bf0700
    30dc:	64050000 	strvs	r0, [r5], #-0
    30e0:	00000184 	andeq	r0, r0, r4, lsl #3
    30e4:	00129a08 	andseq	r9, r2, r8, lsl #20
    30e8:	68014c00 	stmdavs	r1, {sl, fp, lr}
    30ec:	00000245 	andeq	r0, r0, r5, asr #4
    30f0:	00117d09 	andseq	r7, r1, r9, lsl #26
    30f4:	456a0100 	strbmi	r0, [sl, #-256]!	; 0x100
    30f8:	00000002 	andeq	r0, r0, r2
    30fc:	00135909 	andseq	r5, r3, r9, lsl #18
    3100:	456b0100 	strbmi	r0, [fp, #-256]!	; 0x100
    3104:	04000002 	streq	r0, [r0], #-2
    3108:	0013b409 	andseq	fp, r3, r9, lsl #8
    310c:	456d0100 	strbmi	r0, [sp, #-256]!	; 0x100
    3110:	08000002 	stmdaeq	r0, {r1}
    3114:	00113f09 	andseq	r3, r1, r9, lsl #30
    3118:	456e0100 	strbmi	r0, [lr, #-256]!	; 0x100
    311c:	0c000002 	stceq	0, cr0, [r0], {2}
    3120:	00138609 	andseq	r8, r3, r9, lsl #12
    3124:	79700100 	ldmdbvc	r0!, {r8}^
    3128:	10000001 	andne	r0, r0, r1
    312c:	00123509 	andseq	r3, r2, r9, lsl #10
    3130:	79710100 	ldmdbvc	r1!, {r8}^
    3134:	24000001 	strcs	r0, [r0], #-1
    3138:	00131909 	andseq	r1, r3, r9, lsl #18
    313c:	64730100 	ldrbtvs	r0, [r3], #-256	; 0x100
    3140:	38000001 	stmdacc	r0, {r0}
    3144:	00121e09 	andseq	r1, r2, r9, lsl #28
    3148:	56740100 	ldrbtpl	r0, [r4], -r0, lsl #2
    314c:	3c000000 	stccc	0, cr0, [r0], {-0}
    3150:	0013be09 	andseq	fp, r3, r9, lsl #28
    3154:	56750100 	ldrbtpl	r0, [r5], -r0, lsl #2
    3158:	40000000 	andmi	r0, r0, r0
    315c:	00135109 	andseq	r5, r3, r9, lsl #2
    3160:	4f770100 	svcmi	0x00770100
    3164:	44000000 	strmi	r0, [r0], #-0
    3168:	0012d209 	andseq	sp, r2, r9, lsl #4
    316c:	4f780100 	svcmi	0x00780100
    3170:	48000000 	stmdami	r0, {}	; <UNPREDICTABLE>
    3174:	33040500 	movwcc	r0, #17664	; 0x4500
    3178:	07000000 	streq	r0, [r0, -r0]
    317c:	00001285 	andeq	r1, r0, r5, lsl #5
    3180:	01b47a01 			; <UNDEFINED> instruction: 0x01b47a01
    3184:	e7070000 	str	r0, [r7, -r0]
    3188:	01000011 	tsteq	r0, r1, lsl r0
    318c:	00026182 	andeq	r6, r2, r2, lsl #3
    3190:	4b040500 	blmi	104598 <load_address-0x9fefba68>
    3194:	0b000002 	bleq	31a4 <load_address-0x9fffce5c>
    3198:	00001211 	andeq	r1, r0, r1, lsl r2
    319c:	0256fc01 	subseq	pc, r6, #256	; 0x100
    31a0:	4b740000 	blmi	1d031a8 <load_address-0x9e2fce58>
    31a4:	0148a000 	mrseq	sl, (UNDEF: 72)
    31a8:	9c010000 	stcls	0, cr0, [r1], {-0}
    31ac:	000002c8 	andeq	r0, r0, r8, asr #5
    31b0:	0012270c 	andseq	r2, r2, ip, lsl #14
    31b4:	56fc0100 	ldrbtpl	r0, [ip], r0, lsl #2
    31b8:	02000000 	andeq	r0, r0, #0
    31bc:	be0c6491 	mcrlt	4, 0, r6, cr12, cr1, {4}
    31c0:	01000013 	tsteq	r0, r3, lsl r0
    31c4:	000056fc 	strdeq	r5, [r0], -ip
    31c8:	60910200 	addsvs	r0, r1, r0, lsl #4
    31cc:	0010eb0d 	andseq	lr, r0, sp, lsl #22
    31d0:	61fe0100 	mvnsvs	r0, r0, lsl #2
    31d4:	02000002 	andeq	r0, r0, #2
    31d8:	9a0d7091 	bls	35f424 <load_address-0x9fca0bdc>
    31dc:	01000013 	tsteq	r0, r3, lsl r0
    31e0:	000082ff 	strdeq	r8, [r0], -pc	; <UNPREDICTABLE>
    31e4:	6c910200 	lfmvs	f0, 4, [r1], {0}
    31e8:	0011df0e 	andseq	sp, r1, lr, lsl #30
    31ec:	01000100 	mrseq	r0, (UNDEF: 16)
    31f0:	00000256 	andeq	r0, r0, r6, asr r2
    31f4:	00749102 	rsbseq	r9, r4, r2, lsl #2
    31f8:	0011cc0f 	andseq	ip, r1, pc, lsl #24
    31fc:	01310100 	teqeq	r1, r0, lsl #2
    3200:	00000256 	andeq	r0, r0, r6, asr r2
    3204:	a0004cbc 			; <UNDEFINED> instruction: 0xa0004cbc
    3208:	000000d0 	ldrdeq	r0, [r0], -r0	; <UNPREDICTABLE>
    320c:	02f29c01 	rscseq	r9, r2, #256	; 0x100
    3210:	eb0e0000 	bl	383218 <load_address-0x9fc7cde8>
    3214:	01000010 	tsteq	r0, r0, lsl r0
    3218:	02610133 	rsbeq	r0, r1, #-1073741812	; 0xc000000c
    321c:	91020000 	mrsls	r0, (UNDEF: 2)
    3220:	da0f0074 	ble	3c33f8 <load_address-0x9fc3cc08>
    3224:	01000012 	tsteq	r0, r2, lsl r0
    3228:	004f0162 	subeq	r0, pc, r2, ror #2
    322c:	4d8c0000 	stcmi	0, cr0, [ip]
    3230:	0080a000 	addeq	sl, r0, r0
    3234:	9c010000 	stcls	0, cr0, [r1], {-0}
    3238:	0000032b 	andeq	r0, r0, fp, lsr #6
    323c:	00120910 	andseq	r0, r2, r0, lsl r9
    3240:	01620100 	cmneq	r2, r0, lsl #2
    3244:	00000256 	andeq	r0, r0, r6, asr r2
    3248:	0e6c9102 	lgneqe	f1, f2
    324c:	000011df 	ldrdeq	r1, [r0], -pc	; <UNPREDICTABLE>
    3250:	4f016401 	svcmi	0x00016401
    3254:	02000000 	andeq	r0, r0, #0
    3258:	0f007491 	svceq	0x00007491
    325c:	00001184 	andeq	r1, r0, r4, lsl #3
    3260:	4f019301 	svcmi	0x00019301
    3264:	0c000000 	stceq	0, cr0, [r0], {-0}
    3268:	90a0004e 	adcls	r0, r0, lr, asr #32
    326c:	01000000 	mrseq	r0, (UNDEF: 0)
    3270:	0003739c 	muleq	r3, ip, r3
    3274:	12091000 	andne	r1, r9, #0
    3278:	93010000 	movwls	r0, #4096	; 0x1000
    327c:	00025601 	andeq	r5, r2, r1, lsl #12
    3280:	6c910200 	lfmvs	f0, 4, [r1], {0}
    3284:	00116510 	andseq	r6, r1, r0, lsl r5
    3288:	01930100 	orrseq	r0, r3, r0, lsl #2
    328c:	0000008d 	andeq	r0, r0, sp, lsl #1
    3290:	0e689102 	lgneqe	f1, f2
    3294:	000011df 	ldrdeq	r1, [r0], -pc	; <UNPREDICTABLE>
    3298:	4f019501 	svcmi	0x00019501
    329c:	02000000 	andeq	r0, r0, #0
    32a0:	0f007491 	svceq	0x00007491
    32a4:	00001074 	andeq	r1, r0, r4, ror r0
    32a8:	5601bb01 	strpl	fp, [r1], -r1, lsl #22
    32ac:	9c000002 	stcls	0, cr0, [r0], {2}
    32b0:	48a0004e 	stmiami	r0!, {r1, r2, r3, r6}
    32b4:	01000000 	mrseq	r0, (UNDEF: 0)
    32b8:	0003bb9c 	muleq	r3, ip, fp
    32bc:	13791000 	cmnne	r9, #0
    32c0:	bb010000 	bllt	432c8 <load_address-0x9ffbcd38>
    32c4:	00005601 	andeq	r5, r0, r1, lsl #12
    32c8:	6c910200 	lfmvs	f0, 4, [r1], {0}
    32cc:	00136a10 	andseq	r6, r3, r0, lsl sl
    32d0:	01bb0100 			; <UNDEFINED> instruction: 0x01bb0100
    32d4:	00000056 	andeq	r0, r0, r6, asr r0
    32d8:	0e689102 	lgneqe	f1, f2
    32dc:	000013c9 	andeq	r1, r0, r9, asr #7
    32e0:	5601bd01 	strpl	fp, [r1], -r1, lsl #26
    32e4:	02000002 	andeq	r0, r0, #2
    32e8:	0f007491 	svceq	0x00007491
    32ec:	000011ad 	andeq	r1, r0, sp, lsr #3
    32f0:	4f01d301 	svcmi	0x0001d301
    32f4:	e4000000 	str	r0, [r0], #-0
    32f8:	f8a0004e 			; <UNDEFINED> instruction: 0xf8a0004e
    32fc:	01000001 	tsteq	r0, r1
    3300:	0004309c 	muleq	r4, ip, r0
    3304:	13ac1000 			; <UNDEFINED> instruction: 0x13ac1000
    3308:	d3010000 	movwle	r0, #4096	; 0x1000
    330c:	00025601 	andeq	r5, r2, r1, lsl #12
    3310:	64910200 	ldrvs	r0, [r1], #512	; 0x200
    3314:	00127710 	andseq	r7, r2, r0, lsl r7
    3318:	01d30100 	bicseq	r0, r3, r0, lsl #2
    331c:	00000430 	andeq	r0, r0, r0, lsr r4
    3320:	10609102 	rsbne	r9, r0, r2, lsl #2
    3324:	00001a68 	andeq	r1, r0, r8, ror #20
    3328:	8d01d301 	stchi	3, cr13, [r1, #-4]
    332c:	02000000 	andeq	r0, r0, #0
    3330:	34105c91 	ldrcc	r5, [r0], #-3217	; 0xc91
    3334:	01000013 	tsteq	r0, r3, lsl r0
    3338:	004f01d3 	ldrdeq	r0, [pc], #-19	; <UNPREDICTABLE>
    333c:	91020000 	mrsls	r0, (UNDEF: 2)
    3340:	128c0e58 	addne	r0, ip, #88, 28	; 0x580
    3344:	d5010000 	strle	r0, [r1, #-0]
    3348:	00004f01 	andeq	r4, r0, r1, lsl #30
    334c:	74910200 	ldrvc	r0, [r1], #512	; 0x200
    3350:	0014900e 	andseq	r9, r4, lr
    3354:	01d60100 	bicseq	r0, r6, r0, lsl #2
    3358:	000001a9 	andeq	r0, r0, r9, lsr #3
    335c:	006c9102 	rsbeq	r9, ip, r2, lsl #2
    3360:	00007b11 	andeq	r7, r0, r1, lsl fp
    3364:	10440f00 	subne	r0, r4, r0, lsl #30
    3368:	18010000 	stmdane	r1, {}	; <UNPREDICTABLE>
    336c:	00004f03 	andeq	r4, r0, r3, lsl #30
    3370:	0050dc00 	subseq	sp, r0, r0, lsl #24
    3374:	0000dca0 	andeq	sp, r0, r0, lsr #25
    3378:	aa9c0100 	bge	fe703780 <stack_irq+0x5dee6a28>
    337c:	10000004 	andne	r0, r0, r4
    3380:	000013ac 	andeq	r1, r0, ip, lsr #7
    3384:	56031801 	strpl	r1, [r3], -r1, lsl #16
    3388:	02000002 	andeq	r0, r0, #2
    338c:	77106c91 			; <UNDEFINED> instruction: 0x77106c91
    3390:	01000012 	tsteq	r0, r2, lsl r0
    3394:	04300318 	ldrteq	r0, [r0], #-792	; 0x318
    3398:	91020000 	mrsls	r0, (UNDEF: 2)
    339c:	10921068 	addsne	r1, r2, r8, rrx
    33a0:	18010000 	stmdane	r1, {}	; <UNPREDICTABLE>
    33a4:	0004aa03 	andeq	sl, r4, r3, lsl #20
    33a8:	64910200 	ldrvs	r0, [r1], #512	; 0x200
    33ac:	00133410 	andseq	r3, r3, r0, lsl r4
    33b0:	03180100 	tsteq	r8, #0, 2
    33b4:	0000004f 	andeq	r0, r0, pc, asr #32
    33b8:	0e609102 	lgneqs	f1, f2
    33bc:	000011df 	ldrdeq	r1, [r0], -pc	; <UNPREDICTABLE>
    33c0:	4f031a01 	svcmi	0x00031a01
    33c4:	02000000 	andeq	r0, r0, #0
    33c8:	f30e7491 	vqshl.u8	d7, d1, d30
    33cc:	01000012 	tsteq	r0, r2, lsl r0
    33d0:	0056031b 	subseq	r0, r6, fp, lsl r3
    33d4:	91020000 	mrsls	r0, (UNDEF: 2)
    33d8:	04050070 	streq	r0, [r5], #-112	; 0x70
    33dc:	0000004f 	andeq	r0, r0, pc, asr #32
    33e0:	0011130f 	andseq	r1, r1, pc, lsl #6
    33e4:	03510100 	cmpeq	r1, #0, 2
    33e8:	0000004f 	andeq	r0, r0, pc, asr #32
    33ec:	a00051b8 			; <UNDEFINED> instruction: 0xa00051b8
    33f0:	000002c8 	andeq	r0, r0, r8, asr #5
    33f4:	05349c01 	ldreq	r9, [r4, #-3073]!	; 0xc01
    33f8:	ac100000 	ldcge	0, cr0, [r0], {-0}
    33fc:	01000013 	tsteq	r0, r3, lsl r0
    3400:	02560351 	subseq	r0, r6, #1140850689	; 0x44000001
    3404:	91020000 	mrsls	r0, (UNDEF: 2)
    3408:	132b1064 	teqne	fp, #100	; 0x64
    340c:	51010000 	mrspl	r0, (UNDEF: 1)
    3410:	00053403 	andeq	r3, r5, r3, lsl #8
    3414:	60910200 	addsvs	r0, r1, r0, lsl #4
    3418:	001a6810 	andseq	r6, sl, r0, lsl r8
    341c:	03510100 	cmpeq	r1, #0, 2
    3420:	0000008d 	andeq	r0, r0, sp, lsl #1
    3424:	105c9102 	subsne	r9, ip, r2, lsl #2
    3428:	0000124c 	andeq	r1, r0, ip, asr #4
    342c:	4f035101 	svcmi	0x00035101
    3430:	02000000 	andeq	r0, r0, #0
    3434:	8c0e5891 	stchi	8, cr5, [lr], {145}	; 0x91
    3438:	01000012 	tsteq	r0, r2, lsl r0
    343c:	004f0353 	subeq	r0, pc, r3, asr r3	; <UNPREDICTABLE>
    3440:	91020000 	mrsls	r0, (UNDEF: 2)
    3444:	14900e74 	ldrne	r0, [r0], #3700	; 0xe74
    3448:	54010000 	strpl	r0, [r1], #-0
    344c:	0001a903 	andeq	sl, r1, r3, lsl #18
    3450:	68910200 	ldmvs	r1, {r9}
    3454:	0011280e 	andseq	r2, r1, lr, lsl #16
    3458:	03550100 	cmpeq	r5, #0, 2
    345c:	00000245 	andeq	r0, r0, r5, asr #4
    3460:	00709102 	rsbseq	r9, r0, r2, lsl #2
    3464:	00007211 	andeq	r7, r0, r1, lsl r2
    3468:	11f40f00 	mvnsne	r0, r0, lsl #30
    346c:	e7010000 	str	r0, [r1, -r0]
    3470:	00004f03 	andeq	r4, r0, r3, lsl #30
    3474:	00548000 	subseq	r8, r4, r0
    3478:	0000e0a0 	andeq	lr, r0, r0, lsr #1
    347c:	9f9c0100 	svcls	0x009c0100
    3480:	10000005 	andne	r0, r0, r5
    3484:	000013ac 	andeq	r1, r0, ip, lsr #7
    3488:	5603e701 	strpl	lr, [r3], -r1, lsl #14
    348c:	02000002 	andeq	r0, r0, #2
    3490:	2b106c91 	blcs	41e6dc <load_address-0x9fbe1924>
    3494:	01000013 	tsteq	r0, r3, lsl r0
    3498:	053403e7 	ldreq	r0, [r4, #-999]!	; 0x3e7
    349c:	91020000 	mrsls	r0, (UNDEF: 2)
    34a0:	114a1068 	cmpne	sl, r8, rrx
    34a4:	e7010000 	str	r0, [r1, -r0]
    34a8:	0004aa03 	andeq	sl, r4, r3, lsl #20
    34ac:	64910200 	ldrvs	r0, [r1], #512	; 0x200
    34b0:	0011df0e 	andseq	sp, r1, lr, lsl #30
    34b4:	03e90100 	mvneq	r0, #0, 2
    34b8:	0000004f 	andeq	r0, r0, pc, asr #32
    34bc:	0e749102 	expeqs	f1, f2
    34c0:	000012f3 	strdeq	r1, [r0], -r3
    34c4:	5603ea01 	strpl	lr, [r3], -r1, lsl #20
    34c8:	02000000 	andeq	r0, r0, #0
    34cc:	0f007091 	svceq	0x00007091
    34d0:	0000105d 	andeq	r1, r0, sp, asr r0
    34d4:	56041e01 	strpl	r1, [r4], -r1, lsl #28
    34d8:	60000000 	andvs	r0, r0, r0
    34dc:	30a00055 	adccc	r0, r0, r5, asr r0
    34e0:	01000000 	mrseq	r0, (UNDEF: 0)
    34e4:	0005d89c 	muleq	r5, ip, r8
    34e8:	13ac1000 			; <UNDEFINED> instruction: 0x13ac1000
    34ec:	1e010000 	cdpne	0, 0, cr0, cr1, cr0, {0}
    34f0:	0005d804 	andeq	sp, r5, r4, lsl #16
    34f4:	6c910200 	lfmvs	f0, 4, [r1], {0}
    34f8:	0011de0e 	andseq	sp, r1, lr, lsl #28
    34fc:	04200100 	strteq	r0, [r0], #-256	; 0x100
    3500:	00000056 	andeq	r0, r0, r6, asr r0
    3504:	00749102 	rsbseq	r9, r4, r2, lsl #2
    3508:	00025611 	andeq	r5, r2, r1, lsl r6
    350c:	12591200 	subsne	r1, r9, #0, 4
    3510:	2c010000 	stccs	0, cr0, [r1], {-0}
    3514:	00005604 	andeq	r5, r0, r4, lsl #12
    3518:	00559000 	subseq	r9, r5, r0
    351c:	000024a0 	andeq	r2, r0, r0, lsr #9
    3520:	169c0100 	ldrne	r0, [ip], r0, lsl #2
    3524:	10000006 	andne	r0, r0, r6
    3528:	000013ac 	andeq	r1, r0, ip, lsr #7
    352c:	d8042c01 	stmdale	r4, {r0, sl, fp, sp}
    3530:	02000005 	andeq	r0, r0, #5
    3534:	de0e7491 	mcrle	4, 0, r7, cr14, cr1, {4}
    3538:	01000011 	tsteq	r0, r1, lsl r0
    353c:	0056042e 	subseq	r0, r6, lr, lsr #8
    3540:	91020000 	mrsls	r0, (UNDEF: 2)
    3544:	7013007c 	andsvc	r0, r3, ip, ror r0
    3548:	01000011 	tsteq	r0, r1, lsl r0
    354c:	55b40438 	ldrpl	r0, [r4, #1080]!	; 0x438
    3550:	002ca000 	eoreq	sl, ip, r0
    3554:	9c010000 	stcls	0, cr0, [r1], {-0}
    3558:	0000063c 	andeq	r0, r0, ip, lsr r6
    355c:	0013ac10 	andseq	sl, r3, r0, lsl ip
    3560:	04380100 	ldrteq	r0, [r8], #-256	; 0x100
    3564:	00000256 	andeq	r0, r0, r6, asr r2
    3568:	00749102 	rsbseq	r9, r4, r2, lsl #2
    356c:	0010f614 	andseq	pc, r0, r4, lsl r6	; <UNPREDICTABLE>
    3570:	04430100 	strbeq	r0, [r3], #-256	; 0x100
    3574:	a00055e0 	andge	r5, r0, r0, ror #11
    3578:	0000015c 	andeq	r0, r0, ip, asr r1
    357c:	06809c01 	streq	r9, [r0], r1, lsl #24
    3580:	ac100000 	ldcge	0, cr0, [r0], {-0}
    3584:	01000013 	tsteq	r0, r3, lsl r0
    3588:	02610443 	rsbeq	r0, r1, #1124073472	; 0x43000000
    358c:	91020000 	mrsls	r0, (UNDEF: 2)
    3590:	12771074 	rsbsne	r1, r7, #116	; 0x74
    3594:	43010000 	movwmi	r0, #4096	; 0x1000
    3598:	00007b04 	andeq	r7, r0, r4, lsl #22
    359c:	70910200 	addsvc	r0, r1, r0, lsl #4
    35a0:	00136010 	andseq	r6, r3, r0, lsl r0
    35a4:	04430100 	strbeq	r0, [r3], #-256	; 0x100
    35a8:	0000004f 	andeq	r0, r0, pc, asr #32
    35ac:	006c9102 	rsbeq	r9, ip, r2, lsl #2
    35b0:	0010d614 	andseq	sp, r0, r4, lsl r6
    35b4:	04690100 	strbteq	r0, [r9], #-256	; 0x100
    35b8:	a000573c 	andge	r5, r0, ip, lsr r7
    35bc:	0000008c 	andeq	r0, r0, ip, lsl #1
    35c0:	06b59c01 	ldrteq	r9, [r5], r1, lsl #24
    35c4:	ac100000 	ldcge	0, cr0, [r0], {-0}
    35c8:	01000013 	tsteq	r0, r3, lsl r0
    35cc:	06b50469 	ldrteq	r0, [r5], r9, ror #8
    35d0:	91020000 	mrsls	r0, (UNDEF: 2)
    35d4:	132b1074 	teqne	fp, #116	; 0x74
    35d8:	69010000 	stmdbvs	r1, {}	; <UNPREDICTABLE>
    35dc:	00007b04 	andeq	r7, r0, r4, lsl #22
    35e0:	70910200 	addsvc	r0, r1, r0, lsl #4
    35e4:	02611100 	rsbeq	r1, r1, #0, 2
    35e8:	42140000 	andsmi	r0, r4, #0
    35ec:	01000013 	tsteq	r0, r3, lsl r0
    35f0:	57c80477 			; <UNDEFINED> instruction: 0x57c80477
    35f4:	00fca000 	rscseq	sl, ip, r0
    35f8:	9c010000 	stcls	0, cr0, [r1], {-0}
    35fc:	000006e0 	andeq	r0, r0, r0, ror #13
    3600:	0013ac10 	andseq	sl, r3, r0, lsl ip
    3604:	04770100 	ldrbteq	r0, [r7], #-256	; 0x100
    3608:	00000256 	andeq	r0, r0, r6, asr r2
    360c:	00749102 	rsbseq	r9, r4, r2, lsl #2
    3610:	0010c615 	andseq	ip, r0, r5, lsl r6
    3614:	04b70100 	ldrteq	r0, [r7], #256	; 0x100
    3618:	0000004f 	andeq	r0, r0, pc, asr #32
    361c:	a00058c4 	andge	r5, r0, r4, asr #17
    3620:	00000040 	andeq	r0, r0, r0, asr #32
    3624:	07199c01 	ldreq	r9, [r9, -r1, lsl #24]
    3628:	ac100000 	ldcge	0, cr0, [r0], {-0}
    362c:	01000013 	tsteq	r0, r3, lsl r0
    3630:	05d804b7 	ldrbeq	r0, [r8, #1207]	; 0x4b7
    3634:	91020000 	mrsls	r0, (UNDEF: 2)
    3638:	11df0e6c 	bicsne	r0, pc, ip, ror #28
    363c:	b9010000 	stmdblt	r1, {}	; <UNPREDICTABLE>
    3640:	00004f04 	andeq	r4, r0, r4, lsl #30
    3644:	74910200 	ldrvc	r0, [r1], #512	; 0x200
    3648:	10ac1200 	adcne	r1, ip, r0, lsl #4
    364c:	c3010000 	movwgt	r0, #4096	; 0x1000
    3650:	00004f04 	andeq	r4, r0, r4, lsl #30
    3654:	00590400 	subseq	r0, r9, r0, lsl #8
    3658:	000034a0 	andeq	r3, r0, r0, lsr #9
    365c:	529c0100 	addspl	r0, ip, #0, 2
    3660:	10000007 	andne	r0, r0, r7
    3664:	000013ac 	andeq	r1, r0, ip, lsr #7
    3668:	d804c301 	stmdale	r4, {r0, r8, r9, lr, pc}
    366c:	02000005 	andeq	r0, r0, #5
    3670:	df0e7491 	svcle	0x000e7491
    3674:	01000011 	tsteq	r0, r1, lsl r0
    3678:	004f04c5 	subeq	r0, pc, r5, asr #9
    367c:	91020000 	mrsls	r0, (UNDEF: 2)
    3680:	0a15007c 	beq	543878 <load_address-0x9fabc788>
    3684:	01000013 	tsteq	r0, r3, lsl r0
    3688:	004f04ce 	subeq	r0, pc, lr, asr #9
    368c:	59380000 	ldmdbpl	r8!, {}	; <UNPREDICTABLE>
    3690:	0048a000 	subeq	sl, r8, r0
    3694:	9c010000 	stcls	0, cr0, [r1], {-0}
    3698:	0000078b 	andeq	r0, r0, fp, lsl #15
    369c:	0013ac10 	andseq	sl, r3, r0, lsl ip
    36a0:	04ce0100 	strbeq	r0, [lr], #256	; 0x100
    36a4:	000005d8 	ldrdeq	r0, [r0], -r8
    36a8:	0e6c9102 	lgneqe	f1, f2
    36ac:	000011df 	ldrdeq	r1, [r0], -pc	; <UNPREDICTABLE>
    36b0:	4f04d001 	svcmi	0x0004d001
    36b4:	02000000 	andeq	r0, r0, #0
    36b8:	12007491 	andne	r7, r0, #-1862270976	; 0x91000000
    36bc:	000012b9 			; <UNDEFINED> instruction: 0x000012b9
    36c0:	4f04da01 	svcmi	0x0004da01
    36c4:	80000000 	andhi	r0, r0, r0
    36c8:	3ca00059 	stccc	0, cr0, [r0], #356	; 0x164
    36cc:	01000000 	mrseq	r0, (UNDEF: 0)
    36d0:	0007c49c 	muleq	r7, ip, r4
    36d4:	13ac1000 			; <UNDEFINED> instruction: 0x13ac1000
    36d8:	da010000 	ble	436e0 <load_address-0x9ffbc920>
    36dc:	0005d804 	andeq	sp, r5, r4, lsl #16
    36e0:	74910200 	ldrvc	r0, [r1], #512	; 0x200
    36e4:	0011df0e 	andseq	sp, r1, lr, lsl #30
    36e8:	04dc0100 	ldrbeq	r0, [ip], #256	; 0x100
    36ec:	0000004f 	andeq	r0, r0, pc, asr #32
    36f0:	007c9102 	rsbseq	r9, ip, r2, lsl #2
    36f4:	0013d213 	andseq	sp, r3, r3, lsl r2
    36f8:	05e90100 	strbeq	r0, [r9, #256]!	; 0x100
    36fc:	a00059bc 			; <UNDEFINED> instruction: 0xa00059bc
    3700:	00000084 	andeq	r0, r0, r4, lsl #1
    3704:	07f99c01 	ldrbeq	r9, [r9, r1, lsl #24]!
    3708:	ac100000 	ldcge	0, cr0, [r0], {-0}
    370c:	01000013 	tsteq	r0, r3, lsl r0
    3710:	025605e9 	subseq	r0, r6, #977272832	; 0x3a400000
    3714:	91020000 	mrsls	r0, (UNDEF: 2)
    3718:	1a681074 	bne	1a078f0 <load_address-0x9e5f8710>
    371c:	e9010000 	stmdb	r1, {}	; <UNPREDICTABLE>
    3720:	00008d05 	andeq	r8, r0, r5, lsl #26
    3724:	70910200 	addsvc	r0, r1, r0, lsl #4
    3728:	003a1600 	eorseq	r1, sl, r0, lsl #12
    372c:	08040000 	stmdaeq	r4, {}	; <UNPREDICTABLE>
    3730:	00170000 	andseq	r0, r7, r0
    3734:	00000018 	andeq	r0, r0, r8, lsl r0
    3738:	f93f0200 			; <UNDEFINED> instruction: 0xf93f0200
    373c:	00000007 	andeq	r0, r0, r7
    3740:	00000ed1 	ldrdeq	r0, [r0], -r1
    3744:	0d5b0004 	ldcleq	0, cr0, [fp, #-16]
    3748:	01040000 	mrseq	r0, (UNDEF: 4)
    374c:	0000015b 	andeq	r0, r0, fp, asr r1
    3750:	0015e801 	andseq	lr, r5, r1, lsl #16
    3754:	0000a300 	andeq	sl, r0, r0, lsl #6
    3758:	005a4000 	subseq	r4, sl, r0
    375c:	00238ca0 	eoreq	r8, r3, r0, lsr #25
    3760:	000de100 	andeq	lr, sp, r0, lsl #2
    3764:	08010200 	stmdaeq	r1, {r9}
    3768:	0000013f 	andeq	r0, r0, pc, lsr r1
    376c:	4e070402 	cdpmi	4, 0, cr0, cr7, cr2, {0}
    3770:	02000001 	andeq	r0, r0, #1
    3774:	01be0702 			; <UNDEFINED> instruction: 0x01be0702
    3778:	04020000 	streq	r0, [r2], #-0
    377c:	00009a05 	andeq	r9, r0, r5, lsl #20
    3780:	05040300 	streq	r0, [r4, #-768]	; 0x300
    3784:	00746e69 	rsbseq	r6, r4, r9, ror #28
    3788:	38060102 	stmdacc	r6, {r1, r8}
    378c:	02000001 	andeq	r0, r0, #1
    3790:	01360801 	teqeq	r6, r1, lsl #16
    3794:	02020000 	andeq	r0, r2, #0
    3798:	00101905 	andseq	r1, r0, r5, lsl #18
    379c:	07040200 	streq	r0, [r4, -r0, lsl #4]
    37a0:	00000149 	andeq	r0, r0, r9, asr #2
    37a4:	95050802 	strls	r0, [r5, #-2050]	; 0x802
    37a8:	02000000 	andeq	r0, r0, #0
    37ac:	01440708 	cmpeq	r4, r8, lsl #14
    37b0:	04020000 	streq	r0, [r2], #-0
    37b4:	00025407 	andeq	r5, r2, r7, lsl #8
    37b8:	05040400 	streq	r0, [r4, #-1024]	; 0x400
    37bc:	00001970 	andeq	r1, r0, r0, ror r9
    37c0:	00864002 	addeq	r4, r6, r2
    37c4:	04060000 	streq	r0, [r6], #-0
    37c8:	0000008c 	andeq	r0, r0, ip, lsl #1
    37cc:	00009707 	andeq	r9, r0, r7, lsl #14
    37d0:	00790800 	rsbseq	r0, r9, r0, lsl #16
    37d4:	05000000 	streq	r0, [r0, #-0]
    37d8:	00000cbe 			; <UNDEFINED> instruction: 0x00000cbe
    37dc:	005d5503 	subseq	r5, sp, r3, lsl #10
    37e0:	0a090000 	beq	2437e8 <load_address-0x9fdbc818>
    37e4:	1400000d 	strne	r0, [r0], #-13
    37e8:	00eb6204 	rsceq	r6, fp, r4, lsl #4
    37ec:	cb0a0000 	blgt	2837f4 <load_address-0x9fd7c80c>
    37f0:	0400000c 	streq	r0, [r0], #-12
    37f4:	00009764 	andeq	r9, r0, r4, ror #14
    37f8:	760a0000 	strvc	r0, [sl], -r0
    37fc:	0400000e 	streq	r0, [r0], #-14
    3800:	0000eb65 	andeq	lr, r0, r5, ror #22
    3804:	7a0a0400 	bvc	28480c <load_address-0x9fd7b7f4>
    3808:	0400000d 	streq	r0, [r0], #-13
    380c:	0000eb66 	andeq	lr, r0, r6, ror #22
    3810:	df0a0800 	svcle	0x000a0800
    3814:	0400000c 	streq	r0, [r0], #-12
    3818:	00007967 	andeq	r7, r0, r7, ror #18
    381c:	890a0c00 	stmdbhi	sl, {sl, fp}
    3820:	0400000c 	streq	r0, [r0], #-12
    3824:	00007968 	andeq	r7, r0, r8, ror #18
    3828:	06001000 	streq	r1, [r0], -r0
    382c:	0000f104 	andeq	pc, r0, r4, lsl #2
    3830:	00a20b00 	adceq	r0, r2, r0, lsl #22
    3834:	b6050000 	strlt	r0, [r5], -r0
    3838:	0400000e 	streq	r0, [r0], #-14
    383c:	0000a26a 	andeq	sl, r0, sl, ror #4
    3840:	0f140900 	svceq	0x00140900
    3844:	040c0000 	streq	r0, [ip], #-0
    3848:	0001326c 	andeq	r3, r1, ip, ror #4
    384c:	0ccb0a00 	vstmiaeq	fp, {s1-s0}
    3850:	6e040000 	cdpvs	0, 0, cr0, cr4, cr0, {0}
    3854:	00000097 	muleq	r0, r7, r0
    3858:	0e760a00 	vaddeq.f32	s1, s12, s0
    385c:	6f040000 	svcvs	0x00040000
    3860:	000000eb 	andeq	r0, r0, fp, ror #1
    3864:	0d7a0a04 	vldmdbeq	sl!, {s1-s4}
    3868:	70040000 	andvc	r0, r4, r0
    386c:	000000eb 	andeq	r0, r0, fp, ror #1
    3870:	89050008 	stmdbhi	r5, {r3}
    3874:	0400000e 	streq	r0, [r0], #-14
    3878:	00010172 	andeq	r0, r1, r2, ror r1
    387c:	0f240900 	svceq	0x00240900
    3880:	04140000 	ldreq	r0, [r4], #-0
    3884:	00016e77 	andeq	r6, r1, r7, ror lr
    3888:	0e160a00 	vnmlseq.f32	s0, s12, s0
    388c:	79040000 	stmdbvc	r4, {}	; <UNPREDICTABLE>
    3890:	0000016e 	andeq	r0, r0, lr, ror #2
    3894:	0cb60a00 	vldmiaeq	r6!, {s0-s-1}
    3898:	7a040000 	bvc	1038a0 <load_address-0x9fefc760>
    389c:	00000173 	andeq	r0, r0, r3, ror r1
    38a0:	0cd60a04 	vldmiaeq	r6, {s1-s4}
    38a4:	7b040000 	blvc	1038ac <load_address-0x9fefc754>
    38a8:	0000017e 	andeq	r0, r0, lr, ror r1
    38ac:	5d0b0008 	stcpl	0, cr0, [fp, #-32]	; 0xffffffe0
    38b0:	06000000 	streq	r0, [r0], -r0
    38b4:	00017904 	andeq	r7, r1, r4, lsl #18
    38b8:	00f60b00 	rscseq	r0, r6, r0, lsl #22
    38bc:	320b0000 	andcc	r0, fp, #0
    38c0:	05000001 	streq	r0, [r0, #-1]
    38c4:	00001024 	andeq	r1, r0, r4, lsr #32
    38c8:	013d7c04 	teqeq	sp, r4, lsl #24
    38cc:	c8050000 	stmdagt	r5, {}	; <UNPREDICTABLE>
    38d0:	05000014 	streq	r0, [r0, #-20]
    38d4:	0000795b 	andeq	r7, r0, fp, asr r9
    38d8:	11090900 	tstne	r9, r0, lsl #18
    38dc:	05080000 	streq	r0, [r8, #-0]
    38e0:	0001be60 	andeq	fp, r1, r0, ror #28
    38e4:	11560a00 	cmpne	r6, r0, lsl #20
    38e8:	62050000 	andvs	r0, r5, #0
    38ec:	0000003a 	andeq	r0, r0, sl, lsr r0
    38f0:	119d0a00 	orrsne	r0, sp, r0, lsl #20
    38f4:	63050000 	movwvs	r0, #20480	; 0x5000
    38f8:	00000097 	muleq	r0, r7, r0
    38fc:	bf050004 	svclt	0x00050004
    3900:	05000011 	streq	r0, [r0, #-17]
    3904:	00019964 	andeq	r9, r1, r4, ror #18
    3908:	16820900 	strne	r0, [r2], r0, lsl #18
    390c:	050c0000 	streq	r0, [ip, #-0]
    3910:	0001fa69 	andeq	pc, r1, r9, ror #20
    3914:	1b2b0a00 	blne	ac611c <load_address-0x9f539ee4>
    3918:	6b050000 	blvs	143920 <load_address-0x9febc6e0>
    391c:	00000079 	andeq	r0, r0, r9, ror r0
    3920:	17d60a00 	ldrbne	r0, [r6, r0, lsl #20]
    3924:	6c050000 	stcvs	0, cr0, [r5], {-0}
    3928:	0000005d 	andeq	r0, r0, sp, asr r0
    392c:	191d0a04 	ldmdbne	sp, {r2, r9, fp}
    3930:	6d050000 	stcvs	0, cr0, [r5, #-0]
    3934:	0000005d 	andeq	r0, r0, sp, asr r0
    3938:	2a050008 	bcs	143960 <load_address-0x9febc6a0>
    393c:	05000019 	streq	r0, [r0, #-25]
    3940:	0001c96e 	andeq	ip, r1, lr, ror #18
    3944:	020a0c00 	andeq	r0, sl, #0, 24
    3948:	04060000 	streq	r0, [r6], #-0
    394c:	00000210 	andeq	r0, r0, r0, lsl r2
    3950:	0000480c 	andeq	r4, r0, ip, lsl #16
    3954:	5d040600 	stcpl	6, cr0, [r4, #-0]
    3958:	09000000 	stmdbeq	r0, {}	; <UNPREDICTABLE>
    395c:	000014f9 	strdeq	r1, [r0], -r9
    3960:	94560150 	ldrbls	r0, [r6], #-336	; 0x150
    3964:	0a000002 	beq	3974 <load_address-0x9fffc68c>
    3968:	000017e6 	andeq	r1, r0, r6, ror #15
    396c:	02945801 	addseq	r5, r4, #65536	; 0x10000
    3970:	0a000000 	beq	3978 <load_address-0x9fffc688>
    3974:	00000f54 	andeq	r0, r0, r4, asr pc
    3978:	00f65e01 	rscseq	r5, r6, r1, lsl #28
    397c:	0a040000 	beq	103984 <load_address-0x9fefc67c>
    3980:	00000f65 	andeq	r0, r0, r5, ror #30
    3984:	00f65f01 	rscseq	r5, r6, r1, lsl #30
    3988:	0a180000 	beq	603990 <load_address-0x9f9fc670>
    398c:	00000e3f 	andeq	r0, r0, pc, lsr lr
    3990:	005d6001 	subseq	r6, sp, r1
    3994:	0a2c0000 	beq	b0399c <load_address-0x9f4fc664>
    3998:	0000171c 	andeq	r1, r0, ip, lsl r7
    399c:	02156101 	andseq	r6, r5, #1073741824	; 0x40000000
    39a0:	0a300000 	beq	c039a8 <load_address-0x9f3fc658>
    39a4:	00001a5c 	andeq	r1, r0, ip, asr sl
    39a8:	029a6201 	addseq	r6, sl, #268435456	; 0x10000000
    39ac:	0a340000 	beq	d039b4 <load_address-0x9f2fc64c>
    39b0:	000016da 	ldrdeq	r1, [r0], -sl
    39b4:	005d6901 	subseq	r6, sp, r1, lsl #18
    39b8:	0a440000 	beq	11039c0 <load_address-0x9eefc640>
    39bc:	0000159b 	muleq	r0, fp, r5
    39c0:	005d6d01 	subseq	r6, sp, r1, lsl #26
    39c4:	0a480000 	beq	12039cc <load_address-0x9edfc634>
    39c8:	0000189b 	muleq	r0, fp, r8
    39cc:	005d7101 	subseq	r7, sp, r1, lsl #2
    39d0:	004c0000 	subeq	r0, ip, r0
    39d4:	016e0406 	cmneq	lr, r6, lsl #8
    39d8:	480d0000 	stmdami	sp, {}	; <UNPREDICTABLE>
    39dc:	aa000000 	bge	39e4 <load_address-0x9fffc61c>
    39e0:	0e000002 	cdpeq	0, 0, cr0, cr0, cr2, {0}
    39e4:	00000072 	andeq	r0, r0, r2, ror r0
    39e8:	2f05000f 	svccs	0x0005000f
    39ec:	01000016 	tsteq	r0, r6, lsl r0
    39f0:	00021b7c 	andeq	r1, r2, ip, ror fp
    39f4:	146c0f00 	strbtne	r0, [ip], #-3840	; 0xf00
    39f8:	b1010000 	mrslt	r0, (UNDEF: 1)
    39fc:	00003a01 	andeq	r3, r0, r1, lsl #20
    3a00:	005a4000 	subseq	r4, sl, r0
    3a04:	0002eca0 	andeq	lr, r2, r0, lsr #25
    3a08:	7f9c0100 	svcvc	0x009c0100
    3a0c:	10000003 	andne	r0, r0, r3
    3a10:	00001787 	andeq	r1, r0, r7, lsl #15
    3a14:	7b01b101 	blvc	6fe20 <load_address-0x9ff901e0>
    3a18:	02000000 	andeq	r0, r0, #0
    3a1c:	ed106491 	cfldrs	mvf6, [r0, #-580]	; 0xfffffdbc
    3a20:	0100001a 	tsteq	r0, sl, lsl r0
    3a24:	020501b1 	andeq	r0, r5, #1073741868	; 0x4000002c
    3a28:	91020000 	mrsls	r0, (UNDEF: 2)
    3a2c:	15511060 	ldrbne	r1, [r1, #-96]	; 0x60
    3a30:	b1010000 	mrslt	r0, (UNDEF: 1)
    3a34:	00003301 	andeq	r3, r0, r1, lsl #6
    3a38:	5e910200 	cdppl	2, 9, cr0, cr1, cr0, {0}
    3a3c:	00005610 	andeq	r5, r0, r0, lsl r6
    3a40:	01b10100 			; <UNDEFINED> instruction: 0x01b10100
    3a44:	00000079 	andeq	r0, r0, r9, ror r0
    3a48:	10589102 	subsne	r9, r8, r2, lsl #2
    3a4c:	00000e3f 	andeq	r0, r0, pc, lsr lr
    3a50:	5d01b101 	stfpld	f3, [r1, #-4]
    3a54:	02000000 	andeq	r0, r0, #0
    3a58:	01100091 			; <UNDEFINED> instruction: 0x01100091
    3a5c:	01000016 	tsteq	r0, r6, lsl r0
    3a60:	037f01b1 	cmneq	pc, #1073741868	; 0x4000002c
    3a64:	91020000 	mrsls	r0, (UNDEF: 2)
    3a68:	155e1004 	ldrbne	r1, [lr, #-4]
    3a6c:	b1010000 	mrslt	r0, (UNDEF: 1)
    3a70:	00021501 	andeq	r1, r2, r1, lsl #10
    3a74:	08910200 	ldmeq	r1, {r9}
    3a78:	00174610 	andseq	r4, r7, r0, lsl r6
    3a7c:	01b10100 			; <UNDEFINED> instruction: 0x01b10100
    3a80:	00000385 	andeq	r0, r0, r5, lsl #7
    3a84:	110c9102 	tstne	ip, r2, lsl #2
    3a88:	000011df 	ldrdeq	r1, [r0], -pc	; <UNPREDICTABLE>
    3a8c:	3a01b301 	bcc	70698 <load_address-0x9ff8f968>
    3a90:	02000000 	andeq	r0, r0, #0
    3a94:	0d117491 	cfldrseq	mvf7, [r1, #-580]	; 0xfffffdbc
    3a98:	01000015 	tsteq	r0, r5, lsl r0
    3a9c:	039501b4 	orrseq	r0, r5, #180, 2	; 0x2d
    3aa0:	91020000 	mrsls	r0, (UNDEF: 2)
    3aa4:	5a801270 	bpl	fe00846c <stack_irq+0x5d7eb714>
    3aa8:	01eca000 	mvneq	sl, r0
    3aac:	e6110000 	ldr	r0, [r1], -r0
    3ab0:	01000017 	tsteq	r0, r7, lsl r0
    3ab4:	021501bf 	andseq	r0, r5, #-1073741777	; 0xc000002f
    3ab8:	91020000 	mrsls	r0, (UNDEF: 2)
    3abc:	0600006c 	streq	r0, [r0], -ip, rrx
    3ac0:	00018e04 	andeq	r8, r1, r4, lsl #28
    3ac4:	038a0c00 	orreq	r0, sl, #0, 24
    3ac8:	04060000 	streq	r0, [r6], #-0
    3acc:	00000390 	muleq	r0, r0, r3
    3ad0:	0001fa0c 	andeq	pc, r1, ip, lsl #20
    3ad4:	aa040600 	bge	1052dc <load_address-0x9fefad24>
    3ad8:	13000002 	movwne	r0, #2
    3adc:	0000182c 	andeq	r1, r0, ip, lsr #16
    3ae0:	2c029701 	stccs	7, cr9, [r2], {1}
    3ae4:	54a0005d 	strtpl	r0, [r0], #93	; 0x5d
    3ae8:	01000001 	tsteq	r0, r1
    3aec:	0003fd9c 	muleq	r3, ip, sp
    3af0:	17c31000 	strbne	r1, [r3, r0]
    3af4:	97010000 	strls	r0, [r1, -r0]
    3af8:	0003fd02 	andeq	pc, r3, r2, lsl #26
    3afc:	64910200 	ldrvs	r0, [r1], #512	; 0x200
    3b00:	001a4d10 	andseq	r4, sl, r0, lsl sp
    3b04:	02970100 	addseq	r0, r7, #0, 2
    3b08:	00000097 	muleq	r0, r7, r0
    3b0c:	11609102 	cmnne	r0, r2, lsl #2
    3b10:	00000eaa 	andeq	r0, r0, sl, lsr #29
    3b14:	97029901 	strls	r9, [r2, -r1, lsl #18]
    3b18:	02000000 	andeq	r0, r0, #0
    3b1c:	7f117091 	svcvc	0x00117091
    3b20:	01000014 	tsteq	r0, r4, lsl r0
    3b24:	003a029a 	mlaseq	sl, sl, r2, r0
    3b28:	91020000 	mrsls	r0, (UNDEF: 2)
    3b2c:	18d4116c 	ldmne	r4, {r2, r3, r5, r6, r8, ip}^
    3b30:	9a010000 	bls	43b38 <load_address-0x9ffbc4c8>
    3b34:	00003a02 	andeq	r3, r0, r2, lsl #20
    3b38:	74910200 	ldrvc	r0, [r1], #512	; 0x200
    3b3c:	04020c00 	streq	r0, [r2], #-3072	; 0xc00
    3b40:	04060000 	streq	r0, [r6], #-0
    3b44:	00000097 	muleq	r0, r7, r0
    3b48:	0014bd13 	andseq	fp, r4, r3, lsl sp
    3b4c:	02d80100 	sbcseq	r0, r8, #0, 2
    3b50:	a0005e80 	andge	r5, r0, r0, lsl #29
    3b54:	000000b8 	strheq	r0, [r0], -r8
    3b58:	044c9c01 	strbeq	r9, [ip], #-3073	; 0xc01
    3b5c:	46100000 	ldrmi	r0, [r0], -r0
    3b60:	0100000f 	tsteq	r0, pc
    3b64:	009702d8 			; <UNDEFINED> instruction: 0x009702d8
    3b68:	91020000 	mrsls	r0, (UNDEF: 2)
    3b6c:	0eaa116c 	fdveqez	f1, f2, #4.0
    3b70:	da010000 	ble	43b78 <load_address-0x9ffbc488>
    3b74:	00009702 	andeq	r9, r0, r2, lsl #14
    3b78:	70910200 	addsvc	r0, r1, r0, lsl #4
    3b7c:	00147f11 	andseq	r7, r4, r1, lsl pc
    3b80:	02db0100 	sbcseq	r0, fp, #0, 2
    3b84:	0000003a 	andeq	r0, r0, sl, lsr r0
    3b88:	00749102 	rsbseq	r9, r4, r2, lsl #2
    3b8c:	001af40f 	andseq	pc, sl, pc, lsl #8
    3b90:	03060100 	movweq	r0, #24832	; 0x6100
    3b94:	0000005d 	andeq	r0, r0, sp, asr r0
    3b98:	a0005f38 	andge	r5, r0, r8, lsr pc
    3b9c:	00000064 	andeq	r0, r0, r4, rrx
    3ba0:	04949c01 	ldreq	r9, [r4], #3073	; 0xc01
    3ba4:	cc100000 	ldcgt	0, cr0, [r0], {-0}
    3ba8:	01000015 	tsteq	r0, r5, lsl r0
    3bac:	018e0306 	orreq	r0, lr, r6, lsl #6
    3bb0:	91020000 	mrsls	r0, (UNDEF: 2)
    3bb4:	1636116c 	ldrtne	r1, [r6], -ip, ror #2
    3bb8:	08010000 	stmdaeq	r1, {}	; <UNPREDICTABLE>
    3bbc:	00039503 	andeq	r9, r3, r3, lsl #10
    3bc0:	74910200 	ldrvc	r0, [r1], #512	; 0x200
    3bc4:	0011de11 	andseq	sp, r1, r1, lsl lr
    3bc8:	03090100 	movweq	r0, #37120	; 0x9100
    3bcc:	0000005d 	andeq	r0, r0, sp, asr r0
    3bd0:	00709102 	rsbseq	r9, r0, r2, lsl #2
    3bd4:	00156d13 	andseq	r6, r5, r3, lsl sp
    3bd8:	031c0100 	tsteq	ip, #0, 2
    3bdc:	a0005f9c 	mulge	r0, ip, pc	; <UNPREDICTABLE>
    3be0:	00000218 	andeq	r0, r0, r8, lsl r2
    3be4:	04f69c01 	ldrbteq	r9, [r6], #3073	; 0xc01
    3be8:	cc100000 	ldcgt	0, cr0, [r0], {-0}
    3bec:	01000015 	tsteq	r0, r5, lsl r0
    3bf0:	018e031c 	orreq	r0, lr, ip, lsl r3
    3bf4:	91020000 	mrsls	r0, (UNDEF: 2)
    3bf8:	17791064 	ldrbne	r1, [r9, -r4, rrx]!
    3bfc:	1c010000 	stcne	0, cr0, [r1], {-0}
    3c00:	00005d03 	andeq	r5, r0, r3, lsl #26
    3c04:	60910200 	addsvs	r0, r1, r0, lsl #4
    3c08:	00163611 	andseq	r3, r6, r1, lsl r6
    3c0c:	031e0100 	tsteq	lr, #0, 2
    3c10:	00000395 	muleq	r0, r5, r3
    3c14:	11709102 	cmnne	r0, r2, lsl #2
    3c18:	00001a84 	andeq	r1, r0, r4, lsl #21
    3c1c:	5d031f01 	stcpl	15, cr1, [r3, #-4]
    3c20:	02000000 	andeq	r0, r0, #0
    3c24:	3c116c91 	ldccc	12, cr6, [r1], {145}	; 0x91
    3c28:	01000016 	tsteq	r0, r6, lsl r0
    3c2c:	003a0320 	eorseq	r0, sl, r0, lsr #6
    3c30:	91020000 	mrsls	r0, (UNDEF: 2)
    3c34:	0b130074 	bleq	4c3e0c <load_address-0x9fb3c1f4>
    3c38:	01000014 	tsteq	r0, r4, lsl r0
    3c3c:	61b40388 			; <UNDEFINED> instruction: 0x61b40388
    3c40:	0154a000 	cmpeq	r4, r0
    3c44:	9c010000 	stcls	0, cr0, [r1], {-0}
    3c48:	0000052b 	andeq	r0, r0, fp, lsr #10
    3c4c:	001b1b10 	andseq	r1, fp, r0, lsl fp
    3c50:	03880100 	orreq	r0, r8, #0, 2
    3c54:	0000018e 	andeq	r0, r0, lr, lsl #3
    3c58:	116c9102 	cmnne	ip, r2, lsl #2
    3c5c:	00001636 	andeq	r1, r0, r6, lsr r6
    3c60:	95038a01 	strls	r8, [r3, #-2561]	; 0xa01
    3c64:	02000003 	andeq	r0, r0, #3
    3c68:	14007491 	strne	r7, [r0], #-1169	; 0x491
    3c6c:	0000160f 	andeq	r1, r0, pc, lsl #12
    3c70:	3a03c801 	bcc	f5c7c <load_address-0x9ff0a384>
    3c74:	08000000 	stmdaeq	r0, {}	; <UNPREDICTABLE>
    3c78:	78a00063 	stmiavc	r0!, {r0, r1, r5, r6}
    3c7c:	01000000 	mrseq	r0, (UNDEF: 0)
    3c80:	0005739c 	muleq	r5, ip, r3
    3c84:	15cd1000 	strbne	r1, [sp]
    3c88:	c8010000 	stmdagt	r1, {}	; <UNPREDICTABLE>
    3c8c:	00018e03 	andeq	r8, r1, r3, lsl #28
    3c90:	74910200 	ldrvc	r0, [r1], #512	; 0x200
    3c94:	0011df11 	andseq	sp, r1, r1, lsl pc
    3c98:	03ca0100 	biceq	r0, sl, #0, 2
    3c9c:	0000003a 	andeq	r0, r0, sl, lsr r0
    3ca0:	117c9102 	cmnne	ip, r2, lsl #2
    3ca4:	00001636 	andeq	r1, r0, r6, lsr r6
    3ca8:	7303cb01 	movwvc	ip, #15105	; 0x3b01
    3cac:	02000005 	andeq	r0, r0, #5
    3cb0:	0c007891 	stceq	8, cr7, [r0], {145}	; 0x91
    3cb4:	00000578 	andeq	r0, r0, r8, ror r5
    3cb8:	057e0406 	ldrbeq	r0, [lr, #-1030]!	; 0x406
    3cbc:	aa0c0000 	bge	303cc4 <load_address-0x9fcfc33c>
    3cc0:	13000002 	movwne	r0, #2
    3cc4:	0000164b 	andeq	r1, r0, fp, asr #12
    3cc8:	8003ea01 	andhi	lr, r3, r1, lsl #20
    3ccc:	3ca00063 	stccc	0, cr0, [r0], #396	; 0x18c
    3cd0:	01000001 	tsteq	r0, r1
    3cd4:	0005b89c 	muleq	r5, ip, r8
    3cd8:	14ae1000 	strtne	r1, [lr], #0
    3cdc:	ea010000 	b	43ce4 <load_address-0x9ffbc31c>
    3ce0:	00018e03 	andeq	r8, r1, r3, lsl #28
    3ce4:	6c910200 	lfmvs	f0, 4, [r1], {0}
    3ce8:	00163611 	andseq	r3, r6, r1, lsl r6
    3cec:	03ec0100 	mvneq	r0, #0, 2
    3cf0:	00000395 	muleq	r0, r5, r3
    3cf4:	00749102 	rsbseq	r9, r4, r2, lsl #2
    3cf8:	0018aa0f 	andseq	sl, r8, pc, lsl #20
    3cfc:	04170100 	ldreq	r0, [r7], #-256	; 0x100
    3d00:	0000003a 	andeq	r0, r0, sl, lsr r0
    3d04:	a00064bc 			; <UNDEFINED> instruction: 0xa00064bc
    3d08:	0000013c 	andeq	r0, r0, ip, lsr r1
    3d0c:	06009c01 	streq	r9, [r0], -r1, lsl #24
    3d10:	ae100000 	cdpge	0, 1, cr0, cr0, cr0, {0}
    3d14:	01000014 	tsteq	r0, r4, lsl r0
    3d18:	018e0417 	orreq	r0, lr, r7, lsl r4
    3d1c:	91020000 	mrsls	r0, (UNDEF: 2)
    3d20:	163c116c 	ldrtne	r1, [ip], -ip, ror #2
    3d24:	19010000 	stmdbne	r1, {}	; <UNPREDICTABLE>
    3d28:	00003a04 	andeq	r3, r0, r4, lsl #20
    3d2c:	74910200 	ldrvc	r0, [r1], #512	; 0x200
    3d30:	00163611 	andseq	r3, r6, r1, lsl r6
    3d34:	041a0100 	ldreq	r0, [sl], #-256	; 0x100
    3d38:	00000395 	muleq	r0, r5, r3
    3d3c:	00709102 	rsbseq	r9, r0, r2, lsl #2
    3d40:	00157e13 	andseq	r7, r5, r3, lsl lr
    3d44:	04400100 	strbeq	r0, [r0], #-256	; 0x100
    3d48:	a00065f8 	strdge	r6, [r0], -r8
    3d4c:	000000b0 	strheq	r0, [r0], -r0	; <UNPREDICTABLE>
    3d50:	06269c01 	strteq	r9, [r6], -r1, lsl #24
    3d54:	df110000 	svcle	0x00110000
    3d58:	01000011 	tsteq	r0, r1, lsl r0
    3d5c:	003a0442 	eorseq	r0, sl, r2, asr #8
    3d60:	91020000 	mrsls	r0, (UNDEF: 2)
    3d64:	69150074 	ldmdbvs	r5, {r2, r4, r5, r6}
    3d68:	01000018 	tsteq	r0, r8, lsl r0
    3d6c:	66a80474 	sxtabvs	r0, r8, r4, ror #8
    3d70:	0024a000 	eoreq	sl, r4, r0
    3d74:	9c010000 	stcls	0, cr0, [r1], {-0}
    3d78:	001a2216 	andseq	r2, sl, r6, lsl r2
    3d7c:	047f0100 	ldrbteq	r0, [pc], #-256	; 3d84 <load_address-0x9fffc27c>
    3d80:	a00066cc 	andge	r6, r0, ip, asr #13
    3d84:	00000028 	andeq	r0, r0, r8, lsr #32
    3d88:	7b0f9c01 	blvc	3ead94 <load_address-0x9fc1526c>
    3d8c:	01000018 	tsteq	r0, r8, lsl r0
    3d90:	003a0487 	eorseq	r0, sl, r7, lsl #9
    3d94:	66f40000 	ldrbtvs	r0, [r4], r0
    3d98:	0234a000 	eorseq	sl, r4, #0
    3d9c:	9c010000 	stcls	0, cr0, [r1], {-0}
    3da0:	0000069b 	muleq	r0, fp, r6
    3da4:	00163611 	andseq	r3, r6, r1, lsl r6
    3da8:	04890100 	streq	r0, [r9], #256	; 0x100
    3dac:	00000395 	muleq	r0, r5, r3
    3db0:	7f115401 	svcvc	0x00115401
    3db4:	01000014 	tsteq	r0, r4, lsl r0
    3db8:	003a048a 	eorseq	r0, sl, sl, lsl #9
    3dbc:	91020000 	mrsls	r0, (UNDEF: 2)
    3dc0:	6754126c 	ldrbvs	r1, [r4, -ip, ror #4]
    3dc4:	017ca000 	cmneq	ip, r0
    3dc8:	3c110000 	ldccc	0, cr0, [r1], {-0}
    3dcc:	01000016 	tsteq	r0, r6, lsl r0
    3dd0:	003a049d 	mlaseq	sl, sp, r4, r0
    3dd4:	91020000 	mrsls	r0, (UNDEF: 2)
    3dd8:	0f000068 	svceq	0x00000068
    3ddc:	0000198a 	andeq	r1, r0, sl, lsl #19
    3de0:	9704de01 	strls	sp, [r4, -r1, lsl #28]
    3de4:	28000000 	stmdacs	r0, {}	; <UNPREDICTABLE>
    3de8:	34a00069 	strtcc	r0, [r0], #105	; 0x69
    3dec:	01000000 	mrseq	r0, (UNDEF: 0)
    3df0:	0006c59c 	muleq	r6, ip, r5
    3df4:	1a1b1100 	bne	6c81fc <load_address-0x9f937e04>
    3df8:	e0010000 	and	r0, r1, r0
    3dfc:	00009704 	andeq	r9, r0, r4, lsl #14
    3e00:	74910200 	ldrvc	r0, [r1], #512	; 0x200
    3e04:	15160f00 	ldrne	r0, [r6, #-3840]	; 0xf00
    3e08:	ed010000 	stc	0, cr0, [r1, #-0]
    3e0c:	00009704 	andeq	r9, r0, r4, lsl #14
    3e10:	00695c00 	rsbeq	r5, r9, r0, lsl #24
    3e14:	000044a0 	andeq	r4, r0, r0, lsr #9
    3e18:	fe9c0100 	cdp2	1, 9, cr0, cr12, cr0, {0}
    3e1c:	11000006 	tstne	r0, r6
    3e20:	000011df 	ldrdeq	r1, [r0], -pc	; <UNPREDICTABLE>
    3e24:	9704ef01 	strls	lr, [r4, -r1, lsl #30]
    3e28:	02000000 	andeq	r0, r0, #0
    3e2c:	f3117091 	vqadd.u16	d7, d17, d1
    3e30:	01000012 	tsteq	r0, r2, lsl r0
    3e34:	005d04f0 	ldrsheq	r0, [sp], #-64	; 0xffffffc0
    3e38:	91020000 	mrsls	r0, (UNDEF: 2)
    3e3c:	d0170074 	andsle	r0, r7, r4, ror r0
    3e40:	01000019 	tsteq	r0, r9, lsl r0
    3e44:	005d04fa 	ldrsheq	r0, [sp], #-74	; 0xffffffb6
    3e48:	69a00000 	stmibvs	r0!, {}	; <UNPREDICTABLE>
    3e4c:	0018a000 	andseq	sl, r8, r0
    3e50:	9c010000 	stcls	0, cr0, [r1], {-0}
    3e54:	0015f713 	andseq	pc, r5, r3, lsl r7	; <UNPREDICTABLE>
    3e58:	05040100 	streq	r0, [r4, #-256]	; 0x100
    3e5c:	a00069b8 			; <UNDEFINED> instruction: 0xa00069b8
    3e60:	00000180 	andeq	r0, r0, r0, lsl #3
    3e64:	07499c01 	strbeq	r9, [r9, -r1, lsl #24]
    3e68:	7c100000 	ldcvc	0, cr0, [r0], {-0}
    3e6c:	01000019 	tsteq	r0, r9, lsl r0
    3e70:	07490504 	strbeq	r0, [r9, -r4, lsl #10]
    3e74:	91020000 	mrsls	r0, (UNDEF: 2)
    3e78:	183c116c 	ldmdane	ip!, {r2, r3, r5, r6, r8, ip}
    3e7c:	06010000 	streq	r0, [r1], -r0
    3e80:	00005d05 	andeq	r5, r0, r5, lsl #26
    3e84:	74910200 	ldrvc	r0, [r1], #512	; 0x200
    3e88:	48040600 	stmdami	r4, {r9, sl}
    3e8c:	13000000 	movwne	r0, #0
    3e90:	00001449 	andeq	r1, r0, r9, asr #8
    3e94:	38058e01 	stmdacc	r5, {r0, r9, sl, fp, pc}
    3e98:	7ca0006b 	stcvc	0, cr0, [r0], #428	; 0x1ac
    3e9c:	01000000 	mrseq	r0, (UNDEF: 0)
    3ea0:	0007849c 	muleq	r7, ip, r4
    3ea4:	17ba1000 	ldrne	r1, [sl, r0]!
    3ea8:	8e010000 	cdphi	0, 0, cr0, cr1, cr0, {0}
    3eac:	00074905 	andeq	r4, r7, r5, lsl #18
    3eb0:	74910200 	ldrvc	r0, [r1], #512	; 0x200
    3eb4:	001a3210 	andseq	r3, sl, r0, lsl r2
    3eb8:	058e0100 	streq	r0, [lr, #256]	; 0x100
    3ebc:	0000005d 	andeq	r0, r0, sp, asr r0
    3ec0:	00709102 	rsbseq	r9, r0, r2, lsl #2
    3ec4:	001a750f 	andseq	r7, sl, pc, lsl #10
    3ec8:	05a20100 	streq	r0, [r2, #256]!	; 0x100
    3ecc:	0000005d 	andeq	r0, r0, sp, asr r0
    3ed0:	a0006bb4 			; <UNDEFINED> instruction: 0xa0006bb4
    3ed4:	00000060 	andeq	r0, r0, r0, rrx
    3ed8:	07ae9c01 	streq	r9, [lr, r1, lsl #24]!
    3edc:	ff110000 			; <UNDEFINED> instruction: 0xff110000
    3ee0:	01000016 	tsteq	r0, r6, lsl r0
    3ee4:	005d05a4 	subseq	r0, sp, r4, lsr #11
    3ee8:	91020000 	mrsls	r0, (UNDEF: 2)
    3eec:	44130074 	ldrmi	r0, [r3], #-116	; 0x74
    3ef0:	01000018 	tsteq	r0, r8, lsl r0
    3ef4:	6c1405b9 	cfldr32vs	mvfx0, [r4], {185}	; 0xb9
    3ef8:	02c0a000 	sbceq	sl, r0, #0
    3efc:	9c010000 	stcls	0, cr0, [r1], {-0}
    3f00:	0000080a 	andeq	r0, r0, sl, lsl #16
    3f04:	00163611 	andseq	r3, r6, r1, lsl r6
    3f08:	05bb0100 	ldreq	r0, [fp, #256]!	; 0x100
    3f0c:	00000395 	muleq	r0, r5, r3
    3f10:	18709102 	ldmdane	r0!, {r1, r8, ip, pc}^
    3f14:	a0006c60 	andge	r6, r0, r0, ror #24
    3f18:	000000ac 	andeq	r0, r0, ip, lsr #1
    3f1c:	000007f0 	strdeq	r0, [r0], -r0	; <UNPREDICTABLE>
    3f20:	000c6711 	andeq	r6, ip, r1, lsl r7
    3f24:	05c50100 	strbeq	r0, [r5, #256]	; 0x100
    3f28:	0000080a 	andeq	r0, r0, sl, lsl #16
    3f2c:	00749102 	rsbseq	r9, r4, r2, lsl #2
    3f30:	006d0c12 	rsbeq	r0, sp, r2, lsl ip
    3f34:	000138a0 	andeq	r3, r1, r0, lsr #17
    3f38:	0ccb1100 	stfeqe	f1, [fp], {0}
    3f3c:	e6010000 	str	r0, [r1], -r0
    3f40:	00009705 	andeq	r9, r0, r5, lsl #14
    3f44:	6c910200 	lfmvs	f0, 4, [r1], {0}
    3f48:	04060000 	streq	r0, [r6], #-0
    3f4c:	00000183 	andeq	r0, r0, r3, lsl #3
    3f50:	0016ec19 	andseq	lr, r6, r9, lsl ip
    3f54:	06900100 	ldreq	r0, [r0], r0, lsl #2
    3f58:	a0006ed4 	ldrdge	r6, [r0], -r4
    3f5c:	00000270 	andeq	r0, r0, r0, ror r2
    3f60:	08409c01 	stmdaeq	r0, {r0, sl, fp, ip, pc}^
    3f64:	5c120000 	ldcpl	0, cr0, [r2], {-0}
    3f68:	84a0006f 	strthi	r0, [r0], #111	; 0x6f
    3f6c:	11000000 	mrsne	r0, (UNDEF: 0)
    3f70:	00000d15 	andeq	r0, r0, r5, lsl sp
    3f74:	4006bc01 	andmi	fp, r6, r1, lsl #24
    3f78:	02000008 	andeq	r0, r0, #8
    3f7c:	00007c91 	muleq	r0, r1, ip
    3f80:	00080a0c 	andeq	r0, r8, ip, lsl #20
    3f84:	15b61300 	ldrne	r1, [r6, #768]!	; 0x300
    3f88:	c4010000 	strgt	r0, [r1], #-0
    3f8c:	00714406 	rsbseq	r4, r1, r6, lsl #8
    3f90:	0000b8a0 	andeq	fp, r0, r0, lsr #17
    3f94:	899c0100 	ldmibhi	ip, {r8}
    3f98:	10000008 	andne	r0, r0, r8
    3f9c:	00000e7d 	andeq	r0, r0, sp, ror lr
    3fa0:	8906c401 	stmdbhi	r6, {r0, sl, lr, pc}
    3fa4:	02000008 	andeq	r0, r0, #8
    3fa8:	68106c91 	ldmdavs	r0, {r0, r4, r7, sl, fp, sp, lr}
    3fac:	0100001a 	tsteq	r0, sl, lsl r0
    3fb0:	009706c4 	addseq	r0, r7, r4, asr #13
    3fb4:	91020000 	mrsls	r0, (UNDEF: 2)
    3fb8:	0eaa1168 	fdveqez	f1, f2, #0.0
    3fbc:	c6010000 	strgt	r0, [r1], -r0
    3fc0:	00009706 	andeq	r9, r0, r6, lsl #14
    3fc4:	74910200 	ldrvc	r0, [r1], #512	; 0x200
    3fc8:	088e0c00 	stmeq	lr, {sl, fp}
    3fcc:	04060000 	streq	r0, [r6], #-0
    3fd0:	00000894 	muleq	r0, r4, r8
    3fd4:	0001830c 	andeq	r8, r1, ip, lsl #6
    3fd8:	1a961300 	bne	fe588be0 <stack_irq+0x5dd6be88>
    3fdc:	f6010000 			; <UNDEFINED> instruction: 0xf6010000
    3fe0:	0071fc06 	rsbseq	pc, r1, r6, lsl #24
    3fe4:	000080a0 	andeq	r8, r0, r0, lsr #1
    3fe8:	dd9c0100 	ldfles	f0, [ip]
    3fec:	10000008 	andne	r0, r0, r8
    3ff0:	00000e7d 	andeq	r0, r0, sp, ror lr
    3ff4:	8906f601 	stmdbhi	r6, {r0, r9, sl, ip, sp, lr, pc}
    3ff8:	02000008 	andeq	r0, r0, #8
    3ffc:	68106c91 	ldmdavs	r0, {r0, r4, r7, sl, fp, sp, lr}
    4000:	0100001a 	tsteq	r0, sl, lsl r0
    4004:	009706f6 			; <UNDEFINED> instruction: 0x009706f6
    4008:	91020000 	mrsls	r0, (UNDEF: 2)
    400c:	0eaa1168 	fdveqez	f1, f2, #0.0
    4010:	f8010000 			; <UNDEFINED> instruction: 0xf8010000
    4014:	00009706 	andeq	r9, r0, r6, lsl #14
    4018:	74910200 	ldrvc	r0, [r1], #512	; 0x200
    401c:	19570f00 	ldmdbne	r7, {r8, r9, sl, fp}^
    4020:	16010000 	strne	r0, [r1], -r0
    4024:	00003a07 	andeq	r3, r0, r7, lsl #20
    4028:	00727c00 	rsbseq	r7, r2, r0, lsl #24
    402c:	000140a0 	andeq	r4, r1, r0, lsr #1
    4030:	259c0100 	ldrcs	r0, [ip, #256]	; 0x100
    4034:	10000009 	andne	r0, r0, r9
    4038:	00000e7d 	andeq	r0, r0, sp, ror lr
    403c:	89071601 	stmdbhi	r7, {r0, r9, sl, ip}
    4040:	02000008 	andeq	r0, r0, #8
    4044:	0c116c91 	ldceq	12, cr6, [r1], {145}	; 0x91
    4048:	01000018 	tsteq	r0, r8, lsl r0
    404c:	03950718 	orrseq	r0, r5, #24, 14	; 0x600000
    4050:	91020000 	mrsls	r0, (UNDEF: 2)
    4054:	11df1170 	bicsne	r1, pc, r0, ror r1	; <UNPREDICTABLE>
    4058:	19010000 	stmdbne	r1, {}	; <UNPREDICTABLE>
    405c:	00003a07 	andeq	r3, r0, r7, lsl #20
    4060:	74910200 	ldrvc	r0, [r1], #512	; 0x200
    4064:	1b061900 	blne	18a46c <load_address-0x9fe75b94>
    4068:	49010000 	stmdbmi	r1, {}	; <UNPREDICTABLE>
    406c:	0073bc07 	rsbseq	fp, r3, r7, lsl #24
    4070:	000040a0 	andeq	r4, r0, r0, lsr #1
    4074:	4b9c0100 	blmi	fe70447c <stack_irq+0x5dee7724>
    4078:	10000009 	andne	r0, r0, r9
    407c:	0000148f 	andeq	r1, r0, pc, lsl #9
    4080:	4b074901 	blmi	1d648c <load_address-0x9fe29b74>
    4084:	02000009 	andeq	r0, r0, #9
    4088:	0c007c91 	stceq	12, cr7, [r0], {145}	; 0x91
    408c:	00000950 	andeq	r0, r0, r0, asr r9
    4090:	01be0406 			; <UNDEFINED> instruction: 0x01be0406
    4094:	9c0f0000 	stcls	0, cr0, [pc], {-0}
    4098:	01000019 	tsteq	r0, r9, lsl r0
    409c:	003a0751 	eorseq	r0, sl, r1, asr r7
    40a0:	73fc0000 	mvnsvc	r0, #0
    40a4:	0108a000 	mrseq	sl, (UNDEF: 8)
    40a8:	9c010000 	stcls	0, cr0, [r1], {-0}
    40ac:	0000099e 	muleq	r0, lr, r9
    40b0:	00148f10 	andseq	r8, r4, r0, lsl pc
    40b4:	07510100 	ldrbeq	r0, [r1, -r0, lsl #2]
    40b8:	0000094b 	andeq	r0, r0, fp, asr #18
    40bc:	106c9102 	rsbne	r9, ip, r2, lsl #2
    40c0:	00001a67 	andeq	r1, r0, r7, ror #20
    40c4:	fd075101 	stc2	1, cr5, [r7, #-4]
    40c8:	02000003 	andeq	r0, r0, #3
    40cc:	df116891 	svcle	0x00116891
    40d0:	01000011 	tsteq	r0, r1, lsl r0
    40d4:	003a0753 	eorseq	r0, sl, r3, asr r7
    40d8:	91020000 	mrsls	r0, (UNDEF: 2)
    40dc:	8a160074 	bhi	5842b4 <load_address-0x9fa7bd4c>
    40e0:	01000018 	tsteq	r0, r8, lsl r0
    40e4:	7504077f 	strvc	r0, [r4, #-1919]	; 0x77f
    40e8:	0018a000 	andseq	sl, r8, r0
    40ec:	9c010000 	stcls	0, cr0, [r1], {-0}
    40f0:	0016a61a 	andseq	sl, r6, sl, lsl r6
    40f4:	078f0100 	streq	r0, [pc, r0, lsl #2]
    40f8:	a000751c 	andge	r7, r0, ip, lsl r5
    40fc:	00000018 	andeq	r0, r0, r8, lsl r0
    4100:	09e89c01 	stmibeq	r8!, {r0, sl, fp, ip, pc}^
    4104:	56100000 	ldrpl	r0, [r0], -r0
    4108:	01000000 	mrseq	r0, (UNDEF: 0)
    410c:	0079078f 	rsbseq	r0, r9, pc, lsl #15
    4110:	91020000 	mrsls	r0, (UNDEF: 2)
    4114:	752c1274 	strvc	r1, [ip, #-628]!	; 0x274
    4118:	0004a000 	andeq	sl, r4, r0
    411c:	111b0000 	tstne	fp, r0
    4120:	01000000 	mrseq	r0, (UNDEF: 0)
    4124:	000007b7 			; <UNDEFINED> instruction: 0x000007b7
    4128:	0013f11a 	andseq	pc, r3, sl, lsl r1	; <UNPREDICTABLE>
    412c:	07d00100 	ldrbeq	r0, [r0, r0, lsl #2]
    4130:	a0007534 	andge	r7, r0, r4, lsr r5
    4134:	000000c4 	andeq	r0, r0, r4, asr #1
    4138:	0a4a9c01 	beq	12ab144 <load_address-0x9ed54ebc>
    413c:	36100000 	ldrcc	r0, [r0], -r0
    4140:	01000016 	tsteq	r0, r6, lsl r0
    4144:	039507d0 	orrseq	r0, r5, #208, 14	; 0x3400000
    4148:	91020000 	mrsls	r0, (UNDEF: 2)
    414c:	1aed1074 	bne	ffb48324 <stack_irq+0x5f32b5cc>
    4150:	d0010000 	andle	r0, r1, r0
    4154:	00020507 	andeq	r0, r2, r7, lsl #10
    4158:	70910200 	addsvc	r0, r1, r0, lsl #4
    415c:	000e3f10 	andeq	r3, lr, r0, lsl pc
    4160:	07d00100 	ldrbeq	r0, [r0, r0, lsl #2]
    4164:	0000005d 	andeq	r0, r0, sp, asr r0
    4168:	106c9102 	rsbne	r9, ip, r2, lsl #2
    416c:	00001746 	andeq	r1, r0, r6, asr #14
    4170:	8507d001 	strhi	sp, [r7, #-1]
    4174:	02000003 	andeq	r0, r0, #3
    4178:	51106891 			; <UNDEFINED> instruction: 0x51106891
    417c:	01000015 	tsteq	r0, r5, lsl r0
    4180:	003307d0 	ldrsbteq	r0, [r3], -r0
    4184:	91020000 	mrsls	r0, (UNDEF: 2)
    4188:	391a0000 	ldmdbcc	sl, {}	; <UNPREDICTABLE>
    418c:	0100001b 	tsteq	r0, fp, lsl r0
    4190:	75f80826 	ldrbvc	r0, [r8, #2086]!	; 0x826
    4194:	00e8a000 	rsceq	sl, r8, r0
    4198:	9c010000 	stcls	0, cr0, [r1], {-0}
    419c:	00000a70 	andeq	r0, r0, r0, ror sl
    41a0:	000e3f11 	andeq	r3, lr, r1, lsl pc
    41a4:	08280100 	stmdaeq	r8!, {r8}
    41a8:	0000005d 	andeq	r0, r0, sp, asr r0
    41ac:	00749102 	rsbseq	r9, r4, r2, lsl #2
    41b0:	0018fd1c 	andseq	pc, r8, ip, lsl sp	; <UNPREDICTABLE>
    41b4:	08460100 	stmdaeq	r6, {r8}^
    41b8:	a00076e0 	andge	r7, r0, r0, ror #13
    41bc:	00000004 	andeq	r0, r0, r4
    41c0:	381a9c01 	ldmdacc	sl, {r0, sl, fp, ip, pc}
    41c4:	01000019 	tsteq	r0, r9, lsl r0
    41c8:	76e40869 	strbtvc	r0, [r4], r9, ror #16
    41cc:	00e0a000 	rsceq	sl, r0, r0
    41d0:	9c010000 	stcls	0, cr0, [r1], {-0}
    41d4:	00000aa8 	andeq	r0, r0, r8, lsr #21
    41d8:	000eaa10 	andeq	sl, lr, r0, lsl sl
    41dc:	08690100 	stmdaeq	r9!, {r8}^
    41e0:	00000097 	muleq	r0, r7, r0
    41e4:	00749102 	rsbseq	r9, r4, r2, lsl #2
    41e8:	00152f1d 	andseq	r2, r5, sp, lsl pc
    41ec:	08830100 	stmeq	r3, {r8}
    41f0:	00000395 	muleq	r0, r5, r3
    41f4:	a00077c4 	andge	r7, r0, r4, asr #15
    41f8:	000000b0 	strheq	r0, [r0], -r0	; <UNPREDICTABLE>
    41fc:	0af09c01 	beq	ffc2b208 <stack_irq+0x5f40e4b0>
    4200:	51100000 	tstpl	r0, r0
    4204:	01000015 	tsteq	r0, r5, lsl r0
    4208:	00330883 	eorseq	r0, r3, r3, lsl #17
    420c:	91020000 	mrsls	r0, (UNDEF: 2)
    4210:	155e106e 	ldrbne	r1, [lr, #-110]	; 0x6e
    4214:	83010000 	movwhi	r0, #4096	; 0x1000
    4218:	00021508 	andeq	r1, r2, r8, lsl #10
    421c:	68910200 	ldmvs	r1, {r9}
    4220:	00150d11 	andseq	r0, r5, r1, lsl sp
    4224:	08850100 	stmeq	r5, {r8}
    4228:	00000395 	muleq	r0, r5, r3
    422c:	00749102 	rsbseq	r9, r4, r2, lsl #2
    4230:	0018e11a 	andseq	lr, r8, sl, lsl r1
    4234:	08a50100 	stmiaeq	r5!, {r8}
    4238:	a0007874 	andge	r7, r0, r4, ror r8
    423c:	0000015c 	andeq	r0, r0, ip, asr r1
    4240:	0b979c01 	bleq	fe5eb24c <stack_irq+0x5ddce4f4>
    4244:	7c100000 	ldcvc	0, cr0, [r0], {-0}
    4248:	01000019 	tsteq	r0, r9, lsl r0
    424c:	020a08a5 	andeq	r0, sl, #10813440	; 0xa50000
    4250:	91020000 	mrsls	r0, (UNDEF: 2)
    4254:	1023105c 	eorne	r1, r3, ip, asr r0
    4258:	a5010000 	strge	r0, [r1, #-0]
    425c:	00080a08 	andeq	r0, r8, r8, lsl #20
    4260:	58910200 	ldmpl	r1, {r9}
    4264:	00169110 	andseq	r9, r6, r0, lsl r1
    4268:	08a50100 	stmiaeq	r5!, {r8}
    426c:	00000048 	andeq	r0, r0, r8, asr #32
    4270:	11579102 	cmpne	r7, r2, lsl #2
    4274:	000017f3 	strdeq	r1, [r0], -r3
    4278:	9708a701 	strls	sl, [r8, -r1, lsl #14]
    427c:	0200000b 	andeq	r0, r0, #11
    4280:	46116891 			; <UNDEFINED> instruction: 0x46116891
    4284:	01000015 	tsteq	r0, r5, lsl r0
    4288:	0b9708a7 	bleq	fe5c652c <stack_irq+0x5dda97d4>
    428c:	91020000 	mrsls	r0, (UNDEF: 2)
    4290:	181b1170 	ldmdane	fp, {r4, r5, r6, r8, ip}
    4294:	a8010000 	stmdage	r1, {}	; <UNPREDICTABLE>
    4298:	00003308 	andeq	r3, r0, r8, lsl #6
    429c:	66910200 	ldrvs	r0, [r1], r0, lsl #4
    42a0:	00788c18 	rsbseq	r8, r8, r8, lsl ip
    42a4:	000058a0 	andeq	r5, r0, r0, lsr #17
    42a8:	000b7d00 	andeq	r7, fp, r0, lsl #26
    42ac:	0d151100 	ldfeqs	f1, [r5, #-0]
    42b0:	ab010000 	blge	442b8 <load_address-0x9ffbbd48>
    42b4:	00084008 	andeq	r4, r8, r8
    42b8:	74910200 	ldrvc	r0, [r1], #512	; 0x200
    42bc:	78e41200 	stmiavc	r4!, {r9, ip}^
    42c0:	0058a000 	subseq	sl, r8, r0
    42c4:	15110000 	ldrne	r0, [r1, #-0]
    42c8:	0100000d 	tsteq	r0, sp
    42cc:	084008ae 	stmdaeq	r0, {r1, r2, r3, r5, r7, fp}^
    42d0:	91020000 	mrsls	r0, (UNDEF: 2)
    42d4:	0600006c 	streq	r0, [r0], -ip, rrx
    42d8:	000b9d04 	andeq	r9, fp, r4, lsl #26
    42dc:	02aa0b00 	adceq	r0, sl, #0, 22
    42e0:	681e0000 	ldmdavs	lr, {}	; <UNPREDICTABLE>
    42e4:	01000016 	tsteq	r0, r6, lsl r0
    42e8:	0033090b 	eorseq	r0, r3, fp, lsl #18
    42ec:	79d00000 	ldmibvc	r0, {}^	; <UNPREDICTABLE>
    42f0:	0058a000 	subseq	sl, r8, r0
    42f4:	9c010000 	stcls	0, cr0, [r1], {-0}
    42f8:	00000bda 	ldrdeq	r0, [r0], -sl
    42fc:	00169910 	andseq	r9, r6, r0, lsl r9
    4300:	090b0100 	stmdbeq	fp, {r8}
    4304:	00000bda 	ldrdeq	r0, [r0], -sl
    4308:	11749102 	cmnne	r4, r2, lsl #2
    430c:	00001724 	andeq	r1, r0, r4, lsr #14
    4310:	33090d01 	movwcc	r0, #40193	; 0x9d01
    4314:	01000000 	mrseq	r0, (UNDEF: 0)
    4318:	04060054 	streq	r0, [r6], #-84	; 0x54
    431c:	00000be0 	andeq	r0, r0, r0, ror #23
    4320:	00004f0c 	andeq	r4, r0, ip, lsl #30
    4324:	142f1400 	strtne	r1, [pc], #-1024	; 432c <load_address-0x9fffbcd4>
    4328:	4a010000 	bmi	44330 <load_address-0x9ffbbcd0>
    432c:	00018e09 	andeq	r8, r1, r9, lsl #28
    4330:	007a2800 	rsbseq	r2, sl, r0, lsl #16
    4334:	000034a0 	andeq	r3, r0, r0, lsr #9
    4338:	0f9c0100 	svceq	0x009c0100
    433c:	1100000c 	tstne	r0, ip
    4340:	000011df 	ldrdeq	r1, [r0], -pc	; <UNPREDICTABLE>
    4344:	8e094c01 	cdphi	12, 0, cr4, cr9, cr1, {0}
    4348:	02000001 	andeq	r0, r0, #1
    434c:	14007c91 	strne	r7, [r0], #-3217	; 0xc91
    4350:	000018bd 			; <UNDEFINED> instruction: 0x000018bd
    4354:	3a095c01 	bcc	25b360 <load_address-0x9fda4ca0>
    4358:	5c000000 	stcpl	0, cr0, [r0], {-0}
    435c:	64a0007a 	strtvs	r0, [r0], #122	; 0x7a
    4360:	01000000 	mrseq	r0, (UNDEF: 0)
    4364:	000c399c 	muleq	ip, ip, r9
    4368:	11df1100 	bicsne	r1, pc, r0, lsl #2
    436c:	5e010000 	cdppl	0, 0, cr0, cr1, cr0, {0}
    4370:	00003a09 	andeq	r3, r0, r9, lsl #20
    4374:	7c910200 	lfmvc	f0, 4, [r1], {0}
    4378:	14991300 	ldrne	r1, [r9], #768	; 0x300
    437c:	78010000 	stmdavc	r1, {}	; <UNPREDICTABLE>
    4380:	007ac009 	rsbseq	ip, sl, r9
    4384:	000158a0 	andeq	r5, r1, r0, lsr #17
    4388:	6e9c0100 	fmlvse	f0, f4, f0
    438c:	1000000c 	andne	r0, r0, ip
    4390:	0000170e 	andeq	r1, r0, lr, lsl #14
    4394:	6e097801 	cdpvs	8, 0, cr7, cr9, cr1, {0}
    4398:	0200000c 	andeq	r0, r0, #12
    439c:	36116c91 			; <UNDEFINED> instruction: 0x36116c91
    43a0:	01000016 	tsteq	r0, r6, lsl r0
    43a4:	0c73097a 	ldcleq	9, cr0, [r3], #-488	; 0xfffffe18
    43a8:	91020000 	mrsls	r0, (UNDEF: 2)
    43ac:	7f0c0074 	svcvc	0x000c0074
    43b0:	0c000003 	stceq	0, cr0, [r0], {3}
    43b4:	00000395 	muleq	r0, r5, r3
    43b8:	00174f13 	andseq	r4, r7, r3, lsl pc
    43bc:	099a0100 	ldmibeq	sl, {r8}
    43c0:	a0007c18 	andge	r7, r0, r8, lsl ip
    43c4:	000000e8 	andeq	r0, r0, r8, ror #1
    43c8:	0cad9c01 	stceq	12, cr9, [sp], #4
    43cc:	0e100000 	cdpeq	0, 1, cr0, cr0, cr0, {0}
    43d0:	01000017 	tsteq	r0, r7, lsl r0
    43d4:	0c6e099a 	stcleq	9, cr0, [lr], #-616	; 0xfffffd98
    43d8:	91020000 	mrsls	r0, (UNDEF: 2)
    43dc:	1636116c 	ldrtne	r1, [r6], -ip, ror #2
    43e0:	9c010000 	stcls	0, cr0, [r1], {-0}
    43e4:	000c7309 	andeq	r7, ip, r9, lsl #6
    43e8:	74910200 	ldrvc	r0, [r1], #512	; 0x200
    43ec:	14d41500 	ldrbne	r1, [r4], #1280	; 0x500
    43f0:	b4010000 	strlt	r0, [r1], #-0
    43f4:	007d0009 	rsbseq	r0, sp, r9
    43f8:	00004ca0 	andeq	r4, r0, r0, lsr #25
    43fc:	159c0100 	ldrne	r0, [ip, #256]	; 0x100
    4400:	000014e7 	andeq	r1, r0, r7, ror #9
    4404:	4c09c301 	stcmi	3, cr12, [r9], {1}
    4408:	80a0007d 	adchi	r0, r0, sp, ror r0
    440c:	01000000 	mrseq	r0, (UNDEF: 0)
    4410:	01830d9c 			; <UNDEFINED> instruction: 0x01830d9c
    4414:	0ce10000 	stcleq	0, cr0, [r1]
    4418:	720e0000 	andvc	r0, lr, #0
    441c:	09000000 	stmdbeq	r0, {}	; <UNPREDICTABLE>
    4420:	19be1f00 	ldmibne	lr!, {r8, r9, sl, fp, ip}
    4424:	8c010000 	stchi	0, cr0, [r1], {-0}
    4428:	00000cd1 	ldrdeq	r0, [r0], -r1
    442c:	99800305 	stmibls	r0, {r0, r2, r8, r9}
    4430:	e71fa000 	ldr	sl, [pc, -r0]
    4434:	01000019 	tsteq	r0, r9, lsl r0
    4438:	0001838d 	andeq	r8, r1, sp, lsl #7
    443c:	48030500 	stmdami	r3, {r8, sl}
    4440:	1fa0009a 	svcne	0x00a0009a
    4444:	000019f9 	strdeq	r1, [r0], -r9
    4448:	01838e01 	orreq	r8, r3, r1, lsl #28
    444c:	03050000 	movweq	r0, #20480	; 0x5000
    4450:	a0009a5c 	andge	r9, r0, ip, asr sl
    4454:	001adb1f 	andseq	sp, sl, pc, lsl fp
    4458:	258f0100 	strcs	r0, [pc, #256]	; 4560 <load_address-0x9fffbaa0>
    445c:	0500000d 	streq	r0, [r0, #-13]
    4460:	009a7003 	addseq	r7, sl, r3
    4464:	080a0ba0 	stmdaeq	sl, {r5, r7, r8, r9, fp}
    4468:	2c1f0000 	ldccs	0, cr0, [pc], {-0}
    446c:	01000017 	tsteq	r0, r7, lsl r0
    4470:	000d2590 	muleq	sp, r0, r5
    4474:	74030500 	strvc	r0, [r3], #-1280	; 0x500
    4478:	1fa0009a 	svcne	0x00a0009a
    447c:	00001767 	andeq	r1, r0, r7, ror #14
    4480:	01839101 	orreq	r9, r3, r1, lsl #2
    4484:	03050000 	movweq	r0, #20480	; 0x5000
    4488:	a0009a78 	andge	r9, r0, r8, ror sl
    448c:	0014591f 	andseq	r5, r4, pc, lsl r9
    4490:	839c0100 	orrshi	r0, ip, #0, 2
    4494:	05000001 	streq	r0, [r0, #-1]
    4498:	009a8c03 	addseq	r8, sl, r3, lsl #24
    449c:	14181fa0 	ldrne	r1, [r8], #-4000	; 0xfa0
    44a0:	a1010000 	mrsge	r0, (UNDEF: 1)
    44a4:	0000016e 	andeq	r0, r0, lr, ror #2
    44a8:	9aa00305 	bls	fe8050c4 <stack_irq+0x5dfe836c>
    44ac:	241fa000 	ldrcs	sl, [pc], #-0	; 44b4 <load_address-0x9fffbb4c>
    44b0:	01000016 	tsteq	r0, r6, lsl r0
    44b4:	000d7fa2 	andeq	r7, sp, r2, lsr #31
    44b8:	a4030500 	strge	r0, [r3], #-1280	; 0x500
    44bc:	0ba0009a 	bleq	fe80472c <stack_irq+0x5dfe79d4>
    44c0:	00000097 	muleq	r0, r7, r0
    44c4:	001ab61f 	andseq	fp, sl, pc, lsl r6
    44c8:	5da30100 	stfpls	f0, [r3]
    44cc:	05000000 	streq	r0, [r0, #-0]
    44d0:	009aa803 	addseq	sl, sl, r3, lsl #16
    44d4:	1ac81fa0 	bne	ff20c35c <stack_irq+0x5e9ef604>
    44d8:	a4010000 	strge	r0, [r1], #-0
    44dc:	0000016e 	andeq	r0, r0, lr, ror #2
    44e0:	9aac0305 	bls	feb050fc <stack_irq+0x5e2e83a4>
    44e4:	571fa000 	ldrpl	sl, [pc, -r0]
    44e8:	01000018 	tsteq	r0, r8, lsl r0
    44ec:	000db7a5 	andeq	fp, sp, r5, lsr #15
    44f0:	b0030500 	andlt	r0, r3, r0, lsl #10
    44f4:	0ba0009a 	bleq	fe804764 <stack_irq+0x5dfe7a0c>
    44f8:	0000003a 	andeq	r0, r0, sl, lsr r0
    44fc:	0015d31f 	andseq	sp, r5, pc, lsl r3
    4500:	6ea60100 	fdvvss	f0, f6, f0
    4504:	05000001 	streq	r0, [r0, #-1]
    4508:	009ab403 	addseq	fp, sl, r3, lsl #8
    450c:	1a3f1fa0 	bne	fcc394 <load_address-0x9f033c6c>
    4510:	a7010000 	strge	r0, [r1, -r0]
    4514:	0000016e 	andeq	r0, r0, lr, ror #2
    4518:	9ab80305 	bls	fee05134 <stack_irq+0x5e5e83dc>
    451c:	b21fa000 	andslt	sl, pc, #0
    4520:	01000016 	tsteq	r0, r6, lsl r0
    4524:	000db7a8 	andeq	fp, sp, r8, lsr #15
    4528:	bc030500 	cfstr32lt	mvfx0, [r3], {-0}
    452c:	1fa0009a 	svcne	0x00a0009a
    4530:	00001a0b 	andeq	r1, r0, fp, lsl #20
    4534:	0db7a901 	ldceq	9, cr10, [r7, #4]!
    4538:	03050000 	movweq	r0, #20480	; 0x5000
    453c:	a0009ac0 	andge	r9, r0, r0, asr #21
    4540:	0019b11f 	andseq	fp, r9, pc, lsl r1
    4544:	5daa0100 	stfpls	f0, [sl]
    4548:	05000000 	streq	r0, [r0, #-0]
    454c:	009ac403 	addseq	ip, sl, r3, lsl #8
    4550:	17921fa0 	ldrne	r1, [r2, r0, lsr #31]
    4554:	ab010000 	blge	4455c <load_address-0x9ffbbaa4>
    4558:	00000097 	muleq	r0, r7, r0
    455c:	97e80305 	strbls	r0, [r8, r5, lsl #6]!
    4560:	bf1fa000 	svclt	0x001fa000
    4564:	01000016 	tsteq	r0, r6, lsl r0
    4568:	000e33cb 	andeq	r3, lr, fp, asr #7
    456c:	c8030500 	stmdagt	r3, {r8, sl}
    4570:	0ba0009a 	bleq	fe8047e0 <stack_irq+0x5dfe7a88>
    4574:	00000e38 	andeq	r0, r0, r8, lsr lr
    4578:	0e3e0406 	cdpeq	4, 3, cr0, cr14, cr6, {0}
    457c:	480b0000 	stmdami	fp, {}	; <UNPREDICTABLE>
    4580:	1f000000 	svcne	0x00000000
    4584:	000017a7 	andeq	r1, r0, r7, lsr #15
    4588:	0749cc01 	strbeq	ip, [r9, -r1, lsl #24]
    458c:	03050000 	movweq	r0, #20480	; 0x5000
    4590:	a0009acc 	andge	r9, r0, ip, asr #21
    4594:	0016571f 	andseq	r5, r6, pc, lsl r7
    4598:	49cd0100 	stmibmi	sp, {r8}^
    459c:	05000007 	streq	r0, [r0, #-7]
    45a0:	009ad003 	addseq	sp, sl, r3
    45a4:	15921fa0 	ldrne	r1, [r2, #4000]	; 0xfa0
    45a8:	ce010000 	cdpgt	0, 0, cr0, cr1, cr0, {0}
    45ac:	0000003a 	andeq	r0, r0, sl, lsr r0
    45b0:	9ad40305 	bls	ff5051cc <stack_irq+0x5ece8474>
    45b4:	a71fa000 	ldrge	sl, [pc, -r0]
    45b8:	01000015 	tsteq	r0, r5, lsl r0
    45bc:	00005dcf 	andeq	r5, r0, pc, asr #27
    45c0:	ec030500 	cfstr32	mvfx0, [r3], {-0}
    45c4:	0da00097 	stceq	0, cr0, [r0, #604]!	; 0x25c
    45c8:	00000025 	andeq	r0, r0, r5, lsr #32
    45cc:	00000e97 	muleq	r0, r7, lr
    45d0:	0000720e 	andeq	r7, r0, lr, lsl #4
    45d4:	1f003100 	svcne	0x00003100
    45d8:	000017fd 	strdeq	r1, [r0], -sp
    45dc:	0e87d001 	cdpeq	0, 8, cr13, cr7, cr1, {0}
    45e0:	03050000 	movweq	r0, #20480	; 0x5000
    45e4:	a0009ad8 	ldrdge	r9, [r0], -r8
    45e8:	00004f0d 	andeq	r4, r0, sp, lsl #30
    45ec:	000eb300 	andeq	fp, lr, r0, lsl #6
    45f0:	21002000 	mrscs	r2, (UNDEF: 0)
    45f4:	00000000 	andeq	r0, r0, r0
    45f8:	0ea83f06 	cdpeq	15, 10, cr3, cr8, cr6, {0}
    45fc:	cd220000 	stcgt	0, cr0, [r2, #-0]
    4600:	01000016 	tsteq	r0, r6, lsl r0
    4604:	000ecf88 	andeq	ip, lr, r8, lsl #31
    4608:	7c030500 	cfstr32vc	mvfx0, [r3], {-0}
    460c:	0ba00099 	bleq	fe804878 <stack_irq+0x5dfe7b20>
    4610:	00000395 	muleq	r0, r5, r3
    4614:	0006d800 	andeq	sp, r6, r0, lsl #16
    4618:	81000400 	tsthi	r0, r0, lsl #8
    461c:	0400000f 	streq	r0, [r0], #-15
    4620:	00015b01 	andeq	r5, r1, r1, lsl #22
    4624:	1cfb0100 	ldfnee	f0, [fp]
    4628:	00a30000 	adceq	r0, r3, r0
    462c:	7dcc0000 	stclvc	0, cr0, [ip]
    4630:	09eca000 	stmibeq	ip!, {sp, pc}^
    4634:	12870000 	addne	r0, r7, #0
    4638:	04020000 	streq	r0, [r2], #-0
    463c:	746e6905 	strbtvc	r6, [lr], #-2309	; 0x905
    4640:	07040300 	streq	r0, [r4, -r0, lsl #6]
    4644:	0000014e 	andeq	r0, r0, lr, asr #2
    4648:	be050404 	cdplt	4, 0, cr0, cr5, cr4, {0}
    464c:	0300000c 	movweq	r0, #12
    4650:	00004055 	andeq	r4, r0, r5, asr r0
    4654:	07040300 	streq	r0, [r4, -r0, lsl #6]
    4658:	00000149 	andeq	r0, r0, r9, asr #2
    465c:	9a050403 	bls	145670 <load_address-0x9feba990>
    4660:	06000000 	streq	r0, [r0], -r0
    4664:	00000d0a 	andeq	r0, r0, sl, lsl #26
    4668:	97620214 			; <UNDEFINED> instruction: 0x97620214
    466c:	07000000 	streq	r0, [r0, -r0]
    4670:	00000ccb 	andeq	r0, r0, fp, asr #25
    4674:	00356402 	eorseq	r6, r5, r2, lsl #8
    4678:	07000000 	streq	r0, [r0, -r0]
    467c:	00000e76 	andeq	r0, r0, r6, ror lr
    4680:	00976502 	addseq	r6, r7, r2, lsl #10
    4684:	07040000 	streq	r0, [r4, -r0]
    4688:	00000d7a 	andeq	r0, r0, sl, ror sp
    468c:	00976602 	addseq	r6, r7, r2, lsl #12
    4690:	07080000 	streq	r0, [r8, -r0]
    4694:	00000cdf 	ldrdeq	r0, [r0], -pc	; <UNPREDICTABLE>
    4698:	00336702 	eorseq	r6, r3, r2, lsl #14
    469c:	070c0000 	streq	r0, [ip, -r0]
    46a0:	00000c89 	andeq	r0, r0, r9, lsl #25
    46a4:	00336802 	eorseq	r6, r3, r2, lsl #16
    46a8:	00100000 	andseq	r0, r0, r0
    46ac:	009d0408 	addseq	r0, sp, r8, lsl #8
    46b0:	4e090000 	cdpmi	0, 0, cr0, cr9, cr0, {0}
    46b4:	05000000 	streq	r0, [r0, #-0]
    46b8:	00000eb6 			; <UNDEFINED> instruction: 0x00000eb6
    46bc:	004e6a02 	subeq	r6, lr, r2, lsl #20
    46c0:	14060000 	strne	r0, [r6], #-0
    46c4:	0c00000f 	stceq	0, cr0, [r0], {15}
    46c8:	00de6c02 	sbcseq	r6, lr, r2, lsl #24
    46cc:	cb070000 	blgt	1c46d4 <load_address-0x9fe3b92c>
    46d0:	0200000c 	andeq	r0, r0, #12
    46d4:	0000356e 	andeq	r3, r0, lr, ror #10
    46d8:	76070000 	strvc	r0, [r7], -r0
    46dc:	0200000e 	andeq	r0, r0, #14
    46e0:	0000976f 	andeq	r9, r0, pc, ror #14
    46e4:	7a070400 	bvc	1c56ec <load_address-0x9fe3a914>
    46e8:	0200000d 	andeq	r0, r0, #13
    46ec:	00009770 	andeq	r9, r0, r0, ror r7
    46f0:	05000800 	streq	r0, [r0, #-2048]	; 0x800
    46f4:	00000e89 	andeq	r0, r0, r9, lsl #29
    46f8:	00ad7202 	adceq	r7, sp, r2, lsl #4
    46fc:	24060000 	strcs	r0, [r6], #-0
    4700:	1400000f 	strne	r0, [r0], #-15
    4704:	011a7702 	tsteq	sl, r2, lsl #14
    4708:	16070000 	strne	r0, [r7], -r0
    470c:	0200000e 	andeq	r0, r0, #14
    4710:	00011a79 	andeq	r1, r1, r9, ror sl
    4714:	b6070000 	strlt	r0, [r7], -r0
    4718:	0200000c 	andeq	r0, r0, #12
    471c:	00011f7a 	andeq	r1, r1, sl, ror pc
    4720:	d6070400 	strle	r0, [r7], -r0, lsl #8
    4724:	0200000c 	andeq	r0, r0, #12
    4728:	00012a7b 	andeq	r2, r1, fp, ror sl
    472c:	09000800 	stmdbeq	r0, {fp}
    4730:	00000040 	andeq	r0, r0, r0, asr #32
    4734:	01250408 	teqeq	r5, r8, lsl #8
    4738:	a2090000 	andge	r0, r9, #0
    473c:	09000000 	stmdbeq	r0, {}	; <UNPREDICTABLE>
    4740:	000000de 	ldrdeq	r0, [r0], -lr
    4744:	00102405 	andseq	r2, r0, r5, lsl #8
    4748:	e97c0200 	ldmdb	ip!, {r9}^
    474c:	08000000 	stmdaeq	r0, {}	; <UNPREDICTABLE>
    4750:	00014004 	andeq	r4, r1, r4
    4754:	01450a00 	cmpeq	r5, r0, lsl #20
    4758:	01030000 	mrseq	r0, (UNDEF: 3)
    475c:	00013806 	andeq	r3, r1, r6, lsl #16
    4760:	07020300 	streq	r0, [r2, -r0, lsl #6]
    4764:	000001be 			; <UNDEFINED> instruction: 0x000001be
    4768:	54070403 	strpl	r0, [r7], #-1027	; 0x403
    476c:	05000002 	streq	r0, [r0, #-2]
    4770:	000011e7 	andeq	r1, r0, r7, ror #3
    4774:	00335004 	eorseq	r5, r3, r4
    4778:	87050000 	strhi	r0, [r5, -r0]
    477c:	0500001b 	streq	r0, [r0, #-27]
    4780:	0000335d 	andeq	r3, r0, sp, asr r3
    4784:	1e0e0500 	cfsh32ne	mvfx0, mvfx14, #0
    4788:	60050000 	andvs	r0, r5, r0
    478c:	0000017b 	andeq	r0, r0, fp, ror r1
    4790:	01810408 	orreq	r0, r1, r8, lsl #8
    4794:	8c0b0000 	stchi	0, cr0, [fp], {-0}
    4798:	0c000001 	stceq	0, cr0, [r0], {1}
    479c:	00000165 	andeq	r0, r0, r5, ror #2
    47a0:	1df10600 	ldclne	6, cr0, [r1]
    47a4:	01280000 	teqeq	r8, r0
    47a8:	0001e152 	andeq	lr, r1, r2, asr r1
    47ac:	1ba40700 	blne	fe9063b4 <stack_irq+0x5e0e965c>
    47b0:	54010000 	strpl	r0, [r1], #-0
    47b4:	0000013a 	andeq	r0, r0, sl, lsr r1
    47b8:	1bc00700 	blne	ff0063c0 <stack_irq+0x5e7e9668>
    47bc:	55010000 	strpl	r0, [r1, #-0]
    47c0:	000000a2 	andeq	r0, r0, r2, lsr #1
    47c4:	1e5b0704 	cdpne	7, 5, cr0, cr11, cr4, {0}
    47c8:	56010000 	strpl	r0, [r1], -r0
    47cc:	00000035 	andeq	r0, r0, r5, lsr r0
    47d0:	1e010718 	mcrne	7, 0, r0, cr1, cr8, {0}
    47d4:	57010000 	strpl	r0, [r1, -r0]
    47d8:	00000040 	andeq	r0, r0, r0, asr #32
    47dc:	1e6f071c 	mcrne	7, 3, r0, cr15, cr12, {0}
    47e0:	58010000 	stmdapl	r1, {}	; <UNPREDICTABLE>
    47e4:	00000033 	andeq	r0, r0, r3, lsr r0
    47e8:	1bff0720 	blne	fffc6470 <stack_irq+0x5f7a9718>
    47ec:	59010000 	stmdbpl	r1, {}	; <UNPREDICTABLE>
    47f0:	00000170 	andeq	r0, r0, r0, ror r1
    47f4:	f8050024 			; <UNDEFINED> instruction: 0xf8050024
    47f8:	0100001b 	tsteq	r0, fp, lsl r0
    47fc:	00018c5a 	andeq	r8, r1, sl, asr ip
    4800:	1e310600 	cfmsuba32ne	mvax0, mvax0, mvfx1, mvfx0
    4804:	010c0000 	mrseq	r0, (UNDEF: 12)
    4808:	00021d5e 	andeq	r1, r2, lr, asr sp
    480c:	1de60700 	stclne	7, cr0, [r6]
    4810:	60010000 	andvs	r0, r1, r0
    4814:	00000047 	andeq	r0, r0, r7, asr #32
    4818:	1c750700 	ldclne	7, cr0, [r5], #-0
    481c:	61010000 	mrsvs	r0, (UNDEF: 1)
    4820:	00000035 	andeq	r0, r0, r5, lsr r0
    4824:	1e460704 	cdpne	7, 4, cr0, cr6, cr4, {0}
    4828:	62010000 	andvs	r0, r1, #0
    482c:	0000021d 	andeq	r0, r0, sp, lsl r2
    4830:	04080008 	streq	r0, [r8], #-8
    4834:	000001e1 	andeq	r0, r0, r1, ror #3
    4838:	001b6d05 	andseq	r6, fp, r5, lsl #26
    483c:	ec630100 	stfe	f0, [r3], #-0
    4840:	0d000001 	stceq	0, cr0, [r0, #-4]
    4844:	00001c83 	andeq	r1, r0, r3, lsl #25
    4848:	0047ae01 	subeq	sl, r7, r1, lsl #28
    484c:	7dcc0000 	stclvc	0, cr0, [ip]
    4850:	008ca000 	addeq	sl, ip, r0
    4854:	9c010000 	stcls	0, cr0, [r1], {-0}
    4858:	00000256 	andeq	r0, r0, r6, asr r2
    485c:	0011df0e 	andseq	sp, r1, lr, lsl #30
    4860:	47b00100 	ldrmi	r0, [r0, r0, lsl #2]!
    4864:	02000000 	andeq	r0, r0, #0
    4868:	0d007491 	cfstrseq	mvf7, [r0, #-580]	; 0xfffffdbc
    486c:	00001c12 	andeq	r1, r0, r2, lsl ip
    4870:	0165c201 	cmneq	r5, r1, lsl #4
    4874:	7e580000 	cdpvc	0, 5, cr0, cr8, cr0, {0}
    4878:	00a8a000 	adceq	sl, r8, r0
    487c:	9c010000 	stcls	0, cr0, [r1], {-0}
    4880:	000002c4 	andeq	r0, r0, r4, asr #5
    4884:	001ba40f 	andseq	sl, fp, pc, lsl #8
    4888:	3ac20100 	bcc	ff084c90 <stack_irq+0x5e867f38>
    488c:	02000001 	andeq	r0, r0, #1
    4890:	5b0f6c91 	blpl	3dfadc <load_address-0x9fc20524>
    4894:	0100001e 	tsteq	r0, lr, lsl r0
    4898:	000035c2 	andeq	r3, r0, r2, asr #11
    489c:	68910200 	ldmvs	r1, {r9}
    48a0:	001e010f 	andseq	r0, lr, pc, lsl #2
    48a4:	40c20100 	sbcmi	r0, r2, r0, lsl #2
    48a8:	02000000 	andeq	r0, r0, #0
    48ac:	6f0f6491 	svcvs	0x000f6491
    48b0:	0100001e 	tsteq	r0, lr, lsl r0
    48b4:	000033c2 	andeq	r3, r0, r2, asr #7
    48b8:	60910200 	addsvs	r0, r1, r0, lsl #4
    48bc:	001bff0f 	andseq	pc, fp, pc, lsl #30
    48c0:	70c20100 	sbcvc	r0, r2, r0, lsl #2
    48c4:	02000001 	andeq	r0, r0, #1
    48c8:	330e0091 	movwcc	r0, #57489	; 0xe091
    48cc:	0100001c 	tsteq	r0, ip, lsl r0
    48d0:	00021dc4 	andeq	r1, r2, r4, asr #27
    48d4:	74910200 	ldrvc	r0, [r1], #512	; 0x200
    48d8:	1d0b0d00 	stcne	13, cr0, [fp, #-0]
    48dc:	e9010000 	stmdb	r1, {}	; <UNPREDICTABLE>
    48e0:	00000047 	andeq	r0, r0, r7, asr #32
    48e4:	a0007f00 	andge	r7, r0, r0, lsl #30
    48e8:	00000108 	andeq	r0, r0, r8, lsl #2
    48ec:	03409c01 	movteq	r9, #3073	; 0xc01
    48f0:	470f0000 	strmi	r0, [pc, -r0]
    48f4:	0100001e 	tsteq	r0, lr, lsl r0
    48f8:	000165e9 	andeq	r6, r1, r9, ror #11
    48fc:	64910200 	ldrvs	r0, [r1], #512	; 0x200
    4900:	001b7c0f 	andseq	r7, fp, pc, lsl #24
    4904:	47e90100 	strbmi	r0, [r9, r0, lsl #2]!
    4908:	02000000 	andeq	r0, r0, #0
    490c:	350f6091 	strcc	r6, [pc, #-145]	; 4883 <load_address-0x9fffb77d>
    4910:	0100001d 	tsteq	r0, sp, lsl r0
    4914:	000035e9 	andeq	r3, r0, r9, ror #11
    4918:	5c910200 	lfmpl	f0, 4, [r1], {0}
    491c:	0010920f 	andseq	r9, r0, pc, lsl #4
    4920:	40e90100 	rscmi	r0, r9, r0, lsl #2
    4924:	02000003 	andeq	r0, r0, #3
    4928:	650f5891 	strvs	r5, [pc, #-2193]	; 409f <load_address-0x9fffbf61>
    492c:	01000011 	tsteq	r0, r1, lsl r0
    4930:	000035e9 	andeq	r3, r0, r9, ror #11
    4934:	00910200 	addseq	r0, r1, r0, lsl #4
    4938:	0011df0e 	andseq	sp, r1, lr, lsl #30
    493c:	47eb0100 	strbmi	r0, [fp, r0, lsl #2]!
    4940:	02000000 	andeq	r0, r0, #0
    4944:	510e7491 			; <UNDEFINED> instruction: 0x510e7491
    4948:	0100001c 	tsteq	r0, ip, lsl r0
    494c:	000223ec 	andeq	r2, r2, ip, ror #7
    4950:	68910200 	ldmvs	r1, {r9}
    4954:	47040800 	strmi	r0, [r4, -r0, lsl #16]
    4958:	10000000 	andne	r0, r0, r0
    495c:	00001be1 	andeq	r1, r0, r1, ror #23
    4960:	08010e01 	stmdaeq	r1, {r0, r9, sl, fp}
    4964:	b4a00080 	strtlt	r0, [r0], #128	; 0x80
    4968:	01000000 	mrseq	r0, (UNDEF: 0)
    496c:	0003999c 	muleq	r3, ip, r9
    4970:	1b941100 	blne	fe508d78 <stack_irq+0x5dcec020>
    4974:	0e010000 	cdpeq	0, 0, cr0, cr1, cr0, {0}
    4978:	00003501 	andeq	r3, r0, r1, lsl #10
    497c:	6c910200 	lfmvs	f0, 4, [r1], {0}
    4980:	001dce11 	andseq	ip, sp, r1, lsl lr
    4984:	010e0100 	mrseq	r0, (UNDEF: 30)
    4988:	00000035 	andeq	r0, r0, r5, lsr r0
    498c:	12689102 	rsbne	r9, r8, #-2147483648	; 0x80000000
    4990:	00001e46 	andeq	r1, r0, r6, asr #28
    4994:	1d011001 	stcne	0, cr1, [r1, #-4]
    4998:	02000002 	andeq	r0, r0, #2
    499c:	65127491 	ldrvs	r7, [r2, #-1169]	; 0x491
    49a0:	0100001b 	tsteq	r0, fp, lsl r0
    49a4:	00470111 	subeq	r0, r7, r1, lsl r1
    49a8:	91020000 	mrsls	r0, (UNDEF: 2)
    49ac:	62100070 	andsvs	r0, r0, #112	; 0x70
    49b0:	0100001d 	tsteq	r0, sp, lsl r0
    49b4:	80bc0132 	adcshi	r0, ip, r2, lsr r1
    49b8:	0034a000 	eorseq	sl, r4, r0
    49bc:	9c010000 	stcls	0, cr0, [r1], {-0}
    49c0:	000003dd 	ldrdeq	r0, [r0], -sp
    49c4:	00005611 	andeq	r5, r0, r1, lsl r6
    49c8:	01320100 	teqeq	r2, r0, lsl #2
    49cc:	00000033 	andeq	r0, r0, r3, lsr r0
    49d0:	126c9102 	rsbne	r9, ip, #-2147483648	; 0x80000000
    49d4:	00001b94 	muleq	r0, r4, fp
    49d8:	35013401 	strcc	r3, [r1, #-1025]	; 0x401
    49dc:	02000000 	andeq	r0, r0, #0
    49e0:	d8127491 	ldmdale	r2, {r0, r4, r7, sl, ip, sp, lr}
    49e4:	0100001d 	tsteq	r0, sp, lsl r0
    49e8:	00470135 	subeq	r0, r7, r5, lsr r1
    49ec:	91020000 	mrsls	r0, (UNDEF: 2)
    49f0:	e0100070 	ands	r0, r0, r0, ror r0
    49f4:	0100001c 	tsteq	r0, ip, lsl r0
    49f8:	80f0014a 	rscshi	r0, r0, sl, asr #2
    49fc:	00d4a000 	sbcseq	sl, r4, r0
    4a00:	9c010000 	stcls	0, cr0, [r1], {-0}
    4a04:	00000430 	andeq	r0, r0, r0, lsr r4
    4a08:	001b9411 	andseq	r9, fp, r1, lsl r4
    4a0c:	014a0100 	mrseq	r0, (UNDEF: 90)
    4a10:	00000035 	andeq	r0, r0, r5, lsr r0
    4a14:	116c9102 	cmnne	ip, r2, lsl #2
    4a18:	00001dd8 	ldrdeq	r1, [r0], -r8
    4a1c:	47014a01 	strmi	r4, [r1, -r1, lsl #20]
    4a20:	02000000 	andeq	r0, r0, #0
    4a24:	ce126891 	mrcgt	8, 0, r6, cr2, cr1, {4}
    4a28:	0100001d 	tsteq	r0, sp, lsl r0
    4a2c:	0035014c 	eorseq	r0, r5, ip, asr #2
    4a30:	91020000 	mrsls	r0, (UNDEF: 2)
    4a34:	1cb71274 	lfmne	f1, 4, [r7], #464	; 0x1d0
    4a38:	4d010000 	stcmi	0, cr0, [r1, #-0]
    4a3c:	00004701 	andeq	r4, r0, r1, lsl #14
    4a40:	70910200 	addsvc	r0, r1, r0, lsl #4
    4a44:	1d201300 	stcne	3, cr1, [r0, #-0]
    4a48:	7b010000 	blvc	44a50 <load_address-0x9ffbb5b0>
    4a4c:	00003501 	andeq	r3, r0, r1, lsl #10
    4a50:	0081c400 	addeq	ip, r1, r0, lsl #8
    4a54:	000080a0 	andeq	r8, r0, r0, lsr #1
    4a58:	699c0100 	ldmibvs	ip, {r8}
    4a5c:	11000004 	tstne	r0, r4
    4a60:	00001dd7 	ldrdeq	r1, [r0], -r7
    4a64:	40017b01 	andmi	r7, r1, r1, lsl #22
    4a68:	02000003 	andeq	r0, r0, #3
    4a6c:	94127491 	ldrls	r7, [r2], #-1169	; 0x491
    4a70:	0100001b 	tsteq	r0, fp, lsl r0
    4a74:	0035017d 	eorseq	r0, r5, sp, ror r1
    4a78:	91020000 	mrsls	r0, (UNDEF: 2)
    4a7c:	cf14007c 	svcgt	0x0014007c
    4a80:	0100001c 	tsteq	r0, ip, lsl r0
    4a84:	00350195 	mlaseq	r5, r5, r1, r0
    4a88:	82440000 	subhi	r0, r4, #0
    4a8c:	0088a000 	addeq	sl, r8, r0
    4a90:	9c010000 	stcls	0, cr0, [r1], {-0}
    4a94:	000004b4 			; <UNDEFINED> instruction: 0x000004b4
    4a98:	001cb611 	andseq	fp, ip, r1, lsl r6
    4a9c:	01950100 	orrseq	r0, r5, r0, lsl #2
    4aa0:	00000340 	andeq	r0, r0, r0, asr #6
    4aa4:	126c9102 	rsbne	r9, ip, #-2147483648	; 0x80000000
    4aa8:	00001dce 	andeq	r1, r0, lr, asr #27
    4aac:	35019701 	strcc	r9, [r1, #-1793]	; 0x701
    4ab0:	02000000 	andeq	r0, r0, #0
    4ab4:	58127491 	ldmdapl	r2, {r0, r4, r7, sl, ip, sp, lr}
    4ab8:	0100001d 	tsteq	r0, sp, lsl r0
    4abc:	00350198 	mlaseq	r5, r8, r1, r0
    4ac0:	03050000 	movweq	r0, #20480	; 0x5000
    4ac4:	a0009b40 	andge	r9, r0, r0, asr #22
    4ac8:	1d6f1400 	cfstrdne	mvd1, [pc, #-0]	; 4ad0 <load_address-0x9fffb530>
    4acc:	ac010000 	stcge	0, cr0, [r1], {-0}
    4ad0:	00004701 	andeq	r4, r0, r1, lsl #14
    4ad4:	0082cc00 	addeq	ip, r2, r0, lsl #24
    4ad8:	0000f8a0 	andeq	pc, r0, r0, lsr #17
    4adc:	1a9c0100 	bne	fe704ee4 <stack_irq+0x5dee818c>
    4ae0:	11000005 	tstne	r0, r5
    4ae4:	00001e46 	andeq	r1, r0, r6, asr #28
    4ae8:	1d01ac01 	stcne	12, cr10, [r1, #-4]
    4aec:	02000002 	andeq	r0, r0, #2
    4af0:	b0116c91 	mulslt	r1, r1, ip
    4af4:	0100001b 	tsteq	r0, fp, lsl r0
    4af8:	003501ac 	eorseq	r0, r5, ip, lsr #3
    4afc:	91020000 	mrsls	r0, (UNDEF: 2)
    4b00:	1dce1168 	stfnee	f1, [lr, #416]	; 0x1a0
    4b04:	ac010000 	stcge	0, cr0, [r1], {-0}
    4b08:	00003501 	andeq	r3, r0, r1, lsl #10
    4b0c:	64910200 	ldrvs	r0, [r1], #512	; 0x200
    4b10:	001e4e11 	andseq	r4, lr, r1, lsl lr
    4b14:	01ac0100 			; <UNDEFINED> instruction: 0x01ac0100
    4b18:	00000035 	andeq	r0, r0, r5, lsr r0
    4b1c:	12609102 	rsbne	r9, r0, #-2147483648	; 0x80000000
    4b20:	00001e20 	andeq	r1, r0, r0, lsr #28
    4b24:	4701ae01 	strmi	sl, [r1, -r1, lsl #28]
    4b28:	02000000 	andeq	r0, r0, #0
    4b2c:	10007491 	mulne	r0, r1, r4
    4b30:	00001c5a 	andeq	r1, r0, sl, asr ip
    4b34:	c401d501 	strgt	sp, [r1], #-1281	; 0x501
    4b38:	78a00083 	stmiavc	r0!, {r0, r1, r7}
    4b3c:	01000001 	tsteq	r0, r1
    4b40:	00057c9c 	muleq	r5, ip, ip
    4b44:	1c511200 	lfmne	f1, 2, [r1], {-0}
    4b48:	d7010000 	strle	r0, [r1, -r0]
    4b4c:	00022301 	andeq	r2, r2, r1, lsl #6
    4b50:	60910200 	addsvs	r0, r1, r0, lsl #4
    4b54:	001e4612 	andseq	r4, lr, r2, lsl r6
    4b58:	01d80100 	bicseq	r0, r8, r0, lsl #2
    4b5c:	0000021d 	andeq	r0, r0, sp, lsl r2
    4b60:	12709102 	rsbsne	r9, r0, #-2147483648	; 0x80000000
    4b64:	00001cb7 			; <UNDEFINED> instruction: 0x00001cb7
    4b68:	4701d901 	strmi	sp, [r1, -r1, lsl #18]
    4b6c:	02000000 	andeq	r0, r0, #0
    4b70:	65125c91 	ldrvs	r5, [r2, #-3217]	; 0xc91
    4b74:	0100001b 	tsteq	r0, fp, lsl r0
    4b78:	004701d9 	ldrdeq	r0, [r7], #-25	; 0xffffffe7
    4b7c:	91020000 	mrsls	r0, (UNDEF: 2)
    4b80:	1dce126c 	sfmne	f1, 2, [lr, #432]	; 0x1b0
    4b84:	da010000 	ble	44b8c <load_address-0x9ffbb474>
    4b88:	00003501 	andeq	r3, r0, r1, lsl #10
    4b8c:	74910200 	ldrvc	r0, [r1], #512	; 0x200
    4b90:	1c1f1000 	ldcne	0, cr1, [pc], {-0}
    4b94:	1e010000 	cdpne	0, 0, cr0, cr1, cr0, {0}
    4b98:	00853c02 	addeq	r3, r5, r2, lsl #24
    4b9c:	000168a0 	andeq	r6, r1, r0, lsr #17
    4ba0:	ed9c0100 	ldfs	f0, [ip]
    4ba4:	11000005 	tstne	r0, r5
    4ba8:	00001d58 	andeq	r1, r0, r8, asr sp
    4bac:	35021e01 	strcc	r1, [r2, #-3585]	; 0xe01
    4bb0:	02000000 	andeq	r0, r0, #0
    4bb4:	94125c91 	ldrls	r5, [r2], #-3217	; 0xc91
    4bb8:	0100001b 	tsteq	r0, fp, lsl r0
    4bbc:	00350220 	eorseq	r0, r5, r0, lsr #4
    4bc0:	91020000 	mrsls	r0, (UNDEF: 2)
    4bc4:	1e791274 	mrcne	2, 3, r1, cr9, cr4, {3}
    4bc8:	20010000 	andcs	r0, r1, r0
    4bcc:	00003502 	andeq	r3, r0, r2, lsl #10
    4bd0:	6c910200 	lfmvs	f0, 4, [r1], {0}
    4bd4:	000c6712 	andeq	r6, ip, r2, lsl r7
    4bd8:	02210100 	eoreq	r0, r1, #0, 2
    4bdc:	000005ed 	andeq	r0, r0, sp, ror #11
    4be0:	12649102 	rsbne	r9, r4, #-2147483648	; 0x80000000
    4be4:	00001e46 	andeq	r1, r0, r6, asr #28
    4be8:	1d022201 	sfmne	f2, 4, [r2, #-4]
    4bec:	02000002 	andeq	r0, r0, #2
    4bf0:	65127091 	ldrvs	r7, [r2, #-145]	; 0x91
    4bf4:	0100001b 	tsteq	r0, fp, lsl r0
    4bf8:	00470223 	subeq	r0, r7, r3, lsr #4
    4bfc:	91020000 	mrsls	r0, (UNDEF: 2)
    4c00:	04080068 	streq	r0, [r8], #-104	; 0x68
    4c04:	0000012f 	andeq	r0, r0, pc, lsr #2
    4c08:	001c9915 	andseq	r9, ip, r5, lsl r9
    4c0c:	02570100 	subseq	r0, r7, #0, 2
    4c10:	a00086a4 	andge	r8, r0, r4, lsr #13
    4c14:	000000a8 	andeq	r0, r0, r8, lsr #1
    4c18:	8a169c01 	bhi	5abc24 <load_address-0x9fa543dc>
    4c1c:	0100001d 	tsteq	r0, sp, lsl r0
    4c20:	0047026b 	subeq	r0, r7, fp, ror #4
    4c24:	874c0000 	strbhi	r0, [ip, -r0]
    4c28:	0048a000 	subeq	sl, r8, r0
    4c2c:	9c010000 	stcls	0, cr0, [r1], {-0}
    4c30:	0000064d 	andeq	r0, r0, sp, asr #12
    4c34:	001e4711 	andseq	r4, lr, r1, lsl r7
    4c38:	026b0100 	rsbeq	r0, fp, #0, 2
    4c3c:	00000165 	andeq	r0, r0, r5, ror #2
    4c40:	126c9102 	rsbne	r9, ip, #-2147483648	; 0x80000000
    4c44:	00001b50 	andeq	r1, r0, r0, asr fp
    4c48:	47026d01 	strmi	r6, [r2, -r1, lsl #26]
    4c4c:	02000000 	andeq	r0, r0, #0
    4c50:	46127091 			; <UNDEFINED> instruction: 0x46127091
    4c54:	0100001e 	tsteq	r0, lr, lsl r0
    4c58:	021d026e 	andseq	r0, sp, #-536870906	; 0xe0000006
    4c5c:	91020000 	mrsls	r0, (UNDEF: 2)
    4c60:	cf170074 	svcgt	0x00170074
    4c64:	0100001b 	tsteq	r0, fp, lsl r0
    4c68:	0033027e 	eorseq	r0, r3, lr, ror r2
    4c6c:	87940000 	ldrhi	r0, [r4, r0]
    4c70:	0024a000 	eoreq	sl, r4, r0
    4c74:	9c010000 	stcls	0, cr0, [r1], {-0}
    4c78:	00000686 	andeq	r0, r0, r6, lsl #13
    4c7c:	001e4711 	andseq	r4, lr, r1, lsl r7
    4c80:	027e0100 	rsbseq	r0, lr, #0, 2
    4c84:	00000165 	andeq	r0, r0, r5, ror #2
    4c88:	12749102 	rsbsne	r9, r4, #-2147483648	; 0x80000000
    4c8c:	00001e46 	andeq	r1, r0, r6, asr #28
    4c90:	1d028001 	stcne	0, cr8, [r2, #-4]
    4c94:	02000002 	andeq	r0, r0, #2
    4c98:	0e007c91 	mcreq	12, 0, r7, cr0, cr1, {4}
    4c9c:	00001daa 	andeq	r1, r0, sl, lsr #27
    4ca0:	012f6901 	teqeq	pc, r1, lsl #18
    4ca4:	03050000 	movweq	r0, #20480	; 0x5000
    4ca8:	a0009b0c 	andge	r9, r0, ip, lsl #22
    4cac:	001dbc0e 	andseq	fp, sp, lr, lsl #24
    4cb0:	2f6a0100 	svccs	0x006a0100
    4cb4:	05000001 	streq	r0, [r0, #-1]
    4cb8:	009b2003 	addseq	r2, fp, r3
    4cbc:	1c3e0ea0 	ldcne	14, cr0, [lr], #-640	; 0xfffffd80
    4cc0:	6b010000 	blvs	44cc8 <load_address-0x9ffbb338>
    4cc4:	000005ed 	andeq	r0, r0, sp, ror #11
    4cc8:	9b340305 	blls	d058e4 <load_address-0x9f2fa71c>
    4ccc:	440ea000 	strmi	sl, [lr], #-0
    4cd0:	0100001d 	tsteq	r0, sp, lsl r0
    4cd4:	0005ed6c 	andeq	lr, r5, ip, ror #26
    4cd8:	38030500 	stmdacc	r3, {r8, sl}
    4cdc:	0ea0009b 	mcreq	0, 5, r0, cr0, cr11, {4}
    4ce0:	00001d9e 	muleq	r0, lr, sp
    4ce4:	015a6f01 	cmpeq	sl, r1, lsl #30
    4ce8:	03050000 	movweq	r0, #20480	; 0x5000
    4cec:	a0009b3c 	andge	r9, r0, ip, lsr fp
    4cf0:	00070800 	andeq	r0, r7, r0, lsl #16
    4cf4:	f6000400 			; <UNDEFINED> instruction: 0xf6000400
    4cf8:	04000010 	streq	r0, [r0], #-16
    4cfc:	00015b01 	andeq	r5, r1, r1, lsl #22
    4d00:	1f750100 	svcne	0x00750100
    4d04:	00a30000 	adceq	r0, r3, r0
    4d08:	87b80000 	ldrhi	r0, [r8, r0]!
    4d0c:	0ba0a000 	bleq	fe82cd14 <stack_irq+0x5e00ffbc>
    4d10:	140b0000 	strne	r0, [fp], #-0
    4d14:	01020000 	mrseq	r0, (UNDEF: 2)
    4d18:	00013608 	andeq	r3, r1, r8, lsl #12
    4d1c:	07020200 	streq	r0, [r2, -r0, lsl #4]
    4d20:	000001be 			; <UNDEFINED> instruction: 0x000001be
    4d24:	4e070402 	cdpmi	4, 0, cr0, cr7, cr2, {0}
    4d28:	02000001 	andeq	r0, r0, #1
    4d2c:	01440708 	cmpeq	r4, r8, lsl #14
    4d30:	04030000 	streq	r0, [r3], #-0
    4d34:	746e6905 	strbtvc	r6, [lr], #-2309	; 0x905
    4d38:	05080200 	streq	r0, [r8, #-512]	; 0x200
    4d3c:	00000095 	muleq	r0, r5, r0
    4d40:	00550404 	subseq	r0, r5, r4, lsl #8
    4d44:	01020000 	mrseq	r0, (UNDEF: 2)
    4d48:	00013f08 	andeq	r3, r1, r8, lsl #30
    4d4c:	05040200 	streq	r0, [r4, #-512]	; 0x200
    4d50:	0000009a 	muleq	r0, sl, r0
    4d54:	00197005 	andseq	r7, r9, r5
    4d58:	6e400200 	cdpvs	2, 4, cr0, cr0, cr0, {0}
    4d5c:	04000000 	streq	r0, [r0], #-0
    4d60:	00007404 	andeq	r7, r0, r4, lsl #8
    4d64:	007f0600 	rsbseq	r0, pc, r0, lsl #12
    4d68:	7f070000 	svcvc	0x00070000
    4d6c:	00000000 	andeq	r0, r0, r0
    4d70:	04020408 	streq	r0, [r2], #-1032	; 0x408
    4d74:	00014907 	andeq	r4, r1, r7, lsl #18
    4d78:	00810900 	addeq	r0, r1, r0, lsl #18
    4d7c:	01020000 	mrseq	r0, (UNDEF: 2)
    4d80:	00013806 	andeq	r3, r1, r6, lsl #16
    4d84:	81040400 	tsthi	r4, r0, lsl #8
    4d88:	02000000 	andeq	r0, r0, #0
    4d8c:	02540704 	subseq	r0, r4, #4, 14	; 0x100000
    4d90:	b00a0000 	andlt	r0, sl, r0
    4d94:	08000022 	stmdaeq	r0, {r1, r5}
    4d98:	00c64f01 	sbceq	r4, r6, r1, lsl #30
    4d9c:	910b0000 	mrsls	r0, (UNDEF: 11)
    4da0:	0100001e 	tsteq	r0, lr, lsl r0
    4da4:	00006e51 	andeq	r6, r0, r1, asr lr
    4da8:	850b0000 	strhi	r0, [fp, #-0]
    4dac:	0100001e 	tsteq	r0, lr, lsl r0
    4db0:	00007f52 	andeq	r7, r0, r2, asr pc
    4db4:	05000400 	streq	r0, [r0, #-1024]	; 0x400
    4db8:	00002192 	muleq	r0, r2, r1
    4dbc:	00a15301 	adceq	r5, r1, r1, lsl #6
    4dc0:	560c0000 	strpl	r0, [ip], -r0
    4dc4:	0100001f 	tsteq	r0, pc, lsl r0
    4dc8:	00004f91 	muleq	r0, r1, pc	; <UNPREDICTABLE>
    4dcc:	0087b800 	addeq	fp, r7, r0, lsl #16
    4dd0:	0000c8a0 	andeq	ip, r0, r0, lsr #17
    4dd4:	319c0100 	orrscc	r0, ip, r0, lsl #2
    4dd8:	0d000001 	stceq	0, cr0, [r0, #-4]
    4ddc:	006e4969 	rsbeq	r4, lr, r9, ror #18
    4de0:	00419101 	subeq	r9, r1, r1, lsl #2
    4de4:	91020000 	mrsls	r0, (UNDEF: 2)
    4de8:	17ba0e6c 	ldrne	r0, [sl, ip, ror #28]!
    4dec:	91010000 	mrsls	r0, (UNDEF: 1)
    4df0:	0000004f 	andeq	r0, r0, pc, asr #32
    4df4:	0f689102 	svceq	0x00689102
    4df8:	00002113 	andeq	r2, r0, r3, lsl r1
    4dfc:	004f9301 	subeq	r9, pc, r1, lsl #6
    4e00:	91020000 	mrsls	r0, (UNDEF: 2)
    4e04:	20060f78 	andcs	r0, r6, r8, ror pc
    4e08:	94010000 	strls	r0, [r1], #-0
    4e0c:	00000041 	andeq	r0, r0, r1, asr #32
    4e10:	0f7c9102 	svceq	0x007c9102
    4e14:	00002055 	andeq	r2, r0, r5, asr r0
    4e18:	00419501 	subeq	r9, r1, r1, lsl #10
    4e1c:	91020000 	mrsls	r0, (UNDEF: 2)
    4e20:	4f0c0074 	svcmi	0x000c0074
    4e24:	01000022 	tsteq	r0, r2, lsr #32
    4e28:	000094a2 	andeq	r9, r0, r2, lsr #9
    4e2c:	00888000 	addeq	r8, r8, r0
    4e30:	0000aca0 	andeq	sl, r0, r0, lsr #25
    4e34:	839c0100 	orrshi	r0, ip, #0, 2
    4e38:	0e000001 	cdpeq	0, 0, cr0, cr0, cr1, {0}
    4e3c:	000017e6 	andeq	r1, r0, r6, ror #15
    4e40:	0094a201 	addseq	sl, r4, r1, lsl #4
    4e44:	91020000 	mrsls	r0, (UNDEF: 2)
    4e48:	1fb30e74 	svcne	0x00b30e74
    4e4c:	a2010000 	andge	r0, r1, #0
    4e50:	00000063 	andeq	r0, r0, r3, rrx
    4e54:	0e709102 	expeqs	f1, f2
    4e58:	00000056 	andeq	r0, r0, r6, asr r0
    4e5c:	007fa201 	rsbseq	sl, pc, r1, lsl #4
    4e60:	91020000 	mrsls	r0, (UNDEF: 2)
    4e64:	21e80f6c 	mvncs	r0, ip, ror #30
    4e68:	a4010000 	strge	r0, [r1], #-0
    4e6c:	00000094 	muleq	r0, r4, r0
    4e70:	007c9102 	rsbseq	r9, ip, r2, lsl #2
    4e74:	001fc810 	andseq	ip, pc, r0, lsl r8	; <UNPREDICTABLE>
    4e78:	2cbc0100 	ldfcss	f0, [ip]
    4e7c:	24a00089 	strtcs	r0, [r0], #137	; 0x89
    4e80:	01000000 	mrseq	r0, (UNDEF: 0)
    4e84:	2140109c 	swpbcs	r1, ip, [r0]
    4e88:	cf010000 	svcgt	0x00010000
    4e8c:	a0008950 	andge	r8, r0, r0, asr r9
    4e90:	00000048 	andeq	r0, r0, r8, asr #32
    4e94:	1c119c01 	ldcne	12, cr9, [r1], {1}
    4e98:	01000021 	tsteq	r0, r1, lsr #32
    4e9c:	008998e9 	addeq	r9, r9, r9, ror #17
    4ea0:	000070a0 	andeq	r7, r0, r0, lsr #1
    4ea4:	129c0100 	addsne	r0, ip, #0, 2
    4ea8:	000021f8 	strdeq	r2, [r0], -r8
    4eac:	08010301 	stmdaeq	r1, {r0, r8, r9}
    4eb0:	38a0008a 	stmiacc	r0!, {r1, r3, r7}
    4eb4:	01000000 	mrseq	r0, (UNDEF: 0)
    4eb8:	227d129c 	rsbscs	r1, sp, #156, 4	; 0xc0000009
    4ebc:	0f010000 	svceq	0x00010000
    4ec0:	008a4001 	addeq	r4, sl, r1
    4ec4:	000000a0 	andeq	r0, r0, r0, lsr #1
    4ec8:	139c0100 	orrsne	r0, ip, #0, 2
    4ecc:	00001fe3 	andeq	r1, r0, r3, ror #31
    4ed0:	40011501 	andmi	r1, r1, r1, lsl #10
    4ed4:	1ca0008a 	stcne	0, cr0, [r0], #552	; 0x228
    4ed8:	01000000 	mrseq	r0, (UNDEF: 0)
    4edc:	1ebc149c 	mrcne	4, 5, r1, cr12, cr12, {4}
    4ee0:	20010000 	andcs	r0, r1, r0
    4ee4:	008a5c01 	addeq	r5, sl, r1, lsl #24
    4ee8:	000090a0 	andeq	r9, r0, r0, lsr #1
    4eec:	2e9c0100 	fmlcse	f0, f4, f0
    4ef0:	15000002 	strne	r0, [r0, #-2]
    4ef4:	00000500 	andeq	r0, r0, r0, lsl #10
    4ef8:	41012201 	tstmi	r1, r1, lsl #4
    4efc:	02000000 	andeq	r0, r0, #0
    4f00:	69167091 	ldmdbvs	r6, {r0, r4, r7, ip, sp, lr}
    4f04:	01230100 	teqeq	r3, r0, lsl #2
    4f08:	00000041 	andeq	r0, r0, r1, asr #32
    4f0c:	15749102 	ldrbne	r9, [r4, #-258]!	; 0x102
    4f10:	00002177 	andeq	r2, r0, r7, ror r1
    4f14:	41012401 	tstmi	r1, r1, lsl #8
    4f18:	02000000 	andeq	r0, r0, #0
    4f1c:	17006c91 			; <UNDEFINED> instruction: 0x17006c91
    4f20:	00001eae 	andeq	r1, r0, lr, lsr #29
    4f24:	ec013101 	stfs	f3, [r1], {1}
    4f28:	18a0008a 	stmiane	r0!, {r1, r3, r7}
    4f2c:	01000000 	mrseq	r0, (UNDEF: 0)
    4f30:	21c1179c 			; <UNDEFINED> instruction: 0x21c1179c
    4f34:	38010000 	stmdacc	r1, {}	; <UNPREDICTABLE>
    4f38:	008b0401 	addeq	r0, fp, r1, lsl #8
    4f3c:	000020a0 	andeq	r2, r0, r0, lsr #1
    4f40:	189c0100 	ldmne	ip, {r8}
    4f44:	00001ee4 	andeq	r1, r0, r4, ror #29
    4f48:	5c014101 	stfpls	f4, [r1], {1}
    4f4c:	24000000 	strcs	r0, [r0], #-0
    4f50:	b4a0008b 	strtlt	r0, [r0], #139	; 0x8b
    4f54:	01000000 	mrseq	r0, (UNDEF: 0)
    4f58:	2027129c 	mlacs	r7, ip, r2, r1
    4f5c:	5c010000 	stcpl	0, cr0, [r1], {-0}
    4f60:	008bd801 	addeq	sp, fp, r1, lsl #16
    4f64:	000004a0 	andeq	r0, r0, r0, lsr #9
    4f68:	199c0100 	ldmibne	ip, {r8}
    4f6c:	0000223b 	andeq	r2, r0, fp, lsr r2
    4f70:	dc016301 	stcle	3, cr6, [r1], {1}
    4f74:	40a0008b 	adcmi	r0, r0, fp, lsl #1
    4f78:	01000000 	mrseq	r0, (UNDEF: 0)
    4f7c:	0002a09c 	muleq	r2, ip, r0
    4f80:	1e851a00 	vdivne.f32	s2, s10, s0
    4f84:	63010000 	movwvs	r0, #4096	; 0x1000
    4f88:	00007f01 	andeq	r7, r0, r1, lsl #30
    4f8c:	74910200 	ldrvc	r0, [r1], #512	; 0x200
    4f90:	20391b00 	eorscs	r1, r9, r0, lsl #22
    4f94:	80010000 	andhi	r0, r1, r0
    4f98:	008c1c01 	addeq	r1, ip, r1, lsl #24
    4f9c:	000040a0 	andeq	r4, r0, r0, lsr #1
    4fa0:	df9c0100 	svcle	0x009c0100
    4fa4:	15000002 	strne	r0, [r0, #-2]
    4fa8:	00002167 	andeq	r2, r0, r7, ror #2
    4fac:	33018301 	movwcc	r8, #4865	; 0x1301
    4fb0:	02000000 	andeq	r0, r0, #0
    4fb4:	201c7891 	mulscs	ip, r1, r8
    4fb8:	0ca0008c 	stceq	0, cr0, [r0], #560	; 0x230
    4fbc:	15000000 	strne	r0, [r0, #-0]
    4fc0:	0000217d 	andeq	r2, r0, sp, ror r1
    4fc4:	33018401 	movwcc	r8, #5121	; 0x1401
    4fc8:	02000000 	andeq	r0, r0, #0
    4fcc:	00007c91 	muleq	r0, r1, ip
    4fd0:	00229b1b 	eoreq	r9, r2, fp, lsl fp
    4fd4:	018b0100 	orreq	r0, fp, r0, lsl #2
    4fd8:	a0008c5c 	andge	r8, r0, ip, asr ip
    4fdc:	00000054 	andeq	r0, r0, r4, asr r0
    4fe0:	032d9c01 	teqeq	sp, #256	; 0x100
    4fe4:	65150000 	ldrvs	r0, [r5, #-0]
    4fe8:	01000022 	tsteq	r0, r2, lsr #32
    4fec:	003a018d 	eorseq	r0, sl, sp, lsl #3
    4ff0:	91020000 	mrsls	r0, (UNDEF: 2)
    4ff4:	21671570 	smccs	29008	; 0x7150
    4ff8:	8e010000 	cdphi	0, 0, cr0, cr1, cr0, {0}
    4ffc:	00003301 	andeq	r3, r0, r1, lsl #6
    5000:	78910200 	ldmvc	r1, {r9}
    5004:	008c601c 	addeq	r6, ip, ip, lsl r0
    5008:	00000ca0 	andeq	r0, r0, r0, lsr #25
    500c:	217d1500 	cmncs	sp, r0, lsl #10
    5010:	8f010000 	svchi	0x00010000
    5014:	00003301 	andeq	r3, r0, r1, lsl #6
    5018:	7c910200 	lfmvc	f0, 4, [r1], {0}
    501c:	021d0000 	andseq	r0, sp, #0
    5020:	0100001f 	tsteq	r0, pc, lsl r0
    5024:	8cb0019b 	ldfhis	f0, [r0], #620	; 0x26c
    5028:	0050a000 	subseq	sl, r0, r0
    502c:	9c010000 	stcls	0, cr0, [r1], {-0}
    5030:	0001ed1e 	andeq	lr, r1, lr, lsl sp
    5034:	01a50100 			; <UNDEFINED> instruction: 0x01a50100
    5038:	a0008d00 	andge	r8, r0, r0, lsl #26
    503c:	00000350 	andeq	r0, r0, r0, asr r3
    5040:	043c9c01 	ldrteq	r9, [ip], #-3073	; 0xc01
    5044:	911a0000 	tstls	sl, r0
    5048:	0100001e 	tsteq	r0, lr, lsl r0
    504c:	006e01a5 	rsbeq	r0, lr, r5, lsr #3
    5050:	91030000 	mrsls	r0, (UNDEF: 3)
    5054:	851a7f9c 	ldrhi	r7, [sl, #-3996]	; 0xf9c
    5058:	0100001e 	tsteq	r0, lr, lsl r0
    505c:	007f01a5 	rsbseq	r0, pc, r5, lsr #3
    5060:	91030000 	mrsls	r0, (UNDEF: 3)
    5064:	331a7f98 	tstcc	sl, #152, 30	; 0x260
    5068:	01000002 	tsteq	r0, r2
    506c:	008101a5 	addeq	r0, r1, r5, lsr #3
    5070:	91030000 	mrsls	r0, (UNDEF: 3)
    5074:	821a7f94 	andshi	r7, sl, #148, 30	; 0x250
    5078:	01000021 	tsteq	r0, r1, lsr #32
    507c:	002501a5 	eoreq	r0, r5, r5, lsr #3
    5080:	91030000 	mrsls	r0, (UNDEF: 3)
    5084:	2d1a7f93 	ldccs	15, cr7, [sl, #-588]	; 0xfffffdb4
    5088:	01000021 	tsteq	r0, r1, lsr #32
    508c:	002501a5 	eoreq	r0, r5, r5, lsr #3
    5090:	91020000 	mrsls	r0, (UNDEF: 2)
    5094:	22281a00 	eorcs	r1, r8, #0, 20
    5098:	a5010000 	strge	r0, [r1, #-0]
    509c:	00002501 	andeq	r2, r0, r1, lsl #10
    50a0:	04910200 	ldreq	r0, [r1], #512	; 0x200
    50a4:	72747316 	rsbsvc	r7, r4, #1476395008	; 0x58000000
    50a8:	01a70100 			; <UNDEFINED> instruction: 0x01a70100
    50ac:	0000043c 	andeq	r0, r0, ip, lsr r4
    50b0:	7fa09103 	svcvc	0x00a09103
    50b4:	00210a15 	eoreq	r0, r1, r5, lsl sl
    50b8:	01a80100 			; <UNDEFINED> instruction: 0x01a80100
    50bc:	00000081 	andeq	r0, r0, r1, lsl #1
    50c0:	157c9102 	ldrbne	r9, [ip, #-258]!	; 0x102
    50c4:	00001fd8 	ldrdeq	r1, [r0], -r8
    50c8:	8101a901 	tsthi	r1, r1, lsl #18
    50cc:	02000000 	andeq	r0, r0, #0
    50d0:	19157891 	ldmdbne	r5, {r0, r4, r7, fp, ip, sp, lr}
    50d4:	0100001f 	tsteq	r0, pc, lsl r0
    50d8:	008101aa 	addeq	r0, r1, sl, lsr #3
    50dc:	91020000 	mrsls	r0, (UNDEF: 2)
    50e0:	1ef81574 	mrcne	5, 7, r1, cr8, cr4, {3}
    50e4:	ab010000 	blge	450ec <load_address-0x9ffbaf14>
    50e8:	00008101 	andeq	r8, r0, r1, lsl #2
    50ec:	70910200 	addsvc	r0, r1, r0, lsl #4
    50f0:	00229215 	eoreq	r9, r2, r5, lsl r2
    50f4:	01ac0100 			; <UNDEFINED> instruction: 0x01ac0100
    50f8:	00000081 	andeq	r0, r0, r1, lsl #1
    50fc:	156c9102 	strbne	r9, [ip, #-258]!	; 0x102
    5100:	0000216c 	andeq	r2, r0, ip, ror #2
    5104:	8101ad01 	tsthi	r1, r1, lsl #26
    5108:	02000000 	andeq	r0, r0, #0
    510c:	ba156891 	blt	55f358 <load_address-0x9faa0ca8>
    5110:	0100001f 	tsteq	r0, pc, lsl r0
    5114:	008101ae 	addeq	r0, r1, lr, lsr #3
    5118:	91020000 	mrsls	r0, (UNDEF: 2)
    511c:	20b41564 	adcscs	r1, r4, r4, ror #10
    5120:	af010000 	svcge	0x00010000
    5124:	00008101 	andeq	r8, r0, r1, lsl #2
    5128:	60910200 	addsvs	r0, r1, r0, lsl #4
    512c:	00551f00 	subseq	r1, r5, r0, lsl #30
    5130:	044c0000 	strbeq	r0, [ip], #-0
    5134:	9a200000 	bls	80513c <load_address-0x9f7faec4>
    5138:	3f000000 	svccc	0x00000000
    513c:	20f11900 	rscscs	r1, r1, r0, lsl #18
    5140:	e2010000 	and	r0, r1, #0
    5144:	00905001 	addseq	r5, r0, r1
    5148:	0000f8a0 	andeq	pc, r0, r0, lsr #17
    514c:	a09c0100 	addsge	r0, ip, r0, lsl #2
    5150:	15000004 	strne	r0, [r0, #-4]
    5154:	00000233 	andeq	r0, r0, r3, lsr r2
    5158:	8101e401 	tsthi	r1, r1, lsl #8
    515c:	02000000 	andeq	r0, r0, #0
    5160:	56157091 			; <UNDEFINED> instruction: 0x56157091
    5164:	01000021 	tsteq	r0, r1, lsr #32
    5168:	008101e5 	addeq	r0, r1, r5, ror #3
    516c:	91020000 	mrsls	r0, (UNDEF: 2)
    5170:	220c1574 	andcs	r1, ip, #116, 10	; 0x1d000000
    5174:	e6010000 	str	r0, [r1], -r0
    5178:	00043c01 	andeq	r3, r4, r1, lsl #24
    517c:	ac910300 	ldcge	3, cr0, [r1], {0}
    5180:	2138157f 	teqcs	r8, pc, ror r5
    5184:	e7010000 	str	r0, [r1, -r0]
    5188:	00008101 	andeq	r8, r0, r1, lsl #2
    518c:	6c910200 	lfmvs	f0, 4, [r1], {0}
    5190:	1f5f2100 	svcne	0x005f2100
    5194:	04010000 	streq	r0, [r1], #-0
    5198:	00005c02 	andeq	r5, r0, r2, lsl #24
    519c:	00914800 	addseq	r4, r1, r0, lsl #16
    51a0:	000034a0 	andeq	r3, r0, r0, lsr #9
    51a4:	ca9c0100 	bgt	fe7055ac <stack_irq+0x5dee8854>
    51a8:	15000004 	strne	r0, [r0, #-4]
    51ac:	00002098 	muleq	r0, r8, r0
    51b0:	5c020601 	stcpl	6, cr0, [r2], {1}
    51b4:	02000000 	andeq	r0, r0, #0
    51b8:	1e007c91 	mcrne	12, 0, r7, cr0, cr1, {4}
    51bc:	00002063 	andeq	r2, r0, r3, rrx
    51c0:	7c020c01 	stcvc	12, cr0, [r2], {1}
    51c4:	20a00091 	umlalcs	r0, r0, r1, r0	; <UNPREDICTABLE>
    51c8:	01000000 	mrseq	r0, (UNDEF: 0)
    51cc:	0004f09c 	muleq	r4, ip, r0
    51d0:	20981a00 	addscs	r1, r8, r0, lsl #20
    51d4:	0c010000 	stceq	0, cr0, [r1], {-0}
    51d8:	00005c02 	andeq	r5, r0, r2, lsl #24
    51dc:	7c910200 	lfmvc	f0, 4, [r1], {0}
    51e0:	00fc1e00 	rscseq	r1, ip, r0, lsl #28
    51e4:	12010000 	andne	r0, r1, #0
    51e8:	00919c02 	addseq	r9, r1, r2, lsl #24
    51ec:	000010a0 	andeq	r1, r0, r0, lsr #1
    51f0:	169c0100 	ldrne	r0, [ip], r0, lsl #2
    51f4:	1a000005 	bne	5210 <load_address-0x9fffadf0>
    51f8:	00001e85 	andeq	r1, r0, r5, lsl #29
    51fc:	7f021201 	svcvc	0x00021201
    5200:	02000000 	andeq	r0, r0, #0
    5204:	1e007c91 	mcrne	12, 0, r7, cr0, cr1, {4}
    5208:	000009eb 	andeq	r0, r0, fp, ror #19
    520c:	ac021901 	stcge	9, cr1, [r2], {1}
    5210:	98a00091 	stmials	r0!, {r0, r4, r7}
    5214:	01000001 	tsteq	r0, r1
    5218:	0005cf9c 	muleq	r5, ip, pc	; <UNPREDICTABLE>
    521c:	00322200 	eorseq	r2, r2, r0, lsl #4
    5220:	1b010000 	blne	45228 <load_address-0x9ffbadd8>
    5224:	00004102 	andeq	r4, r0, r2, lsl #2
    5228:	1f411500 	svcne	0x00411500
    522c:	1c010000 	stcne	0, cr0, [r1], {-0}
    5230:	00009402 	andeq	r9, r0, r2, lsl #8
    5234:	7c910200 	lfmvc	f0, 4, [r1], {0}
    5238:	00207b15 	eoreq	r7, r0, r5, lsl fp
    523c:	021c0100 	andseq	r0, ip, #0, 2
    5240:	00000094 	muleq	r0, r4, r0
    5244:	15789102 	ldrbne	r9, [r8, #-258]!	; 0x102
    5248:	00001ea6 	andeq	r1, r0, r6, lsr #29
    524c:	88021d01 	stmdahi	r2, {r0, r8, sl, fp, ip}
    5250:	02000000 	andeq	r0, r0, #0
    5254:	ca157491 	bgt	5624a0 <load_address-0x9fa9db60>
    5258:	0100001e 	tsteq	r0, lr, lsl r0
    525c:	00810226 	addeq	r0, r1, r6, lsr #4
    5260:	91020000 	mrsls	r0, (UNDEF: 2)
    5264:	20e01570 	rsccs	r1, r0, r0, ror r5
    5268:	27010000 	strcs	r0, [r1, -r0]
    526c:	00008102 	andeq	r8, r0, r2, lsl #2
    5270:	6c910200 	lfmvs	f0, 4, [r1], {0}
    5274:	00227615 	eoreq	r7, r2, r5, lsl r6
    5278:	02280100 	eoreq	r0, r8, #0, 2
    527c:	00000081 	andeq	r0, r0, r1, lsl #1
    5280:	15689102 	strbne	r9, [r8, #-258]!	; 0x102
    5284:	0000205d 	andeq	r2, r0, sp, asr r0
    5288:	81022901 	tsthi	r2, r1, lsl #18
    528c:	02000000 	andeq	r0, r0, #0
    5290:	dd156491 	cfldrsle	mvf6, [r5, #-580]	; 0xfffffdbc
    5294:	0100001e 	tsteq	r0, lr, lsl r0
    5298:	0081022a 	addeq	r0, r1, sl, lsr #4
    529c:	91020000 	mrsls	r0, (UNDEF: 2)
    52a0:	228d1560 	addcs	r1, sp, #96, 10	; 0x18000000
    52a4:	2b010000 	blcs	452ac <load_address-0x9ffbad54>
    52a8:	00008102 	andeq	r8, r0, r2, lsl #2
    52ac:	5c910200 	lfmpl	f0, 4, [r1], {0}
    52b0:	00204f15 	eoreq	r4, r0, r5, lsl pc
    52b4:	022c0100 	eoreq	r0, ip, #0, 2
    52b8:	00000081 	andeq	r0, r0, r1, lsl #1
    52bc:	00589102 	subseq	r9, r8, r2, lsl #2
    52c0:	00200f12 	eoreq	r0, r0, r2, lsl pc
    52c4:	028a0100 	addeq	r0, sl, #0, 2
    52c8:	a0009344 	andge	r9, r0, r4, asr #6
    52cc:	00000008 	andeq	r0, r0, r8
    52d0:	d1129c01 	tstle	r2, r1, lsl #24
    52d4:	01000021 	tsteq	r0, r1, lsr #32
    52d8:	934c0291 	movtls	r0, #49809	; 0xc291
    52dc:	0008a000 	andeq	sl, r8, r0
    52e0:	9c010000 	stcls	0, cr0, [r1], {-0}
    52e4:	001f9f12 	andseq	r9, pc, r2, lsl pc	; <UNPREDICTABLE>
    52e8:	02980100 	addseq	r0, r8, #0, 2
    52ec:	a0009354 	andge	r9, r0, r4, asr r3
    52f0:	00000004 	andeq	r0, r0, r4
    52f4:	480f9c01 	stmdami	pc, {r0, sl, fp, ip, pc}	; <UNPREDICTABLE>
    52f8:	0100001f 	tsteq	r0, pc, lsl r0
    52fc:	00008159 	andeq	r8, r0, r9, asr r1
    5300:	f0030500 			; <UNDEFINED> instruction: 0xf0030500
    5304:	1fa00097 	svcne	0x00a00097
    5308:	00000081 	andeq	r0, r0, r1, lsl #1
    530c:	00000626 	andeq	r0, r0, r6, lsr #12
    5310:	00009a20 	andeq	r9, r0, r0, lsr #20
    5314:	0f00ff00 	svceq	0x0000ff00
    5318:	00001e9a 	muleq	r0, sl, lr
    531c:	06166301 	ldreq	r6, [r6], -r1, lsl #6
    5320:	03050000 	movweq	r0, #20480	; 0x5000
    5324:	a0009d44 	andge	r9, r0, r4, asr #26
    5328:	00226a0f 	eoreq	r6, r2, pc, lsl #20
    532c:	16640100 	strbtne	r0, [r4], -r0, lsl #2
    5330:	05000006 	streq	r0, [r0, #-6]
    5334:	00a14403 	adceq	r4, r1, r3, lsl #8
    5338:	20a60fa0 	adccs	r0, r6, r0, lsr #31
    533c:	65010000 	strvs	r0, [r1, #-0]
    5340:	00000616 	andeq	r0, r0, r6, lsl r6
    5344:	a5440305 	strbge	r0, [r4, #-773]	; 0x305
    5348:	210fa000 	mrscs	sl, CPSR
    534c:	0100001f 	tsteq	r0, pc, lsl r0
    5350:	00061666 	andeq	r1, r6, r6, ror #12
    5354:	44030500 	strmi	r0, [r3], #-1280	; 0x500
    5358:	0fa000a9 	svceq	0x00a000a9
    535c:	00002215 	andeq	r2, r0, r5, lsl r2
    5360:	00946701 	addseq	r6, r4, r1, lsl #14
    5364:	03050000 	movweq	r0, #20480	; 0x5000
    5368:	a00096d8 	ldrdge	r9, [r0], -r8
    536c:	0021ae0f 	eoreq	sl, r1, pc, lsl #28
    5370:	94680100 	strbtls	r0, [r8], #-256	; 0x100
    5374:	05000000 	streq	r0, [r0, #-0]
    5378:	0096dc03 	addseq	sp, r6, r3, lsl #24
    537c:	20830fa0 	addcs	r0, r3, r0, lsr #31
    5380:	69010000 	stmdbvs	r1, {}	; <UNPREDICTABLE>
    5384:	00000094 	muleq	r0, r4, r0
    5388:	96e00305 	strbtls	r0, [r0], r5, lsl #6
    538c:	cd0fa000 	stcgt	0, cr10, [pc, #-0]	; 5394 <load_address-0x9fffac6c>
    5390:	01000020 	tsteq	r0, r0, lsr #32
    5394:	0000946a 	andeq	r9, r0, sl, ror #8
    5398:	e4030500 	str	r0, [r3], #-1280	; 0x500
    539c:	1fa00096 	svcne	0x00a00096
    53a0:	00000025 	andeq	r0, r0, r5, lsr #32
    53a4:	000006b9 			; <UNDEFINED> instruction: 0x000006b9
    53a8:	00240023 	eoreq	r0, r4, r3, lsr #32
    53ac:	03000000 	movweq	r0, #0
    53b0:	0006ae3f 	andeq	sl, r6, pc, lsr lr
    53b4:	00c61f00 	sbceq	r1, r6, r0, lsl #30
    53b8:	06d40000 	ldrbeq	r0, [r4], r0
    53bc:	9a200000 	bls	8053c4 <load_address-0x9f7fac3c>
    53c0:	3f000000 	svccc	0x00000000
    53c4:	1f2d2500 	svcne	0x002d2500
    53c8:	54010000 	strpl	r0, [r1], #-0
    53cc:	000006c4 	andeq	r0, r0, r4, asr #13
    53d0:	9b440305 	blls	1105fec <load_address-0x9eefa014>
    53d4:	cd24a000 	stcgt	0, cr10, [r4, #-0]
    53d8:	01000016 	tsteq	r0, r6, lsl r0
    53dc:	0006f056 	andeq	pc, r6, r6, asr r0	; <UNPREDICTABLE>
    53e0:	00940900 	addseq	r0, r4, r0, lsl #18
    53e4:	f5250000 			; <UNDEFINED> instruction: 0xf5250000
    53e8:	0100001f 	tsteq	r0, pc, lsl r0
    53ec:	0007065d 	andeq	r0, r7, sp, asr r6
    53f0:	f0030500 			; <UNDEFINED> instruction: 0xf0030500
    53f4:	26a00095 	ssatcs	r0, #1, r5, lsl #1
    53f8:	00000081 	andeq	r0, r0, r1, lsl #1
    53fc:	00017a00 	andeq	r7, r1, r0, lsl #20
    5400:	6a000400 	bvs	6408 <load_address-0x9fff9bf8>
    5404:	04000013 	streq	r0, [r0], #-19
    5408:	00015b01 	andeq	r5, r1, r1, lsl #22
    540c:	23070100 	movwcs	r0, #28928	; 0x7100
    5410:	00a30000 	adceq	r0, r3, r0
    5414:	93580000 	cmpls	r8, #0
    5418:	013ca000 	teqeq	ip, r0
    541c:	15bf0000 	ldrne	r0, [pc, #0]!	; 5424 <load_address-0x9fffabdc>
    5420:	26020000 	strcs	r0, [r2], -r0
    5424:	0200000c 	andeq	r0, r0, #12
    5428:	000030d4 	ldrdeq	r3, [r0], -r4
    542c:	07040300 	streq	r0, [r4, -r0, lsl #6]
    5430:	0000014e 	andeq	r0, r0, lr, asr #2
    5434:	69050404 	stmdbvs	r5, {r2, sl}
    5438:	0300746e 	movweq	r7, #1134	; 0x46e
    543c:	01380601 	teqeq	r8, r1, lsl #12
    5440:	01030000 	mrseq	r0, (UNDEF: 3)
    5444:	00013608 	andeq	r3, r1, r8, lsl #12
    5448:	05020300 	streq	r0, [r2, #-768]	; 0x300
    544c:	00001019 	andeq	r1, r0, r9, lsl r0
    5450:	be070203 	cdplt	2, 0, cr0, cr7, cr3, {0}
    5454:	03000001 	movweq	r0, #1
    5458:	009a0504 	addseq	r0, sl, r4, lsl #10
    545c:	04030000 	streq	r0, [r3], #-0
    5460:	00014907 	andeq	r4, r1, r7, lsl #18
    5464:	05080300 	streq	r0, [r8, #-768]	; 0x300
    5468:	00000095 	muleq	r0, r5, r0
    546c:	44070803 	strmi	r0, [r7], #-2051	; 0x803
    5470:	03000001 	movweq	r0, #1
    5474:	02540704 	subseq	r0, r4, #4, 14	; 0x100000
    5478:	04050000 	streq	r0, [r5], #-0
    547c:	3f080103 	svccc	0x00080103
    5480:	06000001 	streq	r0, [r0], -r1
    5484:	00002336 	andeq	r2, r0, r6, lsr r3
    5488:	00800000 	addeq	r0, r0, r0
    548c:	00ac4c01 	adceq	r4, ip, r1, lsl #24
    5490:	6e070000 	cdpvs	0, 0, cr0, cr7, cr0, {0}
    5494:	01000023 	tsteq	r0, r3, lsr #32
    5498:	0000ac4f 	andeq	sl, r0, pc, asr #24
    549c:	23550700 	cmpcs	r5, #0, 14
    54a0:	53010000 	movwpl	r0, #4096	; 0x1000
    54a4:	000000b8 	strheq	r0, [r0], -r8
    54a8:	00b10800 	adcseq	r0, r1, r0, lsl #16
    54ac:	08030000 	stmdaeq	r3, {}	; <UNPREDICTABLE>
    54b0:	00234104 	eoreq	r4, r3, r4, lsl #2
    54b4:	00450900 	subeq	r0, r5, r0, lsl #18
    54b8:	00cb0000 	sbceq	r0, fp, r0
    54bc:	760a0000 	strvc	r0, [sl], -r0
    54c0:	ff000000 			; <UNDEFINED> instruction: 0xff000000
    54c4:	00007fff 	strdeq	r7, [r0], -pc	; <UNPREDICTABLE>
    54c8:	0023480b 	eoreq	r4, r3, fp, lsl #16
    54cc:	7d590100 	ldfvce	f0, [r9, #-0]
    54d0:	58000000 	stmdapl	r0, {}	; <UNPREDICTABLE>
    54d4:	f8a00093 			; <UNDEFINED> instruction: 0xf8a00093
    54d8:	01000000 	mrseq	r0, (UNDEF: 0)
    54dc:	0001129c 	muleq	r1, ip, r2
    54e0:	235c0c00 	cmpcs	ip, #0, 24
    54e4:	59010000 	stmdbpl	r1, {}	; <UNPREDICTABLE>
    54e8:	00000025 	andeq	r0, r0, r5, lsr #32
    54ec:	0d6c9102 	stfeqp	f1, [ip, #-8]!
    54f0:	000022fe 	strdeq	r2, [r0], -lr
    54f4:	007d5b01 	rsbseq	r5, sp, r1, lsl #22
    54f8:	91020000 	mrsls	r0, (UNDEF: 2)
    54fc:	94200e74 	strtls	r0, [r0], #-3700	; 0xe74
    5500:	0004a000 	andeq	sl, r4, r0
    5504:	190f0000 	stmdbne	pc, {}	; <UNPREDICTABLE>
    5508:	01000001 	tsteq	r0, r1
    550c:	10000078 	andne	r0, r0, r8, ror r0
    5510:	000022f4 	strdeq	r2, [r0], -r4
    5514:	94508201 	ldrbls	r8, [r0], #-513	; 0x201
    5518:	0010a000 	andseq	sl, r0, r0
    551c:	9c010000 	stcls	0, cr0, [r1], {-0}
    5520:	00000135 	andeq	r0, r0, r5, lsr r1
    5524:	00767011 	rsbseq	r7, r6, r1, lsl r0
    5528:	007d8201 	rsbseq	r8, sp, r1, lsl #4
    552c:	91020000 	mrsls	r0, (UNDEF: 2)
    5530:	c912007c 	ldmdbgt	r2, {r2, r3, r4, r5, r6}
    5534:	01000022 	tsteq	r0, r2, lsr #32
    5538:	0094608b 	addseq	r6, r4, fp, lsl #1
    553c:	000018a0 	andeq	r1, r0, r0, lsr #17
    5540:	139c0100 	orrsne	r0, ip, #0, 2
    5544:	000022df 	ldrdeq	r2, [r0], -pc	; <UNPREDICTABLE>
    5548:	00259201 	eoreq	r9, r5, r1, lsl #4
    554c:	94780000 	ldrbtls	r0, [r8], #-0
    5550:	001ca000 	andseq	sl, ip, r0
    5554:	9c010000 	stcls	0, cr0, [r1], {-0}
    5558:	0023680d 	eoreq	r6, r3, sp, lsl #16
    555c:	86540100 	ldrbhi	r0, [r4], -r0, lsl #2
    5560:	05000000 	streq	r0, [r0, #-0]
    5564:	00ad4803 	adceq	r4, sp, r3, lsl #16
    5568:	23280da0 	teqcs	r8, #160, 26	; 0x2800
    556c:	56010000 	strpl	r0, [r1], -r0
    5570:	00000025 	andeq	r0, r0, r5, lsr #32
    5574:	ad480305 	stclge	3, cr0, [r8, #-20]	; 0xffffffec
    5578:	Address 0x0000000000005578 is out of bounds.


Disassembly of section .debug_abbrev:

00000000 <.debug_abbrev>:
       0:	25011101 	strcs	r1, [r1, #-257]	; 0x101
       4:	030b130e 	movweq	r1, #45838	; 0xb30e
       8:	110e1b0e 	tstne	lr, lr, lsl #22
       c:	10061201 	andne	r1, r6, r1, lsl #4
      10:	02000017 	andeq	r0, r0, #23
      14:	0b0b0024 	bleq	2c00ac <load_address-0x9fd3ff54>
      18:	0e030b3e 	vmoveq.16	d3[0], r0
      1c:	24030000 	strcs	r0, [r3], #-0
      20:	3e0b0b00 	vmlacc.f64	d0, d11, d0
      24:	0008030b 	andeq	r0, r8, fp, lsl #6
      28:	01040400 	tsteq	r4, r0, lsl #8
      2c:	0b0b0e03 	bleq	2c3840 <load_address-0x9fd3c7c0>
      30:	0b3b0b3a 	bleq	ec2d20 <load_address-0x9f13d2e0>
      34:	00001301 	andeq	r1, r0, r1, lsl #6
      38:	03002805 	movweq	r2, #2053	; 0x805
      3c:	000d1c08 	andeq	r1, sp, r8, lsl #24
      40:	01130600 	tsteq	r3, r0, lsl #12
      44:	050b0e03 	streq	r0, [fp, #-3587]	; 0xe03
      48:	0b3b0b3a 	bleq	ec2d38 <load_address-0x9f13d2c8>
      4c:	00001301 	andeq	r1, r0, r1, lsl #6
      50:	03000d07 	movweq	r0, #3335	; 0xd07
      54:	3b0b3a08 	blcc	2ce87c <load_address-0x9fd31784>
      58:	3813490b 	ldmdacc	r3, {r0, r1, r3, r8, fp, lr}
      5c:	0800000b 	stmdaeq	r0, {r0, r1, r3}
      60:	0e03000d 	cdpeq	0, 0, cr0, cr3, cr13, {0}
      64:	0b3b0b3a 	bleq	ec2d54 <load_address-0x9f13d2ac>
      68:	0b381349 	bleq	e04d94 <load_address-0x9f1fb26c>
      6c:	01090000 	mrseq	r0, (UNDEF: 9)
      70:	01134901 	tsteq	r3, r1, lsl #18
      74:	0a000013 	beq	c8 <load_address-0x9fffff38>
      78:	13490021 	movtne	r0, #36897	; 0x9021
      7c:	00000b2f 	andeq	r0, r0, pc, lsr #22
      80:	0b000f0b 	bleq	3cb4 <load_address-0x9fffc34c>
      84:	0013490b 	andseq	r4, r3, fp, lsl #18
      88:	01150c00 	tsteq	r5, r0, lsl #24
      8c:	13011927 	movwne	r1, #6439	; 0x1927
      90:	050d0000 	streq	r0, [sp, #-0]
      94:	00134900 	andseq	r4, r3, r0, lsl #18
      98:	000f0e00 	andeq	r0, pc, r0, lsl #28
      9c:	00000b0b 	andeq	r0, r0, fp, lsl #22
      a0:	3f012e0f 	svccc	0x00012e0f
      a4:	3a0e0319 	bcc	380d10 <load_address-0x9fc7f2f0>
      a8:	270b3b0b 	strcs	r3, [fp, -fp, lsl #22]
      ac:	12011119 	andne	r1, r1, #1073741830	; 0x40000006
      b0:	96184006 	ldrls	r4, [r8], -r6
      b4:	13011942 	movwne	r1, #6466	; 0x1942
      b8:	05100000 	ldreq	r0, [r0, #-0]
      bc:	3a0e0300 	bcc	380cc4 <load_address-0x9fc7f33c>
      c0:	490b3b0b 	stmdbmi	fp, {r0, r1, r3, r8, r9, fp, ip, sp}
      c4:	00180213 	andseq	r0, r8, r3, lsl r2
      c8:	012e1100 	teqeq	lr, r0, lsl #2
      cc:	0e03193f 	mcreq	9, 0, r1, cr3, cr15, {1}
      d0:	0b3b0b3a 	bleq	ec2dc0 <load_address-0x9f13d240>
      d4:	13491927 	movtne	r1, #39207	; 0x9927
      d8:	06120111 			; <UNDEFINED> instruction: 0x06120111
      dc:	42961840 	addsmi	r1, r6, #64, 16	; 0x400000
      e0:	00130119 	andseq	r0, r3, r9, lsl r1
      e4:	00341200 	eorseq	r1, r4, r0, lsl #4
      e8:	0b3a0803 	bleq	e820fc <load_address-0x9f17df04>
      ec:	13490b3b 	movtne	r0, #39739	; 0x9b3b
      f0:	00001802 	andeq	r1, r0, r2, lsl #16
      f4:	03003413 	movweq	r3, #1043	; 0x413
      f8:	3b0b3a0e 	blcc	2ce938 <load_address-0x9fd316c8>
      fc:	0213490b 	andseq	r4, r3, #180224	; 0x2c000
     100:	14000018 	strne	r0, [r0], #-24
     104:	193f002e 	ldmdbne	pc!, {r1, r2, r3, r5}	; <UNPREDICTABLE>
     108:	0b3a0e03 	bleq	e8391c <load_address-0x9f17c6e4>
     10c:	19270b3b 	stmdbne	r7!, {r0, r1, r3, r4, r5, r8, r9, fp}
     110:	06120111 			; <UNDEFINED> instruction: 0x06120111
     114:	42971840 	addsmi	r1, r7, #64, 16	; 0x400000
     118:	15000019 	strne	r0, [r0, #-25]
     11c:	0e03012e 	adfeqsp	f0, f3, #0.5
     120:	0b3b0b3a 	bleq	ec2e10 <load_address-0x9f13d1f0>
     124:	01111927 	tsteq	r1, r7, lsr #18
     128:	18400612 	stmdane	r0, {r1, r4, r9, sl}^
     12c:	01194296 			; <UNDEFINED> instruction: 0x01194296
     130:	16000013 			; <UNDEFINED> instruction: 0x16000013
     134:	0e03012e 	adfeqsp	f0, f3, #0.5
     138:	053b0b3a 	ldreq	r0, [fp, #-2874]!	; 0xb3a
     13c:	01111927 	tsteq	r1, r7, lsr #18
     140:	18400612 	stmdane	r0, {r1, r4, r9, sl}^
     144:	01194296 			; <UNDEFINED> instruction: 0x01194296
     148:	17000013 	smladne	r0, r3, r0, r0
     14c:	0e030005 	cdpeq	0, 0, cr0, cr3, cr5, {0}
     150:	053b0b3a 	ldreq	r0, [fp, #-2874]!	; 0xb3a
     154:	18021349 	stmdane	r2, {r0, r3, r6, r8, r9, ip}
     158:	34180000 	ldrcc	r0, [r8], #-0
     15c:	3a080300 	bcc	200d64 <load_address-0x9fdff29c>
     160:	49053b0b 	stmdbmi	r5, {r0, r1, r3, r8, r9, fp, ip, sp}
     164:	00180213 	andseq	r0, r8, r3, lsl r2
     168:	00341900 	eorseq	r1, r4, r0, lsl #18
     16c:	0b3a0e03 	bleq	e83980 <load_address-0x9f17c680>
     170:	1349053b 	movtne	r0, #38203	; 0x953b
     174:	00001802 	andeq	r1, r0, r2, lsl #16
     178:	03012e1a 	movweq	r2, #7706	; 0x1e1a
     17c:	3b0b3a0e 	blcc	2ce9bc <load_address-0x9fd31644>
     180:	11192705 	tstne	r9, r5, lsl #14
     184:	40061201 	andmi	r1, r6, r1, lsl #4
     188:	19429718 	stmdbne	r2, {r3, r4, r8, r9, sl, ip, pc}^
     18c:	00001301 	andeq	r1, r0, r1, lsl #6
     190:	3f012e1b 	svccc	0x00012e1b
     194:	3a0e0319 	bcc	380e00 <load_address-0x9fc7f200>
     198:	27053b0b 	strcs	r3, [r5, -fp, lsl #22]
     19c:	01193c19 	tsteq	r9, r9, lsl ip
     1a0:	1c000013 	stcne	0, cr0, [r0], {19}
     1a4:	193f012e 	ldmdbne	pc!, {r1, r2, r3, r5, r8}	; <UNPREDICTABLE>
     1a8:	0b3a0e03 	bleq	e839bc <load_address-0x9f17c644>
     1ac:	1927053b 	stmdbne	r7!, {r0, r1, r3, r4, r5, r8, sl}
     1b0:	0000193c 	andeq	r1, r0, ip, lsr r9
     1b4:	3f002e1d 	svccc	0x00002e1d
     1b8:	3a0e0319 	bcc	380e24 <load_address-0x9fc7f1dc>
     1bc:	27053b0b 	strcs	r3, [r5, -fp, lsl #22]
     1c0:	12011119 	andne	r1, r1, #1073741830	; 0x40000006
     1c4:	97184006 	ldrls	r4, [r8, -r6]
     1c8:	00001942 	andeq	r1, r0, r2, asr #18
     1cc:	0000211e 	andeq	r2, r0, lr, lsl r1
     1d0:	00341f00 	eorseq	r1, r4, r0, lsl #30
     1d4:	0b3a0e03 	bleq	e839e8 <load_address-0x9f17c618>
     1d8:	13490b3b 	movtne	r0, #39739	; 0x9b3b
     1dc:	193c193f 	ldmdbne	ip!, {r0, r1, r2, r3, r4, r5, r8, fp, ip}
     1e0:	01000000 	mrseq	r0, (UNDEF: 0)
     1e4:	0e250111 	mcreq	1, 1, r0, cr5, cr1, {0}
     1e8:	0e030b13 	vmoveq.32	d3[0], r0
     1ec:	01110e1b 	tsteq	r1, fp, lsl lr
     1f0:	17100612 			; <UNDEFINED> instruction: 0x17100612
     1f4:	24020000 	strcs	r0, [r2], #-0
     1f8:	3e0b0b00 	vmlacc.f64	d0, d11, d0
     1fc:	000e030b 	andeq	r0, lr, fp, lsl #6
     200:	00160300 	andseq	r0, r6, r0, lsl #6
     204:	0b3a0803 	bleq	e82218 <load_address-0x9f17dde8>
     208:	13490b3b 	movtne	r0, #39739	; 0x9b3b
     20c:	24040000 	strcs	r0, [r4], #-0
     210:	3e0b0b00 	vmlacc.f64	d0, d11, d0
     214:	0008030b 	andeq	r0, r8, fp, lsl #6
     218:	01040500 	tsteq	r4, r0, lsl #10
     21c:	0b0b0e03 	bleq	2c3a30 <load_address-0x9fd3c5d0>
     220:	0b3b0b3a 	bleq	ec2f10 <load_address-0x9f13d0f0>
     224:	00001301 	andeq	r1, r0, r1, lsl #6
     228:	03002806 	movweq	r2, #2054	; 0x806
     22c:	000d1c0e 	andeq	r1, sp, lr, lsl #24
     230:	012e0700 	teqeq	lr, r0, lsl #14
     234:	0b3a0e03 	bleq	e83a48 <load_address-0x9f17c5b8>
     238:	19270b3b 	stmdbne	r7!, {r0, r1, r3, r4, r5, r8, r9, fp}
     23c:	06120111 			; <UNDEFINED> instruction: 0x06120111
     240:	42971840 	addsmi	r1, r7, #64, 16	; 0x400000
     244:	00130119 	andseq	r0, r3, r9, lsl r1
     248:	00050800 	andeq	r0, r5, r0, lsl #16
     24c:	0b3a0e03 	bleq	e83a60 <load_address-0x9f17c5a0>
     250:	13490b3b 	movtne	r0, #39739	; 0x9b3b
     254:	00001802 	andeq	r1, r0, r2, lsl #16
     258:	03012e09 	movweq	r2, #7689	; 0x1e09
     25c:	3b0b3a0e 	blcc	2cea9c <load_address-0x9fd31564>
     260:	4919270b 	ldmdbmi	r9, {r0, r1, r3, r8, r9, sl, sp}
     264:	12011113 	andne	r1, r1, #-1073741820	; 0xc0000004
     268:	97184006 	ldrls	r4, [r8, -r6]
     26c:	13011942 	movwne	r1, #6466	; 0x1942
     270:	2e0a0000 	cdpcs	0, 0, cr0, cr10, cr0, {0}
     274:	03193f00 	tsteq	r9, #0, 30
     278:	3b0b3a0e 	blcc	2ceab8 <load_address-0x9fd31548>
     27c:	1119270b 	tstne	r9, fp, lsl #14
     280:	40061201 	andmi	r1, r6, r1, lsl #4
     284:	19429618 	stmdbne	r2, {r3, r4, r9, sl, ip, pc}^
     288:	2e0b0000 	cdpcs	0, 0, cr0, cr11, cr0, {0}
     28c:	03193f01 	tsteq	r9, #1, 30
     290:	3b0b3a0e 	blcc	2cead0 <load_address-0x9fd31530>
     294:	1119270b 	tstne	r9, fp, lsl #14
     298:	40061201 	andmi	r1, r6, r1, lsl #4
     29c:	19429618 	stmdbne	r2, {r3, r4, r9, sl, ip, pc}^
     2a0:	00001301 	andeq	r1, r0, r1, lsl #6
     2a4:	0300050c 	movweq	r0, #1292	; 0x50c
     2a8:	3b0b3a08 	blcc	2cead0 <load_address-0x9fd31530>
     2ac:	0213490b 	andseq	r4, r3, #180224	; 0x2c000
     2b0:	0d000018 	stceq	0, cr0, [r0, #-96]	; 0xffffffa0
     2b4:	193f002e 	ldmdbne	pc!, {r1, r2, r3, r5}	; <UNPREDICTABLE>
     2b8:	0b3a0e03 	bleq	e83acc <load_address-0x9f17c534>
     2bc:	19270b3b 	stmdbne	r7!, {r0, r1, r3, r4, r5, r8, r9, fp}
     2c0:	01111349 	tsteq	r1, r9, asr #6
     2c4:	18400612 	stmdane	r0, {r1, r4, r9, sl}^
     2c8:	00194296 	mulseq	r9, r6, r2
     2cc:	00340e00 	eorseq	r0, r4, r0, lsl #28
     2d0:	0b3a0803 	bleq	e822e4 <load_address-0x9f17dd1c>
     2d4:	13490b3b 	movtne	r0, #39739	; 0x9b3b
     2d8:	00001802 	andeq	r1, r0, r2, lsl #16
     2dc:	3f012e0f 	svccc	0x00012e0f
     2e0:	3a0e0319 	bcc	380f4c <load_address-0x9fc7f0b4>
     2e4:	270b3b0b 	strcs	r3, [fp, -fp, lsl #22]
     2e8:	11134919 	tstne	r3, r9, lsl r9
     2ec:	40061201 	andmi	r1, r6, r1, lsl #4
     2f0:	19429618 	stmdbne	r2, {r3, r4, r9, sl, ip, pc}^
     2f4:	00001301 	andeq	r1, r0, r1, lsl #6
     2f8:	03003410 	movweq	r3, #1040	; 0x410
     2fc:	3b0b3a0e 	blcc	2ceb3c <load_address-0x9fd314c4>
     300:	0213490b 	andseq	r4, r3, #180224	; 0x2c000
     304:	11000018 	tstne	r0, r8, lsl r0
     308:	193f002e 	ldmdbne	pc!, {r1, r2, r3, r5}	; <UNPREDICTABLE>
     30c:	0b3a0e03 	bleq	e83b20 <load_address-0x9f17c4e0>
     310:	1927053b 	stmdbne	r7!, {r0, r1, r3, r4, r5, r8, sl}
     314:	01111349 	tsteq	r1, r9, asr #6
     318:	18400612 	stmdane	r0, {r1, r4, r9, sl}^
     31c:	00194296 	mulseq	r9, r6, r2
     320:	012e1200 	teqeq	lr, r0, lsl #4
     324:	0e03193f 	mcreq	9, 0, r1, cr3, cr15, {1}
     328:	053b0b3a 	ldreq	r0, [fp, #-2874]!	; 0xb3a
     32c:	01111927 	tsteq	r1, r7, lsr #18
     330:	18400612 	stmdane	r0, {r1, r4, r9, sl}^
     334:	01194296 			; <UNDEFINED> instruction: 0x01194296
     338:	13000013 	movwne	r0, #19
     33c:	08030005 	stmdaeq	r3, {r0, r2}
     340:	053b0b3a 	ldreq	r0, [fp, #-2874]!	; 0xb3a
     344:	18021349 	stmdane	r2, {r0, r3, r6, r8, r9, ip}
     348:	2e140000 	cdpcs	0, 1, cr0, cr4, cr0, {0}
     34c:	03193f01 	tsteq	r9, #1, 30
     350:	3b0b3a0e 	blcc	2ceb90 <load_address-0x9fd31470>
     354:	49192705 	ldmdbmi	r9, {r0, r2, r8, r9, sl, sp}
     358:	12011113 	andne	r1, r1, #-1073741820	; 0xc0000004
     35c:	96184006 	ldrls	r4, [r8], -r6
     360:	13011942 	movwne	r1, #6466	; 0x1942
     364:	05150000 	ldreq	r0, [r5, #-0]
     368:	3a0e0300 	bcc	380f70 <load_address-0x9fc7f090>
     36c:	49053b0b 	stmdbmi	r5, {r0, r1, r3, r8, r9, fp, ip, sp}
     370:	00180213 	andseq	r0, r8, r3, lsl r2
     374:	00341600 	eorseq	r1, r4, r0, lsl #12
     378:	0b3a0803 	bleq	e8238c <load_address-0x9f17dc74>
     37c:	1349053b 	movtne	r0, #38203	; 0x953b
     380:	00001802 	andeq	r1, r0, r2, lsl #16
     384:	0b000f17 	bleq	3fe8 <load_address-0x9fffc018>
     388:	0013490b 	andseq	r4, r3, fp, lsl #18
     38c:	012e1800 	teqeq	lr, r0, lsl #16
     390:	0e03193f 	mcreq	9, 0, r1, cr3, cr15, {1}
     394:	053b0b3a 	ldreq	r0, [fp, #-2874]!	; 0xb3a
     398:	01111927 	tsteq	r1, r7, lsr #18
     39c:	18400612 	stmdane	r0, {r1, r4, r9, sl}^
     3a0:	00194296 	mulseq	r9, r6, r2
     3a4:	11010000 	mrsne	r0, (UNDEF: 1)
     3a8:	130e2501 	movwne	r2, #58625	; 0xe501
     3ac:	1b0e030b 	blne	380fe0 <load_address-0x9fc7f020>
     3b0:	1201110e 	andne	r1, r1, #-2147483645	; 0x80000003
     3b4:	00171006 	andseq	r1, r7, r6
     3b8:	00240200 	eoreq	r0, r4, r0, lsl #4
     3bc:	0b3e0b0b 	bleq	f82ff0 <load_address-0x9f07d010>
     3c0:	00000e03 	andeq	r0, r0, r3, lsl #28
     3c4:	03001603 	movweq	r1, #1539	; 0x603
     3c8:	3b0b3a08 	blcc	2cebf0 <load_address-0x9fd31410>
     3cc:	0013490b 	andseq	r4, r3, fp, lsl #18
     3d0:	00240400 	eoreq	r0, r4, r0, lsl #8
     3d4:	0b3e0b0b 	bleq	f83008 <load_address-0x9f07cff8>
     3d8:	00000803 	andeq	r0, r0, r3, lsl #16
     3dc:	03012e05 	movweq	r2, #7685	; 0x1e05
     3e0:	3b0b3a0e 	blcc	2cec20 <load_address-0x9fd313e0>
     3e4:	1113490b 	tstne	r3, fp, lsl #18
     3e8:	40061201 	andmi	r1, r6, r1, lsl #4
     3ec:	19429718 	stmdbne	r2, {r3, r4, r8, r9, sl, ip, pc}^
     3f0:	00001301 	andeq	r1, r0, r1, lsl #6
     3f4:	03003406 	movweq	r3, #1030	; 0x406
     3f8:	3b0b3a08 	blcc	2cec20 <load_address-0x9fd313e0>
     3fc:	0213490b 	andseq	r4, r3, #180224	; 0x2c000
     400:	07000018 	smladeq	r0, r8, r0, r0
     404:	0e030034 	mcreq	0, 0, r0, cr3, cr4, {1}
     408:	0b3b0b3a 	bleq	ec30f8 <load_address-0x9f13cf08>
     40c:	18021349 	stmdane	r2, {r0, r3, r6, r8, r9, ip}
     410:	2e080000 	cdpcs	0, 0, cr0, cr8, cr0, {0}
     414:	3a0e0301 	bcc	381020 <load_address-0x9fc7efe0>
     418:	270b3b0b 	strcs	r3, [fp, -fp, lsl #22]
     41c:	12011119 	andne	r1, r1, #1073741830	; 0x40000006
     420:	97184006 	ldrls	r4, [r8, -r6]
     424:	13011942 	movwne	r1, #6466	; 0x1942
     428:	05090000 	streq	r0, [r9, #-0]
     42c:	3a080300 	bcc	201034 <load_address-0x9fdfefcc>
     430:	490b3b0b 	stmdbmi	fp, {r0, r1, r3, r8, r9, fp, ip, sp}
     434:	00180213 	andseq	r0, r8, r3, lsl r2
     438:	002e0a00 	eoreq	r0, lr, r0, lsl #20
     43c:	0e03193f 	mcreq	9, 0, r1, cr3, cr15, {1}
     440:	0b3b0b3a 	bleq	ec3130 <load_address-0x9f13ced0>
     444:	13491927 	movtne	r1, #39207	; 0x9927
     448:	06120111 			; <UNDEFINED> instruction: 0x06120111
     44c:	42961840 	addsmi	r1, r6, #64, 16	; 0x400000
     450:	0b000019 	bleq	4bc <load_address-0x9ffffb44>
     454:	193f002e 	ldmdbne	pc!, {r1, r2, r3, r5}	; <UNPREDICTABLE>
     458:	0b3a0e03 	bleq	e83c6c <load_address-0x9f17c394>
     45c:	13490b3b 	movtne	r0, #39739	; 0x9b3b
     460:	06120111 			; <UNDEFINED> instruction: 0x06120111
     464:	42961840 	addsmi	r1, r6, #64, 16	; 0x400000
     468:	0c000019 	stceq	0, cr0, [r0], {25}
     46c:	193f012e 	ldmdbne	pc!, {r1, r2, r3, r5, r8}	; <UNPREDICTABLE>
     470:	0b3a0e03 	bleq	e83c84 <load_address-0x9f17c37c>
     474:	19270b3b 	stmdbne	r7!, {r0, r1, r3, r4, r5, r8, r9, fp}
     478:	06120111 			; <UNDEFINED> instruction: 0x06120111
     47c:	42961840 	addsmi	r1, r6, #64, 16	; 0x400000
     480:	00130119 	andseq	r0, r3, r9, lsl r1
     484:	00050d00 	andeq	r0, r5, r0, lsl #26
     488:	0b3a0e03 	bleq	e83c9c <load_address-0x9f17c364>
     48c:	13490b3b 	movtne	r0, #39739	; 0x9b3b
     490:	00001802 	andeq	r1, r0, r2, lsl #16
     494:	01110100 	tsteq	r1, r0, lsl #2
     498:	0b130e25 	bleq	4c3d34 <load_address-0x9fb3c2cc>
     49c:	0e1b0e03 	cdpeq	14, 1, cr0, cr11, cr3, {0}
     4a0:	06120111 			; <UNDEFINED> instruction: 0x06120111
     4a4:	00001710 	andeq	r1, r0, r0, lsl r7
     4a8:	0b011302 	bleq	450b8 <load_address-0x9ffbaf48>
     4ac:	3b0b3a0b 	blcc	2cece0 <load_address-0x9fd31320>
     4b0:	0013010b 	andseq	r0, r3, fp, lsl #2
     4b4:	000d0300 	andeq	r0, sp, r0, lsl #6
     4b8:	0b3a0e03 	bleq	e83ccc <load_address-0x9f17c334>
     4bc:	13490b3b 	movtne	r0, #39739	; 0x9b3b
     4c0:	00000b38 	andeq	r0, r0, r8, lsr fp
     4c4:	03000d04 	movweq	r0, #3332	; 0xd04
     4c8:	3b0b3a08 	blcc	2cecf0 <load_address-0x9fd31310>
     4cc:	3813490b 	ldmdacc	r3, {r0, r1, r3, r8, fp, lr}
     4d0:	0500000b 	streq	r0, [r0, #-11]
     4d4:	0b0b0024 	bleq	2c056c <load_address-0x9fd3fa94>
     4d8:	0e030b3e 	vmoveq.16	d3[0], r0
     4dc:	2e060000 	cdpcs	0, 0, cr0, cr6, cr0, {0}
     4e0:	3a0e0301 	bcc	3810ec <load_address-0x9fc7ef14>
     4e4:	270b3b0b 	strcs	r3, [fp, -fp, lsl #22]
     4e8:	11134919 	tstne	r3, r9, lsl r9
     4ec:	40061201 	andmi	r1, r6, r1, lsl #4
     4f0:	19429718 	stmdbne	r2, {r3, r4, r8, r9, sl, ip, pc}^
     4f4:	00001301 	andeq	r1, r0, r1, lsl #6
     4f8:	03000507 	movweq	r0, #1287	; 0x507
     4fc:	3b0b3a08 	blcc	2ced24 <load_address-0x9fd312dc>
     500:	0213490b 	andseq	r4, r3, #180224	; 0x2c000
     504:	08000018 	stmdaeq	r0, {r3, r4}
     508:	0b0b0024 	bleq	2c05a0 <load_address-0x9fd3fa60>
     50c:	08030b3e 	stmdaeq	r3, {r1, r2, r3, r4, r5, r8, r9, fp}
     510:	2e090000 	cdpcs	0, 0, cr0, cr9, cr0, {0}
     514:	03193f01 	tsteq	r9, #1, 30
     518:	3b0b3a0e 	blcc	2ced58 <load_address-0x9fd312a8>
     51c:	1119270b 	tstne	r9, fp, lsl #14
     520:	40061201 	andmi	r1, r6, r1, lsl #4
     524:	19429718 	stmdbne	r2, {r3, r4, r8, r9, sl, ip, pc}^
     528:	00001301 	andeq	r1, r0, r1, lsl #6
     52c:	3f012e0a 	svccc	0x00012e0a
     530:	3a0e0319 	bcc	38119c <load_address-0x9fc7ee64>
     534:	270b3b0b 	strcs	r3, [fp, -fp, lsl #22]
     538:	12011119 	andne	r1, r1, #1073741830	; 0x40000006
     53c:	96184006 	ldrls	r4, [r8], -r6
     540:	13011942 	movwne	r1, #6466	; 0x1942
     544:	260b0000 	strcs	r0, [fp], -r0
     548:	00134900 	andseq	r4, r3, r0, lsl #18
     54c:	012e0c00 	teqeq	lr, r0, lsl #24
     550:	0e03193f 	mcreq	9, 0, r1, cr3, cr15, {1}
     554:	0b3b0b3a 	bleq	ec3244 <load_address-0x9f13cdbc>
     558:	13491927 	movtne	r1, #39207	; 0x9927
     55c:	06120111 			; <UNDEFINED> instruction: 0x06120111
     560:	42961840 	addsmi	r1, r6, #64, 16	; 0x400000
     564:	00130119 	andseq	r0, r3, r9, lsl r1
     568:	00050d00 	andeq	r0, r5, r0, lsl #26
     56c:	0b3a0e03 	bleq	e83d80 <load_address-0x9f17c280>
     570:	13490b3b 	movtne	r0, #39739	; 0x9b3b
     574:	00001802 	andeq	r1, r0, r2, lsl #16
     578:	0300340e 	movweq	r3, #1038	; 0x40e
     57c:	3b0b3a08 	blcc	2ceda4 <load_address-0x9fd3125c>
     580:	0213490b 	andseq	r4, r3, #180224	; 0x2c000
     584:	0f000018 	svceq	0x00000018
     588:	0b0b000f 	bleq	2c05cc <load_address-0x9fd3fa34>
     58c:	00001349 	andeq	r1, r0, r9, asr #6
     590:	3f002e10 	svccc	0x00002e10
     594:	3a0e0319 	bcc	381200 <load_address-0x9fc7ee00>
     598:	490b3b0b 	stmdbmi	fp, {r0, r1, r3, r8, r9, fp, ip, sp}
     59c:	12011113 	andne	r1, r1, #-1073741820	; 0xc0000004
     5a0:	97184006 	ldrls	r4, [r8, -r6]
     5a4:	00001942 	andeq	r1, r0, r2, asr #18
     5a8:	3f002e11 	svccc	0x00002e11
     5ac:	3a0e0319 	bcc	381218 <load_address-0x9fc7ede8>
     5b0:	110b3b0b 	tstne	fp, fp, lsl #22
     5b4:	40061201 	andmi	r1, r6, r1, lsl #4
     5b8:	19429718 	stmdbne	r2, {r3, r4, r8, r9, sl, ip, pc}^
     5bc:	34120000 	ldrcc	r0, [r2], #-0
     5c0:	3a0e0300 	bcc	3811c8 <load_address-0x9fc7ee38>
     5c4:	490b3b0b 	stmdbmi	fp, {r0, r1, r3, r8, r9, fp, ip, sp}
     5c8:	00180213 	andseq	r0, r8, r3, lsl r2
     5cc:	00341300 	eorseq	r1, r4, r0, lsl #6
     5d0:	0b3a0e03 	bleq	e83de4 <load_address-0x9f17c21c>
     5d4:	13490b3b 	movtne	r0, #39739	; 0x9b3b
     5d8:	1802193f 	stmdane	r2, {r0, r1, r2, r3, r4, r5, r8, fp, ip}
     5dc:	35140000 	ldrcc	r0, [r4, #-0]
     5e0:	00134900 	andseq	r4, r3, r0, lsl #18
     5e4:	11010000 	mrsne	r0, (UNDEF: 1)
     5e8:	130e2501 	movwne	r2, #58625	; 0xe501
     5ec:	1b0e030b 	blne	381220 <load_address-0x9fc7ede0>
     5f0:	1201110e 	andne	r1, r1, #-2147483645	; 0x80000003
     5f4:	00171006 	andseq	r1, r7, r6
     5f8:	01130200 	tsteq	r3, r0, lsl #4
     5fc:	050b0e03 	streq	r0, [fp, #-3587]	; 0xe03
     600:	0b3b0b3a 	bleq	ec32f0 <load_address-0x9f13cd10>
     604:	00001301 	andeq	r1, r0, r1, lsl #6
     608:	03000d03 	movweq	r0, #3331	; 0xd03
     60c:	3b0b3a08 	blcc	2cee34 <load_address-0x9fd311cc>
     610:	3813490b 	ldmdacc	r3, {r0, r1, r3, r8, fp, lr}
     614:	0400000b 	streq	r0, [r0], #-11
     618:	0e03000d 	cdpeq	0, 0, cr0, cr3, cr13, {0}
     61c:	0b3b0b3a 	bleq	ec330c <load_address-0x9f13ccf4>
     620:	0b381349 	bleq	e0534c <load_address-0x9f1facb4>
     624:	01050000 	mrseq	r0, (UNDEF: 5)
     628:	01134901 	tsteq	r3, r1, lsl #18
     62c:	06000013 			; <UNDEFINED> instruction: 0x06000013
     630:	13490021 	movtne	r0, #36897	; 0x9021
     634:	00000b2f 	andeq	r0, r0, pc, lsr #22
     638:	0b002407 	bleq	965c <load_address-0x9fff69a4>
     63c:	030b3e0b 	movweq	r3, #48651	; 0xbe0b
     640:	0800000e 	stmdaeq	r0, {r1, r2, r3}
     644:	193f012e 	ldmdbne	pc!, {r1, r2, r3, r5, r8}	; <UNPREDICTABLE>
     648:	0b3a0e03 	bleq	e83e5c <load_address-0x9f17c1a4>
     64c:	19270b3b 	stmdbne	r7!, {r0, r1, r3, r4, r5, r8, r9, fp}
     650:	06120111 			; <UNDEFINED> instruction: 0x06120111
     654:	42961840 	addsmi	r1, r6, #64, 16	; 0x400000
     658:	00130119 	andseq	r0, r3, r9, lsl r1
     65c:	00050900 	andeq	r0, r5, r0, lsl #18
     660:	0b3a0e03 	bleq	e83e74 <load_address-0x9f17c18c>
     664:	13490b3b 	movtne	r0, #39739	; 0x9b3b
     668:	00001802 	andeq	r1, r0, r2, lsl #16
     66c:	0300050a 	movweq	r0, #1290	; 0x50a
     670:	3b0b3a08 	blcc	2cee98 <load_address-0x9fd31168>
     674:	0213490b 	andseq	r4, r3, #180224	; 0x2c000
     678:	0b000018 	bleq	6e0 <load_address-0x9ffff920>
     67c:	0e030034 	mcreq	0, 0, r0, cr3, cr4, {1}
     680:	0b3b0b3a 	bleq	ec3370 <load_address-0x9f13cc90>
     684:	18021349 	stmdane	r2, {r0, r3, r6, r8, r9, ip}
     688:	0f0c0000 	svceq	0x000c0000
     68c:	490b0b00 	stmdbmi	fp, {r8, r9, fp}
     690:	0d000013 	stceq	0, cr0, [r0, #-76]	; 0xffffffb4
     694:	0b0b0024 	bleq	2c072c <load_address-0x9fd3f8d4>
     698:	08030b3e 	stmdaeq	r3, {r1, r2, r3, r4, r5, r8, r9, fp}
     69c:	2e0e0000 	cdpcs	0, 0, cr0, cr14, cr0, {0}
     6a0:	03193f01 	tsteq	r9, #1, 30
     6a4:	3b0b3a0e 	blcc	2ceee4 <load_address-0x9fd3111c>
     6a8:	1119270b 	tstne	r9, fp, lsl #14
     6ac:	40061201 	andmi	r1, r6, r1, lsl #4
     6b0:	19429718 	stmdbne	r2, {r3, r4, r8, r9, sl, ip, pc}^
     6b4:	00001301 	andeq	r1, r0, r1, lsl #6
     6b8:	3f012e0f 	svccc	0x00012e0f
     6bc:	3a0e0319 	bcc	381328 <load_address-0x9fc7ecd8>
     6c0:	270b3b0b 	strcs	r3, [fp, -fp, lsl #22]
     6c4:	11134919 	tstne	r3, r9, lsl r9
     6c8:	40061201 	andmi	r1, r6, r1, lsl #4
     6cc:	19429718 	stmdbne	r2, {r3, r4, r8, r9, sl, ip, pc}^
     6d0:	00001301 	andeq	r1, r0, r1, lsl #6
     6d4:	3f012e10 	svccc	0x00012e10
     6d8:	3a0e0319 	bcc	381344 <load_address-0x9fc7ecbc>
     6dc:	270b3b0b 	strcs	r3, [fp, -fp, lsl #22]
     6e0:	12011119 	andne	r1, r1, #1073741830	; 0x40000006
     6e4:	97184006 	ldrls	r4, [r8, -r6]
     6e8:	00001942 	andeq	r1, r0, r2, asr #18
     6ec:	01110100 	tsteq	r1, r0, lsl #2
     6f0:	0b130e25 	bleq	4c3f8c <load_address-0x9fb3c074>
     6f4:	0e1b0e03 	cdpeq	14, 1, cr0, cr11, cr3, {0}
     6f8:	06120111 			; <UNDEFINED> instruction: 0x06120111
     6fc:	00001710 	andeq	r1, r0, r0, lsl r7
     700:	03001602 	movweq	r1, #1538	; 0x602
     704:	3b0b3a0e 	blcc	2cef44 <load_address-0x9fd310bc>
     708:	0013490b 	andseq	r4, r3, fp, lsl #18
     70c:	000f0300 	andeq	r0, pc, r0, lsl #6
     710:	13490b0b 	movtne	r0, #39691	; 0x9b0b
     714:	24040000 	strcs	r0, [r4], #-0
     718:	3e0b0b00 	vmlacc.f64	d0, d11, d0
     71c:	000e030b 	andeq	r0, lr, fp, lsl #6
     720:	012e0500 	teqeq	lr, r0, lsl #10
     724:	0e03193f 	mcreq	9, 0, r1, cr3, cr15, {1}
     728:	0b3b0b3a 	bleq	ec3418 <load_address-0x9f13cbe8>
     72c:	13491927 	movtne	r1, #39207	; 0x9927
     730:	06120111 			; <UNDEFINED> instruction: 0x06120111
     734:	42961840 	addsmi	r1, r6, #64, 16	; 0x400000
     738:	00130119 	andseq	r0, r3, r9, lsl r1
     73c:	00050600 	andeq	r0, r5, r0, lsl #12
     740:	0b3a0803 	bleq	e82754 <load_address-0x9f17d8ac>
     744:	13490b3b 	movtne	r0, #39739	; 0x9b3b
     748:	00001802 	andeq	r1, r0, r2, lsl #16
     74c:	0b002407 	bleq	9770 <load_address-0x9fff6890>
     750:	030b3e0b 	movweq	r3, #48651	; 0xbe0b
     754:	08000008 	stmdaeq	r0, {r3}
     758:	00000018 	andeq	r0, r0, r8, lsl r0
     75c:	03003409 	movweq	r3, #1033	; 0x409
     760:	3b0b3a0e 	blcc	2cefa0 <load_address-0x9fd31060>
     764:	0213490b 	andseq	r4, r3, #180224	; 0x2c000
     768:	0a000018 	beq	7d0 <load_address-0x9ffff830>
     76c:	08030034 	stmdaeq	r3, {r2, r4, r5}
     770:	0b3b0b3a 	bleq	ec3460 <load_address-0x9f13cba0>
     774:	18021349 	stmdane	r2, {r0, r3, r6, r8, r9, ip}
     778:	260b0000 	strcs	r0, [fp], -r0
     77c:	00134900 	andseq	r4, r3, r0, lsl #18
     780:	01010c00 	tsteq	r1, r0, lsl #24
     784:	13011349 	movwne	r1, #4937	; 0x1349
     788:	210d0000 	mrscs	r0, (UNDEF: 13)
     78c:	2f134900 	svccs	0x00134900
     790:	0e000005 	cdpeq	0, 0, cr0, cr0, cr5, {0}
     794:	193f002e 	ldmdbne	pc!, {r1, r2, r3, r5}	; <UNPREDICTABLE>
     798:	0b3a0e03 	bleq	e83fac <load_address-0x9f17c054>
     79c:	19270b3b 	stmdbne	r7!, {r0, r1, r3, r4, r5, r8, r9, fp}
     7a0:	01111349 	tsteq	r1, r9, asr #6
     7a4:	18400612 	stmdane	r0, {r1, r4, r9, sl}^
     7a8:	00194296 	mulseq	r9, r6, r2
     7ac:	00050f00 	andeq	r0, r5, r0, lsl #30
     7b0:	0b3a0e03 	bleq	e83fc4 <load_address-0x9f17c03c>
     7b4:	13490b3b 	movtne	r0, #39739	; 0x9b3b
     7b8:	00001802 	andeq	r1, r0, r2, lsl #16
     7bc:	00002110 	andeq	r2, r0, r0, lsl r1
     7c0:	00341100 	eorseq	r1, r4, r0, lsl #2
     7c4:	0b3a0e03 	bleq	e83fd8 <load_address-0x9f17c028>
     7c8:	13490b3b 	movtne	r0, #39739	; 0x9b3b
     7cc:	193c193f 	ldmdbne	ip!, {r0, r1, r2, r3, r4, r5, r8, fp, ip}
     7d0:	21120000 	tstcs	r2, r0
     7d4:	2f134900 	svccs	0x00134900
     7d8:	1300000b 	movwne	r0, #11
     7dc:	0e030034 	mcreq	0, 0, r0, cr3, cr4, {1}
     7e0:	0b3b0b3a 	bleq	ec34d0 <load_address-0x9f13cb30>
     7e4:	193f1349 	ldmdbne	pc!, {r0, r3, r6, r8, r9, ip}	; <UNPREDICTABLE>
     7e8:	00001802 	andeq	r1, r0, r2, lsl #16
     7ec:	01110100 	tsteq	r1, r0, lsl #2
     7f0:	0b130e25 	bleq	4c408c <load_address-0x9fb3bf74>
     7f4:	0e1b0e03 	cdpeq	14, 1, cr0, cr11, cr3, {0}
     7f8:	06120111 			; <UNDEFINED> instruction: 0x06120111
     7fc:	00001710 	andeq	r1, r0, r0, lsl r7
     800:	03001602 	movweq	r1, #1538	; 0x602
     804:	3b0b3a0e 	blcc	2cf044 <load_address-0x9fd30fbc>
     808:	0013490b 	andseq	r4, r3, fp, lsl #18
     80c:	000f0300 	andeq	r0, pc, r0, lsl #6
     810:	13490b0b 	movtne	r0, #39691	; 0x9b0b
     814:	24040000 	strcs	r0, [r4], #-0
     818:	3e0b0b00 	vmlacc.f64	d0, d11, d0
     81c:	000e030b 	andeq	r0, lr, fp, lsl #6
     820:	012e0500 	teqeq	lr, r0, lsl #10
     824:	0b3a0e03 	bleq	e84038 <load_address-0x9f17bfc8>
     828:	19270b3b 	stmdbne	r7!, {r0, r1, r3, r4, r5, r8, r9, fp}
     82c:	01111349 	tsteq	r1, r9, asr #6
     830:	18400612 	stmdane	r0, {r1, r4, r9, sl}^
     834:	01194297 			; <UNDEFINED> instruction: 0x01194297
     838:	06000013 			; <UNDEFINED> instruction: 0x06000013
     83c:	08030005 	stmdaeq	r3, {r0, r2}
     840:	0b3b0b3a 	bleq	ec3530 <load_address-0x9f13cad0>
     844:	18021349 	stmdane	r2, {r0, r3, r6, r8, r9, ip}
     848:	2e070000 	cdpcs	0, 0, cr0, cr7, cr0, {0}
     84c:	03193f01 	tsteq	r9, #1, 30
     850:	3b0b3a0e 	blcc	2cf090 <load_address-0x9fd30f70>
     854:	4919270b 	ldmdbmi	r9, {r0, r1, r3, r8, r9, sl, sp}
     858:	12011113 	andne	r1, r1, #-1073741820	; 0xc0000004
     85c:	96184006 	ldrls	r4, [r8], -r6
     860:	13011942 	movwne	r1, #6466	; 0x1942
     864:	34080000 	strcc	r0, [r8], #-0
     868:	3a080300 	bcc	201470 <load_address-0x9fdfeb90>
     86c:	490b3b0b 	stmdbmi	fp, {r0, r1, r3, r8, r9, fp, ip, sp}
     870:	00180213 	andseq	r0, r8, r3, lsl r2
     874:	00240900 	eoreq	r0, r4, r0, lsl #18
     878:	0b3e0b0b 	bleq	f834ac <load_address-0x9f07cb54>
     87c:	00000803 	andeq	r0, r0, r3, lsl #16
     880:	4900260a 	stmdbmi	r0, {r1, r3, r9, sl, sp}
     884:	0b000013 	bleq	8d8 <load_address-0x9ffff728>
     888:	193f012e 	ldmdbne	pc!, {r1, r2, r3, r5, r8}	; <UNPREDICTABLE>
     88c:	0b3a0e03 	bleq	e840a0 <load_address-0x9f17bf60>
     890:	19270b3b 	stmdbne	r7!, {r0, r1, r3, r4, r5, r8, r9, fp}
     894:	01111349 	tsteq	r1, r9, asr #6
     898:	18400612 	stmdane	r0, {r1, r4, r9, sl}^
     89c:	01194297 			; <UNDEFINED> instruction: 0x01194297
     8a0:	0c000013 	stceq	0, cr0, [r0], {19}
     8a4:	0e030005 	cdpeq	0, 0, cr0, cr3, cr5, {0}
     8a8:	0b3b0b3a 	bleq	ec3598 <load_address-0x9f13ca68>
     8ac:	18021349 	stmdane	r2, {r0, r3, r6, r8, r9, ip}
     8b0:	340d0000 	strcc	r0, [sp], #-0
     8b4:	3a0e0300 	bcc	3814bc <load_address-0x9fc7eb44>
     8b8:	490b3b0b 	stmdbmi	fp, {r0, r1, r3, r8, r9, fp, ip, sp}
     8bc:	00180213 	andseq	r0, r8, r3, lsl r2
     8c0:	000f0e00 	andeq	r0, pc, r0, lsl #28
     8c4:	00000b0b 	andeq	r0, r0, fp, lsl #22
     8c8:	0000260f 	andeq	r2, r0, pc, lsl #12
     8cc:	00341000 	eorseq	r1, r4, r0
     8d0:	0b3a0803 	bleq	e828e4 <load_address-0x9f17d71c>
     8d4:	1349053b 	movtne	r0, #38203	; 0x953b
     8d8:	00001802 	andeq	r1, r0, r2, lsl #16
     8dc:	3f012e11 	svccc	0x00012e11
     8e0:	3a0e0319 	bcc	38154c <load_address-0x9fc7eab4>
     8e4:	27053b0b 	strcs	r3, [r5, -fp, lsl #22]
     8e8:	11134919 	tstne	r3, r9, lsl r9
     8ec:	40061201 	andmi	r1, r6, r1, lsl #4
     8f0:	19429618 	stmdbne	r2, {r3, r4, r9, sl, ip, pc}^
     8f4:	00001301 	andeq	r1, r0, r1, lsl #6
     8f8:	03000512 	movweq	r0, #1298	; 0x512
     8fc:	3b0b3a08 	blcc	2cf124 <load_address-0x9fd30edc>
     900:	02134905 	andseq	r4, r3, #81920	; 0x14000
     904:	13000018 	movwne	r0, #24
     908:	193f012e 	ldmdbne	pc!, {r1, r2, r3, r5, r8}	; <UNPREDICTABLE>
     90c:	0b3a0e03 	bleq	e84120 <load_address-0x9f17bee0>
     910:	1927053b 	stmdbne	r7!, {r0, r1, r3, r4, r5, r8, sl}
     914:	01111349 	tsteq	r1, r9, asr #6
     918:	18400612 	stmdane	r0, {r1, r4, r9, sl}^
     91c:	01194297 			; <UNDEFINED> instruction: 0x01194297
     920:	14000013 	strne	r0, [r0], #-19
     924:	193f012e 	ldmdbne	pc!, {r1, r2, r3, r5, r8}	; <UNPREDICTABLE>
     928:	0b3a0e03 	bleq	e8413c <load_address-0x9f17bec4>
     92c:	1927053b 	stmdbne	r7!, {r0, r1, r3, r4, r5, r8, sl}
     930:	06120111 			; <UNDEFINED> instruction: 0x06120111
     934:	42961840 	addsmi	r1, r6, #64, 16	; 0x400000
     938:	00130119 	andseq	r0, r3, r9, lsl r1
     93c:	00051500 	andeq	r1, r5, r0, lsl #10
     940:	0b3a0e03 	bleq	e84154 <load_address-0x9f17beac>
     944:	1349053b 	movtne	r0, #38203	; 0x953b
     948:	00001802 	andeq	r1, r0, r2, lsl #16
     94c:	11010b16 	tstne	r1, r6, lsl fp
     950:	00061201 	andeq	r1, r6, r1, lsl #4
     954:	00341700 	eorseq	r1, r4, r0, lsl #14
     958:	0b3a0e03 	bleq	e8416c <load_address-0x9f17be94>
     95c:	1349053b 	movtne	r0, #38203	; 0x953b
     960:	00001802 	andeq	r1, r0, r2, lsl #16
     964:	49010118 	stmdbmi	r1, {r3, r4, r8}
     968:	00130113 	andseq	r0, r3, r3, lsl r1
     96c:	00211900 	eoreq	r1, r1, r0, lsl #18
     970:	0b2f1349 	bleq	bc569c <load_address-0x9f43a964>
     974:	0a1a0000 	beq	68097c <load_address-0x9f97f684>
     978:	3a0e0300 	bcc	381580 <load_address-0x9fc7ea80>
     97c:	110b3b0b 	tstne	fp, fp, lsl #22
     980:	1b000001 	blne	98c <load_address-0x9ffff674>
     984:	0111010b 	tsteq	r1, fp, lsl #2
     988:	13010612 	movwne	r0, #5650	; 0x1612
     98c:	181c0000 	ldmdane	ip, {}	; <UNPREDICTABLE>
     990:	1d000000 	stcne	0, cr0, [r0, #-0]
     994:	0e030034 	mcreq	0, 0, r0, cr3, cr4, {1}
     998:	0b3b0b3a 	bleq	ec3688 <load_address-0x9f13c978>
     99c:	193f1349 	ldmdbne	pc!, {r0, r3, r6, r8, r9, ip}	; <UNPREDICTABLE>
     9a0:	00001802 	andeq	r1, r0, r2, lsl #16
     9a4:	01110100 	tsteq	r1, r0, lsl #2
     9a8:	0b130e25 	bleq	4c4244 <load_address-0x9fb3bdbc>
     9ac:	0e1b0e03 	cdpeq	14, 1, cr0, cr11, cr3, {0}
     9b0:	06120111 			; <UNDEFINED> instruction: 0x06120111
     9b4:	00001710 	andeq	r1, r0, r0, lsl r7
     9b8:	0b002402 	bleq	99c8 <load_address-0x9fff6638>
     9bc:	030b3e0b 	movweq	r3, #48651	; 0xbe0b
     9c0:	03000008 	movweq	r0, #8
     9c4:	0b0b0024 	bleq	2c0a5c <load_address-0x9fd3f5a4>
     9c8:	0e030b3e 	vmoveq.16	d3[0], r0
     9cc:	0f040000 	svceq	0x00040000
     9d0:	000b0b00 	andeq	r0, fp, r0, lsl #22
     9d4:	00160500 	andseq	r0, r6, r0, lsl #10
     9d8:	0b3a0e03 	bleq	e841ec <load_address-0x9f17be14>
     9dc:	13490b3b 	movtne	r0, #39739	; 0x9b3b
     9e0:	13060000 	movwne	r0, #24576	; 0x6000
     9e4:	0b0e0301 	bleq	3815f0 <load_address-0x9fc7ea10>
     9e8:	3b0b3a0b 	blcc	2cf21c <load_address-0x9fd30de4>
     9ec:	0013010b 	andseq	r0, r3, fp, lsl #2
     9f0:	000d0700 	andeq	r0, sp, r0, lsl #14
     9f4:	0b3a0e03 	bleq	e84208 <load_address-0x9f17bdf8>
     9f8:	13490b3b 	movtne	r0, #39739	; 0x9b3b
     9fc:	00000b38 	andeq	r0, r0, r8, lsr fp
     a00:	0b000f08 	bleq	4628 <load_address-0x9fffb9d8>
     a04:	0013490b 	andseq	r4, r3, fp, lsl #18
     a08:	00350900 	eorseq	r0, r5, r0, lsl #18
     a0c:	00001349 	andeq	r1, r0, r9, asr #6
     a10:	2701150a 	strcs	r1, [r1, -sl, lsl #10]
     a14:	00130119 	andseq	r0, r3, r9, lsl r1
     a18:	00050b00 	andeq	r0, r5, r0, lsl #22
     a1c:	00001349 	andeq	r1, r0, r9, asr #6
     a20:	3f012e0c 	svccc	0x00012e0c
     a24:	3a0e0319 	bcc	381690 <load_address-0x9fc7e970>
     a28:	270b3b0b 	strcs	r3, [fp, -fp, lsl #22]
     a2c:	11134919 	tstne	r3, r9, lsl r9
     a30:	40061201 	andmi	r1, r6, r1, lsl #4
     a34:	19429618 	stmdbne	r2, {r3, r4, r9, sl, ip, pc}^
     a38:	00001301 	andeq	r1, r0, r1, lsl #6
     a3c:	0300050d 	movweq	r0, #1293	; 0x50d
     a40:	3b0b3a0e 	blcc	2cf280 <load_address-0x9fd30d80>
     a44:	0213490b 	andseq	r4, r3, #180224	; 0x2c000
     a48:	0e000018 	mcreq	0, 0, r0, cr0, cr8, {0}
     a4c:	0e030034 	mcreq	0, 0, r0, cr3, cr4, {1}
     a50:	0b3b0b3a 	bleq	ec3740 <load_address-0x9f13c8c0>
     a54:	18021349 	stmdane	r2, {r0, r3, r6, r8, r9, ip}
     a58:	2e0f0000 	cdpcs	0, 0, cr0, cr15, cr0, {0}
     a5c:	03193f01 	tsteq	r9, #1, 30
     a60:	3b0b3a0e 	blcc	2cf2a0 <load_address-0x9fd30d60>
     a64:	1119270b 	tstne	r9, fp, lsl #14
     a68:	40061201 	andmi	r1, r6, r1, lsl #4
     a6c:	19429618 	stmdbne	r2, {r3, r4, r9, sl, ip, pc}^
     a70:	00001301 	andeq	r1, r0, r1, lsl #6
     a74:	03012e10 	movweq	r2, #7696	; 0x1e10
     a78:	3b0b3a0e 	blcc	2cf2b8 <load_address-0x9fd30d48>
     a7c:	1119270b 	tstne	r9, fp, lsl #14
     a80:	40061201 	andmi	r1, r6, r1, lsl #4
     a84:	19429618 	stmdbne	r2, {r3, r4, r9, sl, ip, pc}^
     a88:	00001301 	andeq	r1, r0, r1, lsl #6
     a8c:	11010b11 	tstne	r1, r1, lsl fp
     a90:	00061201 	andeq	r1, r6, r1, lsl #4
     a94:	00341200 	eorseq	r1, r4, r0, lsl #4
     a98:	0b3a0e03 	bleq	e842ac <load_address-0x9f17bd54>
     a9c:	1349053b 	movtne	r0, #38203	; 0x953b
     aa0:	00001802 	andeq	r1, r0, r2, lsl #16
     aa4:	3f012e13 	svccc	0x00012e13
     aa8:	3a0e0319 	bcc	381714 <load_address-0x9fc7e8ec>
     aac:	27053b0b 	strcs	r3, [r5, -fp, lsl #22]
     ab0:	12011119 	andne	r1, r1, #1073741830	; 0x40000006
     ab4:	96184006 	ldrls	r4, [r8], -r6
     ab8:	13011942 	movwne	r1, #6466	; 0x1942
     abc:	26140000 	ldrcs	r0, [r4], -r0
     ac0:	00134900 	andseq	r4, r3, r0, lsl #18
     ac4:	012e1500 	teqeq	lr, r0, lsl #10
     ac8:	0b3a0e03 	bleq	e842dc <load_address-0x9f17bd24>
     acc:	1927053b 	stmdbne	r7!, {r0, r1, r3, r4, r5, r8, sl}
     ad0:	06120111 			; <UNDEFINED> instruction: 0x06120111
     ad4:	42961840 	addsmi	r1, r6, #64, 16	; 0x400000
     ad8:	00130119 	andseq	r0, r3, r9, lsl r1
     adc:	012e1600 	teqeq	lr, r0, lsl #12
     ae0:	0e03193f 	mcreq	9, 0, r1, cr3, cr15, {1}
     ae4:	053b0b3a 	ldreq	r0, [fp, #-2874]!	; 0xb3a
     ae8:	13491927 	movtne	r1, #39207	; 0x9927
     aec:	06120111 			; <UNDEFINED> instruction: 0x06120111
     af0:	42961840 	addsmi	r1, r6, #64, 16	; 0x400000
     af4:	00130119 	andseq	r0, r3, r9, lsl r1
     af8:	00051700 	andeq	r1, r5, r0, lsl #14
     afc:	0b3a0e03 	bleq	e84310 <load_address-0x9f17bcf0>
     b00:	1349053b 	movtne	r0, #38203	; 0x953b
     b04:	00001802 	andeq	r1, r0, r2, lsl #16
     b08:	49010118 	stmdbmi	r1, {r3, r4, r8}
     b0c:	00130113 	andseq	r0, r3, r3, lsl r1
     b10:	00211900 	eoreq	r1, r1, r0, lsl #18
     b14:	0b2f1349 	bleq	bc5840 <load_address-0x9f43a7c0>
     b18:	341a0000 	ldrcc	r0, [sl], #-0
     b1c:	3a0e0300 	bcc	381724 <load_address-0x9fc7e8dc>
     b20:	490b3b0b 	stmdbmi	fp, {r0, r1, r3, r8, r9, fp, ip, sp}
     b24:	02193f13 	andseq	r3, r9, #19, 30	; 0x4c
     b28:	00000018 	andeq	r0, r0, r8, lsl r0
     b2c:	25011101 	strcs	r1, [r1, #-257]	; 0x101
     b30:	030b130e 	movweq	r1, #45838	; 0xb30e
     b34:	110e1b0e 	tstne	lr, lr, lsl #22
     b38:	10061201 	andne	r1, r6, r1, lsl #4
     b3c:	02000017 	andeq	r0, r0, #23
     b40:	0b0b0024 	bleq	2c0bd8 <load_address-0x9fd3f428>
     b44:	0e030b3e 	vmoveq.16	d3[0], r0
     b48:	24030000 	strcs	r0, [r3], #-0
     b4c:	3e0b0b00 	vmlacc.f64	d0, d11, d0
     b50:	0008030b 	andeq	r0, r8, fp, lsl #6
     b54:	000f0400 	andeq	r0, pc, r0, lsl #8
     b58:	00000b0b 	andeq	r0, r0, fp, lsl #22
     b5c:	03001605 	movweq	r1, #1541	; 0x605
     b60:	3b0b3a0e 	blcc	2cf3a0 <load_address-0x9fd30c60>
     b64:	0013490b 	andseq	r4, r3, fp, lsl #18
     b68:	01130600 	tsteq	r3, r0, lsl #12
     b6c:	0b0b0e03 	bleq	2c4380 <load_address-0x9fd3bc80>
     b70:	0b3b0b3a 	bleq	ec3860 <load_address-0x9f13c7a0>
     b74:	00001301 	andeq	r1, r0, r1, lsl #6
     b78:	03000d07 	movweq	r0, #3335	; 0xd07
     b7c:	3b0b3a0e 	blcc	2cf3bc <load_address-0x9fd30c44>
     b80:	3813490b 	ldmdacc	r3, {r0, r1, r3, r8, fp, lr}
     b84:	0800000b 	stmdaeq	r0, {r0, r1, r3}
     b88:	0b0b000f 	bleq	2c0bcc <load_address-0x9fd3f434>
     b8c:	00001349 	andeq	r1, r0, r9, asr #6
     b90:	49003509 	stmdbmi	r0, {r0, r3, r8, sl, ip, sp}
     b94:	0a000013 	beq	be8 <load_address-0x9ffff418>
     b98:	193f012e 	ldmdbne	pc!, {r1, r2, r3, r5, r8}	; <UNPREDICTABLE>
     b9c:	0b3a0e03 	bleq	e843b0 <load_address-0x9f17bc50>
     ba0:	19270b3b 	stmdbne	r7!, {r0, r1, r3, r4, r5, r8, r9, fp}
     ba4:	06120111 			; <UNDEFINED> instruction: 0x06120111
     ba8:	42971840 	addsmi	r1, r7, #64, 16	; 0x400000
     bac:	00130119 	andseq	r0, r3, r9, lsl r1
     bb0:	00050b00 	andeq	r0, r5, r0, lsl #22
     bb4:	0b3a0e03 	bleq	e843c8 <load_address-0x9f17bc38>
     bb8:	13490b3b 	movtne	r0, #39739	; 0x9b3b
     bbc:	00001802 	andeq	r1, r0, r2, lsl #16
     bc0:	0300340c 	movweq	r3, #1036	; 0x40c
     bc4:	3b0b3a0e 	blcc	2cf404 <load_address-0x9fd30bfc>
     bc8:	0213490b 	andseq	r4, r3, #180224	; 0x2c000
     bcc:	0d000018 	stceq	0, cr0, [r0, #-96]	; 0xffffffa0
     bd0:	193f012e 	ldmdbne	pc!, {r1, r2, r3, r5, r8}	; <UNPREDICTABLE>
     bd4:	0b3a0e03 	bleq	e843e8 <load_address-0x9f17bc18>
     bd8:	19270b3b 	stmdbne	r7!, {r0, r1, r3, r4, r5, r8, r9, fp}
     bdc:	06120111 			; <UNDEFINED> instruction: 0x06120111
     be0:	42971840 	addsmi	r1, r7, #64, 16	; 0x400000
     be4:	00000019 	andeq	r0, r0, r9, lsl r0
     be8:	25011101 	strcs	r1, [r1, #-257]	; 0x101
     bec:	030b130e 	movweq	r1, #45838	; 0xb30e
     bf0:	110e1b0e 	tstne	lr, lr, lsl #22
     bf4:	10061201 	andne	r1, r6, r1, lsl #4
     bf8:	02000017 	andeq	r0, r0, #23
     bfc:	0b0b0024 	bleq	2c0c94 <load_address-0x9fd3f36c>
     c00:	0e030b3e 	vmoveq.16	d3[0], r0
     c04:	24030000 	strcs	r0, [r3], #-0
     c08:	3e0b0b00 	vmlacc.f64	d0, d11, d0
     c0c:	0008030b 	andeq	r0, r8, fp, lsl #6
     c10:	000f0400 	andeq	r0, pc, r0, lsl #8
     c14:	00000b0b 	andeq	r0, r0, fp, lsl #22
     c18:	0b000f05 	bleq	4834 <load_address-0x9fffb7cc>
     c1c:	0013490b 	andseq	r4, r3, fp, lsl #18
     c20:	00260600 	eoreq	r0, r6, r0, lsl #12
     c24:	16070000 	strne	r0, [r7], -r0
     c28:	3a0e0300 	bcc	381830 <load_address-0x9fc7e7d0>
     c2c:	490b3b0b 	stmdbmi	fp, {r0, r1, r3, r8, r9, fp, ip, sp}
     c30:	08000013 	stmdaeq	r0, {r0, r1, r4}
     c34:	0e030113 	mcreq	1, 0, r0, cr3, cr3, {0}
     c38:	0b3a0b0b 	bleq	e8386c <load_address-0x9f17c794>
     c3c:	13010b3b 	movwne	r0, #6971	; 0x1b3b
     c40:	0d090000 	stceq	0, cr0, [r9, #-0]
     c44:	3a0e0300 	bcc	38184c <load_address-0x9fc7e7b4>
     c48:	490b3b0b 	stmdbmi	fp, {r0, r1, r3, r8, r9, fp, ip, sp}
     c4c:	000b3813 	andeq	r3, fp, r3, lsl r8
     c50:	00350a00 	eorseq	r0, r5, r0, lsl #20
     c54:	00001349 	andeq	r1, r0, r9, asr #6
     c58:	3f012e0b 	svccc	0x00012e0b
     c5c:	3a0e0319 	bcc	3818c8 <load_address-0x9fc7e738>
     c60:	270b3b0b 	strcs	r3, [fp, -fp, lsl #22]
     c64:	11134919 	tstne	r3, r9, lsl r9
     c68:	40061201 	andmi	r1, r6, r1, lsl #4
     c6c:	19429618 	stmdbne	r2, {r3, r4, r9, sl, ip, pc}^
     c70:	00001301 	andeq	r1, r0, r1, lsl #6
     c74:	0300050c 	movweq	r0, #1292	; 0x50c
     c78:	3b0b3a0e 	blcc	2cf4b8 <load_address-0x9fd30b48>
     c7c:	0213490b 	andseq	r4, r3, #180224	; 0x2c000
     c80:	0d000018 	stceq	0, cr0, [r0, #-96]	; 0xffffffa0
     c84:	0e030034 	mcreq	0, 0, r0, cr3, cr4, {1}
     c88:	0b3b0b3a 	bleq	ec3978 <load_address-0x9f13c688>
     c8c:	18021349 	stmdane	r2, {r0, r3, r6, r8, r9, ip}
     c90:	340e0000 	strcc	r0, [lr], #-0
     c94:	3a0e0300 	bcc	38189c <load_address-0x9fc7e764>
     c98:	49053b0b 	stmdbmi	r5, {r0, r1, r3, r8, r9, fp, ip, sp}
     c9c:	00180213 	andseq	r0, r8, r3, lsl r2
     ca0:	012e0f00 	teqeq	lr, r0, lsl #30
     ca4:	0e03193f 	mcreq	9, 0, r1, cr3, cr15, {1}
     ca8:	053b0b3a 	ldreq	r0, [fp, #-2874]!	; 0xb3a
     cac:	13491927 	movtne	r1, #39207	; 0x9927
     cb0:	06120111 			; <UNDEFINED> instruction: 0x06120111
     cb4:	42961840 	addsmi	r1, r6, #64, 16	; 0x400000
     cb8:	00130119 	andseq	r0, r3, r9, lsl r1
     cbc:	00051000 	andeq	r1, r5, r0
     cc0:	0b3a0e03 	bleq	e844d4 <load_address-0x9f17bb2c>
     cc4:	1349053b 	movtne	r0, #38203	; 0x953b
     cc8:	00001802 	andeq	r1, r0, r2, lsl #16
     ccc:	49002611 	stmdbmi	r0, {r0, r4, r9, sl, sp}
     cd0:	12000013 	andne	r0, r0, #19
     cd4:	193f012e 	ldmdbne	pc!, {r1, r2, r3, r5, r8}	; <UNPREDICTABLE>
     cd8:	0b3a0e03 	bleq	e844ec <load_address-0x9f17bb14>
     cdc:	1927053b 	stmdbne	r7!, {r0, r1, r3, r4, r5, r8, sl}
     ce0:	01111349 	tsteq	r1, r9, asr #6
     ce4:	18400612 	stmdane	r0, {r1, r4, r9, sl}^
     ce8:	01194297 			; <UNDEFINED> instruction: 0x01194297
     cec:	13000013 	movwne	r0, #19
     cf0:	193f012e 	ldmdbne	pc!, {r1, r2, r3, r5, r8}	; <UNPREDICTABLE>
     cf4:	0b3a0e03 	bleq	e84508 <load_address-0x9f17baf8>
     cf8:	1927053b 	stmdbne	r7!, {r0, r1, r3, r4, r5, r8, sl}
     cfc:	06120111 			; <UNDEFINED> instruction: 0x06120111
     d00:	42961840 	addsmi	r1, r6, #64, 16	; 0x400000
     d04:	00130119 	andseq	r0, r3, r9, lsl r1
     d08:	012e1400 	teqeq	lr, r0, lsl #8
     d0c:	0b3a0e03 	bleq	e84520 <load_address-0x9f17bae0>
     d10:	1927053b 	stmdbne	r7!, {r0, r1, r3, r4, r5, r8, sl}
     d14:	06120111 			; <UNDEFINED> instruction: 0x06120111
     d18:	42961840 	addsmi	r1, r6, #64, 16	; 0x400000
     d1c:	00130119 	andseq	r0, r3, r9, lsl r1
     d20:	012e1500 	teqeq	lr, r0, lsl #10
     d24:	0b3a0e03 	bleq	e84538 <load_address-0x9f17bac8>
     d28:	1927053b 	stmdbne	r7!, {r0, r1, r3, r4, r5, r8, sl}
     d2c:	01111349 	tsteq	r1, r9, asr #6
     d30:	18400612 	stmdane	r0, {r1, r4, r9, sl}^
     d34:	01194296 			; <UNDEFINED> instruction: 0x01194296
     d38:	16000013 			; <UNDEFINED> instruction: 0x16000013
     d3c:	13490101 	movtne	r0, #37121	; 0x9101
     d40:	00001301 	andeq	r1, r0, r1, lsl #6
     d44:	00002117 	andeq	r2, r0, r7, lsl r1
     d48:	00341800 	eorseq	r1, r4, r0, lsl #16
     d4c:	0b3a0e03 	bleq	e84560 <load_address-0x9f17baa0>
     d50:	13490b3b 	movtne	r0, #39739	; 0x9b3b
     d54:	193c193f 	ldmdbne	ip!, {r0, r1, r2, r3, r4, r5, r8, fp, ip}
     d58:	01000000 	mrseq	r0, (UNDEF: 0)
     d5c:	0e250111 	mcreq	1, 1, r0, cr5, cr1, {0}
     d60:	0e030b13 	vmoveq.32	d3[0], r0
     d64:	01110e1b 	tsteq	r1, fp, lsl lr
     d68:	17100612 			; <UNDEFINED> instruction: 0x17100612
     d6c:	24020000 	strcs	r0, [r2], #-0
     d70:	3e0b0b00 	vmlacc.f64	d0, d11, d0
     d74:	000e030b 	andeq	r0, lr, fp, lsl #6
     d78:	00240300 	eoreq	r0, r4, r0, lsl #6
     d7c:	0b3e0b0b 	bleq	f839b0 <load_address-0x9f07c650>
     d80:	00000803 	andeq	r0, r0, r3, lsl #16
     d84:	0b000f04 	bleq	499c <load_address-0x9fffb664>
     d88:	0500000b 	streq	r0, [r0, #-11]
     d8c:	0e030016 	mcreq	0, 0, r0, cr3, cr6, {0}
     d90:	0b3b0b3a 	bleq	ec3a80 <load_address-0x9f13c580>
     d94:	00001349 	andeq	r1, r0, r9, asr #6
     d98:	0b000f06 	bleq	49b8 <load_address-0x9fffb648>
     d9c:	0013490b 	andseq	r4, r3, fp, lsl #18
     da0:	01150700 	tsteq	r5, r0, lsl #14
     da4:	13011927 	movwne	r1, #6439	; 0x1927
     da8:	05080000 	streq	r0, [r8, #-0]
     dac:	00134900 	andseq	r4, r3, r0, lsl #18
     db0:	01130900 	tsteq	r3, r0, lsl #18
     db4:	0b0b0e03 	bleq	2c45c8 <load_address-0x9fd3ba38>
     db8:	0b3b0b3a 	bleq	ec3aa8 <load_address-0x9f13c558>
     dbc:	00001301 	andeq	r1, r0, r1, lsl #6
     dc0:	03000d0a 	movweq	r0, #3338	; 0xd0a
     dc4:	3b0b3a0e 	blcc	2cf604 <load_address-0x9fd309fc>
     dc8:	3813490b 	ldmdacc	r3, {r0, r1, r3, r8, fp, lr}
     dcc:	0b00000b 	bleq	e00 <load_address-0x9ffff200>
     dd0:	13490035 	movtne	r0, #36917	; 0x9035
     dd4:	260c0000 	strcs	r0, [ip], -r0
     dd8:	00134900 	andseq	r4, r3, r0, lsl #18
     ddc:	01010d00 	tsteq	r1, r0, lsl #26
     de0:	13011349 	movwne	r1, #4937	; 0x1349
     de4:	210e0000 	mrscs	r0, (UNDEF: 14)
     de8:	2f134900 	svccs	0x00134900
     dec:	0f00000b 	svceq	0x0000000b
     df0:	193f012e 	ldmdbne	pc!, {r1, r2, r3, r5, r8}	; <UNPREDICTABLE>
     df4:	0b3a0e03 	bleq	e84608 <load_address-0x9f17b9f8>
     df8:	1927053b 	stmdbne	r7!, {r0, r1, r3, r4, r5, r8, sl}
     dfc:	01111349 	tsteq	r1, r9, asr #6
     e00:	18400612 	stmdane	r0, {r1, r4, r9, sl}^
     e04:	01194296 			; <UNDEFINED> instruction: 0x01194296
     e08:	10000013 	andne	r0, r0, r3, lsl r0
     e0c:	0e030005 	cdpeq	0, 0, cr0, cr3, cr5, {0}
     e10:	053b0b3a 	ldreq	r0, [fp, #-2874]!	; 0xb3a
     e14:	18021349 	stmdane	r2, {r0, r3, r6, r8, r9, ip}
     e18:	34110000 	ldrcc	r0, [r1], #-0
     e1c:	3a0e0300 	bcc	381a24 <load_address-0x9fc7e5dc>
     e20:	49053b0b 	stmdbmi	r5, {r0, r1, r3, r8, r9, fp, ip, sp}
     e24:	00180213 	andseq	r0, r8, r3, lsl r2
     e28:	010b1200 	mrseq	r1, R11_fiq
     e2c:	06120111 			; <UNDEFINED> instruction: 0x06120111
     e30:	2e130000 	cdpcs	0, 1, cr0, cr3, cr0, {0}
     e34:	03193f01 	tsteq	r9, #1, 30
     e38:	3b0b3a0e 	blcc	2cf678 <load_address-0x9fd30988>
     e3c:	11192705 	tstne	r9, r5, lsl #14
     e40:	40061201 	andmi	r1, r6, r1, lsl #4
     e44:	19429618 	stmdbne	r2, {r3, r4, r9, sl, ip, pc}^
     e48:	00001301 	andeq	r1, r0, r1, lsl #6
     e4c:	3f012e14 	svccc	0x00012e14
     e50:	3a0e0319 	bcc	381abc <load_address-0x9fc7e544>
     e54:	27053b0b 	strcs	r3, [r5, -fp, lsl #22]
     e58:	11134919 	tstne	r3, r9, lsl r9
     e5c:	40061201 	andmi	r1, r6, r1, lsl #4
     e60:	19429718 	stmdbne	r2, {r3, r4, r8, r9, sl, ip, pc}^
     e64:	00001301 	andeq	r1, r0, r1, lsl #6
     e68:	3f002e15 	svccc	0x00002e15
     e6c:	3a0e0319 	bcc	381ad8 <load_address-0x9fc7e528>
     e70:	27053b0b 	strcs	r3, [r5, -fp, lsl #22]
     e74:	12011119 	andne	r1, r1, #1073741830	; 0x40000006
     e78:	96184006 	ldrls	r4, [r8], -r6
     e7c:	00001942 	andeq	r1, r0, r2, asr #18
     e80:	3f002e16 	svccc	0x00002e16
     e84:	3a0e0319 	bcc	381af0 <load_address-0x9fc7e510>
     e88:	27053b0b 	strcs	r3, [r5, -fp, lsl #22]
     e8c:	12011119 	andne	r1, r1, #1073741830	; 0x40000006
     e90:	97184006 	ldrls	r4, [r8, -r6]
     e94:	00001942 	andeq	r1, r0, r2, asr #18
     e98:	3f002e17 	svccc	0x00002e17
     e9c:	3a0e0319 	bcc	381b08 <load_address-0x9fc7e4f8>
     ea0:	27053b0b 	strcs	r3, [r5, -fp, lsl #22]
     ea4:	11134919 	tstne	r3, r9, lsl r9
     ea8:	40061201 	andmi	r1, r6, r1, lsl #4
     eac:	19429718 	stmdbne	r2, {r3, r4, r8, r9, sl, ip, pc}^
     eb0:	0b180000 	bleq	600eb8 <load_address-0x9f9ff148>
     eb4:	12011101 	andne	r1, r1, #1073741824	; 0x40000000
     eb8:	00130106 	andseq	r0, r3, r6, lsl #2
     ebc:	012e1900 	teqeq	lr, r0, lsl #18
     ec0:	0e03193f 	mcreq	9, 0, r1, cr3, cr15, {1}
     ec4:	053b0b3a 	ldreq	r0, [fp, #-2874]!	; 0xb3a
     ec8:	01111927 	tsteq	r1, r7, lsr #18
     ecc:	18400612 	stmdane	r0, {r1, r4, r9, sl}^
     ed0:	01194297 			; <UNDEFINED> instruction: 0x01194297
     ed4:	1a000013 	bne	f28 <load_address-0x9ffff0d8>
     ed8:	0e03012e 	adfeqsp	f0, f3, #0.5
     edc:	053b0b3a 	ldreq	r0, [fp, #-2874]!	; 0xb3a
     ee0:	01111927 	tsteq	r1, r7, lsr #18
     ee4:	18400612 	stmdane	r0, {r1, r4, r9, sl}^
     ee8:	01194296 			; <UNDEFINED> instruction: 0x01194296
     eec:	1b000013 	blne	f40 <load_address-0x9ffff0c0>
     ef0:	193f002e 	ldmdbne	pc!, {r1, r2, r3, r5}	; <UNPREDICTABLE>
     ef4:	0b3a0e03 	bleq	e84708 <load_address-0x9f17b8f8>
     ef8:	1927053b 	stmdbne	r7!, {r0, r1, r3, r4, r5, r8, sl}
     efc:	0000193c 	andeq	r1, r0, ip, lsr r9
     f00:	03002e1c 	movweq	r2, #3612	; 0xe1c
     f04:	3b0b3a0e 	blcc	2cf744 <load_address-0x9fd308bc>
     f08:	11192705 	tstne	r9, r5, lsl #14
     f0c:	40061201 	andmi	r1, r6, r1, lsl #4
     f10:	19429718 	stmdbne	r2, {r3, r4, r8, r9, sl, ip, pc}^
     f14:	2e1d0000 	cdpcs	0, 1, cr0, cr13, cr0, {0}
     f18:	3a0e0301 	bcc	381b24 <load_address-0x9fc7e4dc>
     f1c:	27053b0b 	strcs	r3, [r5, -fp, lsl #22]
     f20:	11134919 	tstne	r3, r9, lsl r9
     f24:	40061201 	andmi	r1, r6, r1, lsl #4
     f28:	19429618 	stmdbne	r2, {r3, r4, r9, sl, ip, pc}^
     f2c:	00001301 	andeq	r1, r0, r1, lsl #6
     f30:	03012e1e 	movweq	r2, #7710	; 0x1e1e
     f34:	3b0b3a0e 	blcc	2cf774 <load_address-0x9fd3088c>
     f38:	49192705 	ldmdbmi	r9, {r0, r2, r8, r9, sl, sp}
     f3c:	12011113 	andne	r1, r1, #-1073741820	; 0xc0000004
     f40:	97184006 	ldrls	r4, [r8, -r6]
     f44:	13011942 	movwne	r1, #6466	; 0x1942
     f48:	341f0000 	ldrcc	r0, [pc], #-0	; f50 <load_address-0x9ffff0b0>
     f4c:	3a0e0300 	bcc	381b54 <load_address-0x9fc7e4ac>
     f50:	490b3b0b 	stmdbmi	fp, {r0, r1, r3, r8, r9, fp, ip, sp}
     f54:	00180213 	andseq	r0, r8, r3, lsl r2
     f58:	00212000 	eoreq	r2, r1, r0
     f5c:	34210000 	strtcc	r0, [r1], #-0
     f60:	3a0e0300 	bcc	381b68 <load_address-0x9fc7e498>
     f64:	490b3b0b 	stmdbmi	fp, {r0, r1, r3, r8, r9, fp, ip, sp}
     f68:	3c193f13 	ldccc	15, cr3, [r9], {19}
     f6c:	22000019 	andcs	r0, r0, #25
     f70:	0e030034 	mcreq	0, 0, r0, cr3, cr4, {1}
     f74:	0b3b0b3a 	bleq	ec3c64 <load_address-0x9f13c39c>
     f78:	193f1349 	ldmdbne	pc!, {r0, r3, r6, r8, r9, ip}	; <UNPREDICTABLE>
     f7c:	00001802 	andeq	r1, r0, r2, lsl #16
     f80:	01110100 	tsteq	r1, r0, lsl #2
     f84:	0b130e25 	bleq	4c4820 <load_address-0x9fb3b7e0>
     f88:	0e1b0e03 	cdpeq	14, 1, cr0, cr11, cr3, {0}
     f8c:	06120111 			; <UNDEFINED> instruction: 0x06120111
     f90:	00001710 	andeq	r1, r0, r0, lsl r7
     f94:	0b002402 	bleq	9fa4 <load_address-0x9fff605c>
     f98:	030b3e0b 	movweq	r3, #48651	; 0xbe0b
     f9c:	03000008 	movweq	r0, #8
     fa0:	0b0b0024 	bleq	2c1038 <load_address-0x9fd3efc8>
     fa4:	0e030b3e 	vmoveq.16	d3[0], r0
     fa8:	0f040000 	svceq	0x00040000
     fac:	000b0b00 	andeq	r0, fp, r0, lsl #22
     fb0:	00160500 	andseq	r0, r6, r0, lsl #10
     fb4:	0b3a0e03 	bleq	e847c8 <load_address-0x9f17b838>
     fb8:	13490b3b 	movtne	r0, #39739	; 0x9b3b
     fbc:	13060000 	movwne	r0, #24576	; 0x6000
     fc0:	0b0e0301 	bleq	381bcc <load_address-0x9fc7e434>
     fc4:	3b0b3a0b 	blcc	2cf7f8 <load_address-0x9fd30808>
     fc8:	0013010b 	andseq	r0, r3, fp, lsl #2
     fcc:	000d0700 	andeq	r0, sp, r0, lsl #14
     fd0:	0b3a0e03 	bleq	e847e4 <load_address-0x9f17b81c>
     fd4:	13490b3b 	movtne	r0, #39739	; 0x9b3b
     fd8:	00000b38 	andeq	r0, r0, r8, lsr fp
     fdc:	0b000f08 	bleq	4c04 <load_address-0x9fffb3fc>
     fe0:	0013490b 	andseq	r4, r3, fp, lsl #18
     fe4:	00350900 	eorseq	r0, r5, r0, lsl #18
     fe8:	00001349 	andeq	r1, r0, r9, asr #6
     fec:	4900260a 	stmdbmi	r0, {r1, r3, r9, sl, sp}
     ff0:	0b000013 	bleq	1044 <load_address-0x9fffefbc>
     ff4:	19270115 	stmdbne	r7!, {r0, r2, r4, r8}
     ff8:	00001301 	andeq	r1, r0, r1, lsl #6
     ffc:	4900050c 	stmdbmi	r0, {r2, r3, r8, sl}
    1000:	0d000013 	stceq	0, cr0, [r0, #-76]	; 0xffffffb4
    1004:	193f012e 	ldmdbne	pc!, {r1, r2, r3, r5, r8}	; <UNPREDICTABLE>
    1008:	0b3a0e03 	bleq	e8481c <load_address-0x9f17b7e4>
    100c:	19270b3b 	stmdbne	r7!, {r0, r1, r3, r4, r5, r8, r9, fp}
    1010:	01111349 	tsteq	r1, r9, asr #6
    1014:	18400612 	stmdane	r0, {r1, r4, r9, sl}^
    1018:	01194296 			; <UNDEFINED> instruction: 0x01194296
    101c:	0e000013 	mcreq	0, 0, r0, cr0, cr3, {0}
    1020:	0e030034 	mcreq	0, 0, r0, cr3, cr4, {1}
    1024:	0b3b0b3a 	bleq	ec3d14 <load_address-0x9f13c2ec>
    1028:	18021349 	stmdane	r2, {r0, r3, r6, r8, r9, ip}
    102c:	050f0000 	streq	r0, [pc, #-0]	; 1034 <load_address-0x9fffefcc>
    1030:	3a0e0300 	bcc	381c38 <load_address-0x9fc7e3c8>
    1034:	490b3b0b 	stmdbmi	fp, {r0, r1, r3, r8, r9, fp, ip, sp}
    1038:	00180213 	andseq	r0, r8, r3, lsl r2
    103c:	012e1000 	teqeq	lr, r0
    1040:	0b3a0e03 	bleq	e84854 <load_address-0x9f17b7ac>
    1044:	1927053b 	stmdbne	r7!, {r0, r1, r3, r4, r5, r8, sl}
    1048:	06120111 			; <UNDEFINED> instruction: 0x06120111
    104c:	42961840 	addsmi	r1, r6, #64, 16	; 0x400000
    1050:	00130119 	andseq	r0, r3, r9, lsl r1
    1054:	00051100 	andeq	r1, r5, r0, lsl #2
    1058:	0b3a0e03 	bleq	e8486c <load_address-0x9f17b794>
    105c:	1349053b 	movtne	r0, #38203	; 0x953b
    1060:	00001802 	andeq	r1, r0, r2, lsl #16
    1064:	03003412 	movweq	r3, #1042	; 0x412
    1068:	3b0b3a0e 	blcc	2cf8a8 <load_address-0x9fd30758>
    106c:	02134905 	andseq	r4, r3, #81920	; 0x14000
    1070:	13000018 	movwne	r0, #24
    1074:	0e03012e 	adfeqsp	f0, f3, #0.5
    1078:	053b0b3a 	ldreq	r0, [fp, #-2874]!	; 0xb3a
    107c:	13491927 	movtne	r1, #39207	; 0x9927
    1080:	06120111 			; <UNDEFINED> instruction: 0x06120111
    1084:	42971840 	addsmi	r1, r7, #64, 16	; 0x400000
    1088:	00130119 	andseq	r0, r3, r9, lsl r1
    108c:	012e1400 	teqeq	lr, r0, lsl #8
    1090:	0b3a0e03 	bleq	e848a4 <load_address-0x9f17b75c>
    1094:	1927053b 	stmdbne	r7!, {r0, r1, r3, r4, r5, r8, sl}
    1098:	01111349 	tsteq	r1, r9, asr #6
    109c:	18400612 	stmdane	r0, {r1, r4, r9, sl}^
    10a0:	01194296 			; <UNDEFINED> instruction: 0x01194296
    10a4:	15000013 	strne	r0, [r0, #-19]
    10a8:	0e03002e 	cdpeq	0, 0, cr0, cr3, cr14, {1}
    10ac:	053b0b3a 	ldreq	r0, [fp, #-2874]!	; 0xb3a
    10b0:	01111927 	tsteq	r1, r7, lsr #18
    10b4:	18400612 	stmdane	r0, {r1, r4, r9, sl}^
    10b8:	00194296 	mulseq	r9, r6, r2
    10bc:	012e1600 	teqeq	lr, r0, lsl #12
    10c0:	0e03193f 	mcreq	9, 0, r1, cr3, cr15, {1}
    10c4:	053b0b3a 	ldreq	r0, [fp, #-2874]!	; 0xb3a
    10c8:	13491927 	movtne	r1, #39207	; 0x9927
    10cc:	06120111 			; <UNDEFINED> instruction: 0x06120111
    10d0:	42961840 	addsmi	r1, r6, #64, 16	; 0x400000
    10d4:	00130119 	andseq	r0, r3, r9, lsl r1
    10d8:	012e1700 	teqeq	lr, r0, lsl #14
    10dc:	0e03193f 	mcreq	9, 0, r1, cr3, cr15, {1}
    10e0:	053b0b3a 	ldreq	r0, [fp, #-2874]!	; 0xb3a
    10e4:	13491927 	movtne	r1, #39207	; 0x9927
    10e8:	06120111 			; <UNDEFINED> instruction: 0x06120111
    10ec:	42971840 	addsmi	r1, r7, #64, 16	; 0x400000
    10f0:	00130119 	andseq	r0, r3, r9, lsl r1
    10f4:	11010000 	mrsne	r0, (UNDEF: 1)
    10f8:	130e2501 	movwne	r2, #58625	; 0xe501
    10fc:	1b0e030b 	blne	381d30 <load_address-0x9fc7e2d0>
    1100:	1201110e 	andne	r1, r1, #-2147483645	; 0x80000003
    1104:	00171006 	andseq	r1, r7, r6
    1108:	00240200 	eoreq	r0, r4, r0, lsl #4
    110c:	0b3e0b0b 	bleq	f83d40 <load_address-0x9f07c2c0>
    1110:	00000e03 	andeq	r0, r0, r3, lsl #28
    1114:	0b002403 	bleq	a128 <load_address-0x9fff5ed8>
    1118:	030b3e0b 	movweq	r3, #48651	; 0xbe0b
    111c:	04000008 	streq	r0, [r0], #-8
    1120:	0b0b000f 	bleq	2c1164 <load_address-0x9fd3ee9c>
    1124:	00001349 	andeq	r1, r0, r9, asr #6
    1128:	03001605 	movweq	r1, #1541	; 0x605
    112c:	3b0b3a0e 	blcc	2cf96c <load_address-0x9fd30694>
    1130:	0013490b 	andseq	r4, r3, fp, lsl #18
    1134:	01150600 	tsteq	r5, r0, lsl #12
    1138:	13011927 	movwne	r1, #6439	; 0x1927
    113c:	05070000 	streq	r0, [r7, #-0]
    1140:	00134900 	andseq	r4, r3, r0, lsl #18
    1144:	000f0800 	andeq	r0, pc, r0, lsl #16
    1148:	00000b0b 	andeq	r0, r0, fp, lsl #22
    114c:	49003509 	stmdbmi	r0, {r0, r3, r8, sl, ip, sp}
    1150:	0a000013 	beq	11a4 <load_address-0x9fffee5c>
    1154:	0e030113 	mcreq	1, 0, r0, cr3, cr3, {0}
    1158:	0b3a0b0b 	bleq	e83d8c <load_address-0x9f17c274>
    115c:	13010b3b 	movwne	r0, #6971	; 0x1b3b
    1160:	0d0b0000 	stceq	0, cr0, [fp, #-0]
    1164:	3a0e0300 	bcc	381d6c <load_address-0x9fc7e294>
    1168:	490b3b0b 	stmdbmi	fp, {r0, r1, r3, r8, r9, fp, ip, sp}
    116c:	000b3813 	andeq	r3, fp, r3, lsl r8
    1170:	012e0c00 	teqeq	lr, r0, lsl #24
    1174:	0e03193f 	mcreq	9, 0, r1, cr3, cr15, {1}
    1178:	0b3b0b3a 	bleq	ec3e68 <load_address-0x9f13c198>
    117c:	13491927 	movtne	r1, #39207	; 0x9927
    1180:	06120111 			; <UNDEFINED> instruction: 0x06120111
    1184:	42971840 	addsmi	r1, r7, #64, 16	; 0x400000
    1188:	00130119 	andseq	r0, r3, r9, lsl r1
    118c:	00050d00 	andeq	r0, r5, r0, lsl #26
    1190:	0b3a0803 	bleq	e831a4 <load_address-0x9f17ce5c>
    1194:	13490b3b 	movtne	r0, #39739	; 0x9b3b
    1198:	00001802 	andeq	r1, r0, r2, lsl #16
    119c:	0300050e 	movweq	r0, #1294	; 0x50e
    11a0:	3b0b3a0e 	blcc	2cf9e0 <load_address-0x9fd30620>
    11a4:	0213490b 	andseq	r4, r3, #180224	; 0x2c000
    11a8:	0f000018 	svceq	0x00000018
    11ac:	0e030034 	mcreq	0, 0, r0, cr3, cr4, {1}
    11b0:	0b3b0b3a 	bleq	ec3ea0 <load_address-0x9f13c160>
    11b4:	18021349 	stmdane	r2, {r0, r3, r6, r8, r9, ip}
    11b8:	2e100000 	cdpcs	0, 1, cr0, cr0, cr0, {0}
    11bc:	03193f00 	tsteq	r9, #0, 30
    11c0:	3b0b3a0e 	blcc	2cfa00 <load_address-0x9fd30600>
    11c4:	1119270b 	tstne	r9, fp, lsl #14
    11c8:	40061201 	andmi	r1, r6, r1, lsl #4
    11cc:	19429718 	stmdbne	r2, {r3, r4, r8, r9, sl, ip, pc}^
    11d0:	2e110000 	cdpcs	0, 1, cr0, cr1, cr0, {0}
    11d4:	03193f00 	tsteq	r9, #0, 30
    11d8:	3b0b3a0e 	blcc	2cfa18 <load_address-0x9fd305e8>
    11dc:	1119270b 	tstne	r9, fp, lsl #14
    11e0:	40061201 	andmi	r1, r6, r1, lsl #4
    11e4:	19429618 	stmdbne	r2, {r3, r4, r9, sl, ip, pc}^
    11e8:	2e120000 	cdpcs	0, 1, cr0, cr2, cr0, {0}
    11ec:	03193f00 	tsteq	r9, #0, 30
    11f0:	3b0b3a0e 	blcc	2cfa30 <load_address-0x9fd305d0>
    11f4:	11192705 	tstne	r9, r5, lsl #14
    11f8:	40061201 	andmi	r1, r6, r1, lsl #4
    11fc:	19429718 	stmdbne	r2, {r3, r4, r8, r9, sl, ip, pc}^
    1200:	2e130000 	cdpcs	0, 1, cr0, cr3, cr0, {0}
    1204:	03193f00 	tsteq	r9, #0, 30
    1208:	3b0b3a0e 	blcc	2cfa48 <load_address-0x9fd305b8>
    120c:	11192705 	tstne	r9, r5, lsl #14
    1210:	40061201 	andmi	r1, r6, r1, lsl #4
    1214:	19429618 	stmdbne	r2, {r3, r4, r9, sl, ip, pc}^
    1218:	2e140000 	cdpcs	0, 1, cr0, cr4, cr0, {0}
    121c:	03193f01 	tsteq	r9, #1, 30
    1220:	3b0b3a0e 	blcc	2cfa60 <load_address-0x9fd305a0>
    1224:	12011105 	andne	r1, r1, #1073741825	; 0x40000001
    1228:	96184006 	ldrls	r4, [r8], -r6
    122c:	13011942 	movwne	r1, #6466	; 0x1942
    1230:	34150000 	ldrcc	r0, [r5], #-0
    1234:	3a0e0300 	bcc	381e3c <load_address-0x9fc7e1c4>
    1238:	49053b0b 	stmdbmi	r5, {r0, r1, r3, r8, r9, fp, ip, sp}
    123c:	00180213 	andseq	r0, r8, r3, lsl r2
    1240:	00341600 	eorseq	r1, r4, r0, lsl #12
    1244:	0b3a0803 	bleq	e83258 <load_address-0x9f17cda8>
    1248:	1349053b 	movtne	r0, #38203	; 0x953b
    124c:	00001802 	andeq	r1, r0, r2, lsl #16
    1250:	3f002e17 	svccc	0x00002e17
    1254:	3a0e0319 	bcc	381ec0 <load_address-0x9fc7e140>
    1258:	11053b0b 	tstne	r5, fp, lsl #22
    125c:	40061201 	andmi	r1, r6, r1, lsl #4
    1260:	19429618 	stmdbne	r2, {r3, r4, r9, sl, ip, pc}^
    1264:	2e180000 	cdpcs	0, 1, cr0, cr8, cr0, {0}
    1268:	03193f00 	tsteq	r9, #0, 30
    126c:	3b0b3a0e 	blcc	2cfaac <load_address-0x9fd30554>
    1270:	49192705 	ldmdbmi	r9, {r0, r2, r8, r9, sl, sp}
    1274:	12011113 	andne	r1, r1, #-1073741820	; 0xc0000004
    1278:	96184006 	ldrls	r4, [r8], -r6
    127c:	00001942 	andeq	r1, r0, r2, asr #18
    1280:	3f012e19 	svccc	0x00012e19
    1284:	3a0e0319 	bcc	381ef0 <load_address-0x9fc7e110>
    1288:	27053b0b 	strcs	r3, [r5, -fp, lsl #22]
    128c:	12011119 	andne	r1, r1, #1073741830	; 0x40000006
    1290:	96184006 	ldrls	r4, [r8], -r6
    1294:	13011942 	movwne	r1, #6466	; 0x1942
    1298:	051a0000 	ldreq	r0, [sl, #-0]
    129c:	3a0e0300 	bcc	381ea4 <load_address-0x9fc7e15c>
    12a0:	49053b0b 	stmdbmi	r5, {r0, r1, r3, r8, r9, fp, ip, sp}
    12a4:	00180213 	andseq	r0, r8, r3, lsl r2
    12a8:	012e1b00 	teqeq	lr, r0, lsl #22
    12ac:	0e03193f 	mcreq	9, 0, r1, cr3, cr15, {1}
    12b0:	053b0b3a 	ldreq	r0, [fp, #-2874]!	; 0xb3a
    12b4:	06120111 			; <UNDEFINED> instruction: 0x06120111
    12b8:	42971840 	addsmi	r1, r7, #64, 16	; 0x400000
    12bc:	00130119 	andseq	r0, r3, r9, lsl r1
    12c0:	010b1c00 	tsteq	fp, r0, lsl #24
    12c4:	06120111 			; <UNDEFINED> instruction: 0x06120111
    12c8:	2e1d0000 	cdpcs	0, 1, cr0, cr13, cr0, {0}
    12cc:	3a0e0300 	bcc	381ed4 <load_address-0x9fc7e12c>
    12d0:	27053b0b 	strcs	r3, [r5, -fp, lsl #22]
    12d4:	12011119 	andne	r1, r1, #1073741830	; 0x40000006
    12d8:	96184006 	ldrls	r4, [r8], -r6
    12dc:	00001942 	andeq	r1, r0, r2, asr #18
    12e0:	3f012e1e 	svccc	0x00012e1e
    12e4:	3a0e0319 	bcc	381f50 <load_address-0x9fc7e0b0>
    12e8:	27053b0b 	strcs	r3, [r5, -fp, lsl #22]
    12ec:	12011119 	andne	r1, r1, #1073741830	; 0x40000006
    12f0:	97184006 	ldrls	r4, [r8, -r6]
    12f4:	13011942 	movwne	r1, #6466	; 0x1942
    12f8:	011f0000 	tsteq	pc, r0
    12fc:	01134901 	tsteq	r3, r1, lsl #18
    1300:	20000013 	andcs	r0, r0, r3, lsl r0
    1304:	13490021 	movtne	r0, #36897	; 0x9021
    1308:	00000b2f 	andeq	r0, r0, pc, lsr #22
    130c:	3f012e21 	svccc	0x00012e21
    1310:	3a0e0319 	bcc	381f7c <load_address-0x9fc7e084>
    1314:	27053b0b 	strcs	r3, [r5, -fp, lsl #22]
    1318:	11134919 	tstne	r3, r9, lsl r9
    131c:	40061201 	andmi	r1, r6, r1, lsl #4
    1320:	19429718 	stmdbne	r2, {r3, r4, r8, r9, sl, ip, pc}^
    1324:	00001301 	andeq	r1, r0, r1, lsl #6
    1328:	3f002e22 	svccc	0x00002e22
    132c:	3a0e0319 	bcc	381f98 <load_address-0x9fc7e068>
    1330:	27053b0b 	strcs	r3, [r5, -fp, lsl #22]
    1334:	3c134919 	ldccc	9, cr4, [r3], {25}
    1338:	23000019 	movwcs	r0, #25
    133c:	00000021 	andeq	r0, r0, r1, lsr #32
    1340:	03003424 	movweq	r3, #1060	; 0x424
    1344:	3b0b3a0e 	blcc	2cfb84 <load_address-0x9fd3047c>
    1348:	3f13490b 	svccc	0x0013490b
    134c:	00193c19 	andseq	r3, r9, r9, lsl ip
    1350:	00342500 	eorseq	r2, r4, r0, lsl #10
    1354:	0b3a0e03 	bleq	e84b68 <load_address-0x9f17b498>
    1358:	13490b3b 	movtne	r0, #39739	; 0x9b3b
    135c:	1802193f 	stmdane	r2, {r0, r1, r2, r3, r4, r5, r8, fp, ip}
    1360:	26260000 	strtcs	r0, [r6], -r0
    1364:	00134900 	andseq	r4, r3, r0, lsl #18
    1368:	11010000 	mrsne	r0, (UNDEF: 1)
    136c:	130e2501 	movwne	r2, #58625	; 0xe501
    1370:	1b0e030b 	blne	381fa4 <load_address-0x9fc7e05c>
    1374:	1201110e 	andne	r1, r1, #-2147483645	; 0x80000003
    1378:	00171006 	andseq	r1, r7, r6
    137c:	00160200 	andseq	r0, r6, r0, lsl #4
    1380:	0b3a0e03 	bleq	e84b94 <load_address-0x9f17b46c>
    1384:	13490b3b 	movtne	r0, #39739	; 0x9b3b
    1388:	24030000 	strcs	r0, [r3], #-0
    138c:	3e0b0b00 	vmlacc.f64	d0, d11, d0
    1390:	000e030b 	andeq	r0, lr, fp, lsl #6
    1394:	00240400 	eoreq	r0, r4, r0, lsl #8
    1398:	0b3e0b0b 	bleq	f83fcc <load_address-0x9f07c034>
    139c:	00000803 	andeq	r0, r0, r3, lsl #16
    13a0:	0b000f05 	bleq	4fbc <load_address-0x9fffb044>
    13a4:	0600000b 	streq	r0, [r0], -fp
    13a8:	0e030117 	mcreq	1, 0, r0, cr3, cr7, {0}
    13ac:	0b3a060b 	bleq	e82be0 <load_address-0x9f17d420>
    13b0:	13010b3b 	movwne	r0, #6971	; 0x1b3b
    13b4:	0d070000 	stceq	0, cr0, [r7, #-0]
    13b8:	3a0e0300 	bcc	381fc0 <load_address-0x9fc7e040>
    13bc:	490b3b0b 	stmdbmi	fp, {r0, r1, r3, r8, r9, fp, ip, sp}
    13c0:	08000013 	stmdaeq	r0, {r0, r1, r4}
    13c4:	13490035 	movtne	r0, #36917	; 0x9035
    13c8:	01090000 	mrseq	r0, (UNDEF: 9)
    13cc:	01134901 	tsteq	r3, r1, lsl #18
    13d0:	0a000013 	beq	1424 <load_address-0x9fffebdc>
    13d4:	13490021 	movtne	r0, #36897	; 0x9021
    13d8:	0000062f 	andeq	r0, r0, pc, lsr #12
    13dc:	3f012e0b 	svccc	0x00012e0b
    13e0:	3a0e0319 	bcc	38204c <load_address-0x9fc7dfb4>
    13e4:	270b3b0b 	strcs	r3, [fp, -fp, lsl #22]
    13e8:	11134919 	tstne	r3, r9, lsl r9
    13ec:	40061201 	andmi	r1, r6, r1, lsl #4
    13f0:	19429618 	stmdbne	r2, {r3, r4, r9, sl, ip, pc}^
    13f4:	00001301 	andeq	r1, r0, r1, lsl #6
    13f8:	0300050c 	movweq	r0, #1292	; 0x50c
    13fc:	3b0b3a0e 	blcc	2cfc3c <load_address-0x9fd303c4>
    1400:	0213490b 	andseq	r4, r3, #180224	; 0x2c000
    1404:	0d000018 	stceq	0, cr0, [r0, #-96]	; 0xffffffa0
    1408:	0e030034 	mcreq	0, 0, r0, cr3, cr4, {1}
    140c:	0b3b0b3a 	bleq	ec40fc <load_address-0x9f13bf04>
    1410:	18021349 	stmdane	r2, {r0, r3, r6, r8, r9, ip}
    1414:	0b0e0000 	bleq	38141c <load_address-0x9fc7ebe4>
    1418:	12011101 	andne	r1, r1, #1073741824	; 0x40000000
    141c:	0f000006 	svceq	0x00000006
    1420:	193f002e 	ldmdbne	pc!, {r1, r2, r3, r5}	; <UNPREDICTABLE>
    1424:	0b3a0e03 	bleq	e84c38 <load_address-0x9f17b3c8>
    1428:	19270b3b 	stmdbne	r7!, {r0, r1, r3, r4, r5, r8, r9, fp}
    142c:	0000193c 	andeq	r1, r0, ip, lsr r9
    1430:	3f012e10 	svccc	0x00012e10
    1434:	3a0e0319 	bcc	3820a0 <load_address-0x9fc7df60>
    1438:	270b3b0b 	strcs	r3, [fp, -fp, lsl #22]
    143c:	12011119 	andne	r1, r1, #1073741830	; 0x40000006
    1440:	97184006 	ldrls	r4, [r8, -r6]
    1444:	13011942 	movwne	r1, #6466	; 0x1942
    1448:	05110000 	ldreq	r0, [r1, #-0]
    144c:	3a080300 	bcc	202054 <load_address-0x9fdfdfac>
    1450:	490b3b0b 	stmdbmi	fp, {r0, r1, r3, r8, r9, fp, ip, sp}
    1454:	00180213 	andseq	r0, r8, r3, lsl r2
    1458:	002e1200 	eoreq	r1, lr, r0, lsl #4
    145c:	0e03193f 	mcreq	9, 0, r1, cr3, cr15, {1}
    1460:	0b3b0b3a 	bleq	ec4150 <load_address-0x9f13beb0>
    1464:	01111927 	tsteq	r1, r7, lsr #18
    1468:	18400612 	stmdane	r0, {r1, r4, r9, sl}^
    146c:	00194297 	mulseq	r9, r7, r2
    1470:	002e1300 	eoreq	r1, lr, r0, lsl #6
    1474:	0e03193f 	mcreq	9, 0, r1, cr3, cr15, {1}
    1478:	0b3b0b3a 	bleq	ec4168 <load_address-0x9f13be98>
    147c:	13491927 	movtne	r1, #39207	; 0x9927
    1480:	06120111 			; <UNDEFINED> instruction: 0x06120111
    1484:	42971840 	addsmi	r1, r7, #64, 16	; 0x400000
    1488:	00000019 	andeq	r0, r0, r9, lsl r0

Disassembly of section .debug_aranges:

00000000 <.debug_aranges>:
   0:	0000001c 	andeq	r0, r0, ip, lsl r0
   4:	00000002 	andeq	r0, r0, r2
   8:	00040000 	andeq	r0, r4, r0
   c:	00000000 	andeq	r0, r0, r0
  10:	a0000080 	andge	r0, r0, r0, lsl #1
  14:	00000654 	andeq	r0, r0, r4, asr r6
	...
  20:	0000001c 	andeq	r0, r0, ip, lsl r0
  24:	04e30002 	strbteq	r0, [r3], #2
  28:	00040000 	andeq	r0, r4, r0
  2c:	00000000 	andeq	r0, r0, r0
  30:	a00006d4 	ldrdge	r0, [r0], -r4
  34:	000010cc 	andeq	r1, r0, ip, asr #1
	...
  40:	0000001c 	andeq	r0, r0, ip, lsl r0
  44:	11f50002 	mvnsne	r0, r2
  48:	00040000 	andeq	r0, r4, r0
  4c:	00000000 	andeq	r0, r0, r0
  50:	a00017a0 	andge	r1, r0, r0, lsr #15
  54:	000002f8 	strdeq	r0, [r0], -r8
	...
  60:	0000001c 	andeq	r0, r0, ip, lsl r0
  64:	15130002 	ldrne	r0, [r3, #-2]
  68:	00040000 	andeq	r0, r4, r0
  6c:	00000000 	andeq	r0, r0, r0
  70:	a0001a98 	mulge	r0, r8, sl
  74:	000001bc 			; <UNDEFINED> instruction: 0x000001bc
	...
  80:	0000001c 	andeq	r0, r0, ip, lsl r0
  84:	16e20002 	strbtne	r0, [r2], r2
  88:	00040000 	andeq	r0, r4, r0
  8c:	00000000 	andeq	r0, r0, r0
  90:	a0001c54 	andge	r1, r0, r4, asr ip
  94:	00000420 	andeq	r0, r0, r0, lsr #8
	...
  a0:	0000001c 	andeq	r0, r0, ip, lsl r0
  a4:	19bb0002 	ldmibne	fp!, {r1}
  a8:	00040000 	andeq	r0, r4, r0
  ac:	00000000 	andeq	r0, r0, r0
  b0:	a0002074 	andge	r2, r0, r4, ror r0
  b4:	00000280 	andeq	r0, r0, r0, lsl #5
	...
  c0:	0000001c 	andeq	r0, r0, ip, lsl r0
  c4:	1c270002 	stcne	0, cr0, [r7], #-8
  c8:	00040000 	andeq	r0, r4, r0
  cc:	00000000 	andeq	r0, r0, r0
  d0:	a00022f4 	strdge	r2, [r0], -r4
  d4:	00001da0 	andeq	r1, r0, r0, lsr #27
	...
  e0:	0000001c 	andeq	r0, r0, ip, lsl r0
  e4:	28410002 	stmdacs	r1, {r1}^
  e8:	00040000 	andeq	r0, r4, r0
  ec:	00000000 	andeq	r0, r0, r0
  f0:	a0004094 	mulge	r0, r4, r0
  f4:	00000894 	muleq	r0, r4, r8
	...
 100:	0000001c 	andeq	r0, r0, ip, lsl r0
 104:	2cad0002 	stccs	0, cr0, [sp], #8
 108:	00040000 	andeq	r0, r4, r0
 10c:	00000000 	andeq	r0, r0, r0
 110:	a0004928 	andge	r4, r0, r8, lsr #18
 114:	0000024c 	andeq	r0, r0, ip, asr #4
	...
 120:	0000001c 	andeq	r0, r0, ip, lsl r0
 124:	2f300002 	svccs	0x00300002
 128:	00040000 	andeq	r0, r4, r0
 12c:	00000000 	andeq	r0, r0, r0
 130:	a0004b74 	andge	r4, r0, r4, ror fp
 134:	00000ecc 	andeq	r0, r0, ip, asr #29
	...
 140:	0000001c 	andeq	r0, r0, ip, lsl r0
 144:	37400002 	strbcc	r0, [r0, -r2]
 148:	00040000 	andeq	r0, r4, r0
 14c:	00000000 	andeq	r0, r0, r0
 150:	a0005a40 	andge	r5, r0, r0, asr #20
 154:	0000238c 	andeq	r2, r0, ip, lsl #7
	...
 160:	0000001c 	andeq	r0, r0, ip, lsl r0
 164:	46150002 	ldrmi	r0, [r5], -r2
 168:	00040000 	andeq	r0, r4, r0
 16c:	00000000 	andeq	r0, r0, r0
 170:	a0007dcc 	andge	r7, r0, ip, asr #27
 174:	000009ec 	andeq	r0, r0, ip, ror #19
	...
 180:	0000001c 	andeq	r0, r0, ip, lsl r0
 184:	4cf10002 	ldclmi	0, cr0, [r1], #8
 188:	00040000 	andeq	r0, r4, r0
 18c:	00000000 	andeq	r0, r0, r0
 190:	a00087b8 			; <UNDEFINED> instruction: 0xa00087b8
 194:	00000ba0 	andeq	r0, r0, r0, lsr #23
	...
 1a0:	0000001c 	andeq	r0, r0, ip, lsl r0
 1a4:	53fd0002 	mvnspl	r0, #2
 1a8:	00040000 	andeq	r0, r4, r0
 1ac:	00000000 	andeq	r0, r0, r0
 1b0:	a0009358 	andge	r9, r0, r8, asr r3
 1b4:	0000013c 	andeq	r0, r0, ip, lsr r1
	...

Disassembly of section .debug_line:

00000000 <.debug_line>:
       0:	00000168 	andeq	r0, r0, r8, ror #2
       4:	00410002 	subeq	r0, r1, r2
       8:	01020000 	mrseq	r0, (UNDEF: 2)
       c:	000d0efb 	strdeq	r0, [sp], -fp
      10:	01010101 	tsteq	r1, r1, lsl #2
      14:	01000000 	mrseq	r0, (UNDEF: 0)
      18:	44010000 	strmi	r0, [r1], #-0
      1c:	006f6d65 	rsbeq	r6, pc, r5, ror #26
      20:	6c636e69 	stclvs	14, cr6, [r3], #-420	; 0xfffffe5c
      24:	00656475 	rsbeq	r6, r5, r5, ror r4
      28:	69616d00 	stmdbvs	r1!, {r8, sl, fp, sp, lr}^
      2c:	00632e6e 	rsbeq	r2, r3, lr, ror #28
      30:	69000001 	stmdbvs	r0, {r0}
      34:	6b742d6f 	blvs	1d0b5f8 <load_address-0x9e2f4a08>
      38:	00682e31 	rsbeq	r2, r8, r1, lsr lr
      3c:	73000002 	movwvc	r0, #2
      40:	6f696474 	svcvs	0x00696474
      44:	0200682e 	andeq	r6, r0, #3014656	; 0x2e0000
      48:	00000000 	andeq	r0, r0, r0
      4c:	00800205 	addeq	r0, r0, r5, lsl #4
      50:	ee03a000 	cdp	0, 0, cr10, cr3, cr0, {0}
      54:	83830100 	orrhi	r0, r3, #0, 2
      58:	083d089f 	ldmdaeq	sp!, {r0, r1, r2, r3, r4, r7, fp}
      5c:	0859083d 	ldmdaeq	r9, {r0, r2, r3, r4, r5, fp}^
      60:	0809033d 	stmdaeq	r9, {r0, r2, r3, r4, r5, r8, r9}
      64:	40088358 	andmi	r8, r8, r8, asr r3
      68:	85864c4b 	strhi	r4, [r6, #3147]	; 0xc4b
      6c:	67676767 	strbvs	r6, [r7, -r7, ror #14]!
      70:	679f6967 	ldrvs	r6, [pc, r7, ror #18]
      74:	0200689f 	andeq	r6, r0, #10420224	; 0x9f0000
      78:	00680204 	rsbeq	r0, r8, r4, lsl #4
      7c:	9c020402 	cfstrsls	mvf0, [r2], {2}
      80:	01040200 	mrseq	r0, R12_usr
      84:	6a066606 	bvs	1998a4 <load_address-0x9fe6675c>
      88:	152202a2 	strne	r0, [r2, #-674]!	; 0x2a2
      8c:	02132202 	andseq	r2, r3, #536870912	; 0x20000000
      90:	22021322 	andcs	r1, r2, #-2013265920	; 0x88000000
      94:	082f3417 	stmdaeq	pc!, {r0, r1, r2, r4, sl, ip, sp}	; <UNPREDICTABLE>
      98:	13341394 	teqne	r4, #148, 6	; 0x50000002
      9c:	004c6732 	subeq	r6, ip, r2, lsr r7
      a0:	4d010402 	cfstrsmi	mvf0, [r1, #-8]
      a4:	01040200 	mrseq	r0, R12_usr
      a8:	04020047 	streq	r0, [r2], #-71	; 0x47
      ac:	67316a01 	ldrvs	r6, [r1, -r1, lsl #20]!
      b0:	0200674b 	andeq	r6, r0, #19660800	; 0x12c0000
      b4:	004c0104 	subeq	r0, ip, r4, lsl #2
      b8:	a0010402 	andge	r0, r1, r2, lsl #8
      bc:	01040200 	mrseq	r0, R12_usr
      c0:	0402004b 	streq	r0, [r2], #-75	; 0x4b
      c4:	0200a001 	andeq	sl, r0, #1
      c8:	79030104 	stmdbvc	r3, {r2, r8}
      cc:	0402004a 	streq	r0, [r2], #-74	; 0x4a
      d0:	67316e01 	ldrvs	r6, [r1, -r1, lsl #28]!
      d4:	0200674b 	andeq	r6, r0, #19660800	; 0x12c0000
      d8:	004c0104 	subeq	r0, ip, r4, lsl #2
      dc:	a0010402 	andge	r0, r1, r2, lsl #8
      e0:	01040200 	mrseq	r0, R12_usr
      e4:	0402004b 	streq	r0, [r2], #-75	; 0x4b
      e8:	0200a001 	andeq	sl, r0, #1
      ec:	79030104 	stmdbvc	r3, {r2, r8}
      f0:	0402004a 	streq	r0, [r2], #-74	; 0x4a
      f4:	67326e01 	ldrvs	r6, [r2, -r1, lsl #28]!
      f8:	0402004b 	streq	r0, [r2], #-75	; 0x4b
      fc:	02006901 	andeq	r6, r0, #16384	; 0x4000
     100:	00a00104 	adceq	r0, r0, r4, lsl #2
     104:	4b010402 	blmi	41114 <load_address-0x9ffbeeec>
     108:	01040200 	mrseq	r0, R12_usr
     10c:	040200a0 	streq	r0, [r2], #-160	; 0xa0
     110:	67314b01 	ldrvs	r4, [r1, -r1, lsl #22]!
     114:	0402004b 	streq	r0, [r2], #-75	; 0x4b
     118:	02006901 	andeq	r6, r0, #16384	; 0x4000
     11c:	00a00104 	adceq	r0, r0, r4, lsl #2
     120:	4b010402 	blmi	41130 <load_address-0x9ffbeed0>
     124:	01040200 	mrseq	r0, R12_usr
     128:	040200a0 	streq	r0, [r2], #-160	; 0xa0
     12c:	67314b01 	ldrvs	r4, [r1, -r1, lsl #22]!
     130:	0402004b 	streq	r0, [r2], #-75	; 0x4b
     134:	02006901 	andeq	r6, r0, #16384	; 0x4000
     138:	00a10104 	adceq	r0, r1, r4, lsl #2
     13c:	4b010402 	blmi	4114c <load_address-0x9ffbeeb4>
     140:	01040200 	mrseq	r0, R12_usr
     144:	040200a1 	streq	r0, [r2], #-161	; 0xa1
     148:	4b314b01 	blmi	c52d54 <load_address-0x9f3ad2ac>
     14c:	4e4b4a4e 	vmlsmi.f32	s9, s22, s28
     150:	04020033 	streq	r0, [r2], #-51	; 0x33
     154:	02006702 	andeq	r6, r0, #524288	; 0x80000
     158:	73080204 	movwvc	r0, #33284	; 0x8204
     15c:	01040200 	mrseq	r0, R12_usr
     160:	6b066606 	blvs	199980 <load_address-0x9fe66680>
     164:	022f1386 	eoreq	r1, pc, #402653186	; 0x18000002
     168:	01010002 	tsteq	r1, r2
     16c:	0000018a 	andeq	r0, r0, sl, lsl #3
     170:	00410002 	subeq	r0, r1, r2
     174:	01020000 	mrseq	r0, (UNDEF: 2)
     178:	000d0efb 	strdeq	r0, [sp], -fp
     17c:	01010101 	tsteq	r1, r1, lsl #2
     180:	01000000 	mrseq	r0, (UNDEF: 0)
     184:	44010000 	strmi	r0, [r1], #-0
     188:	006f6d65 	rsbeq	r6, pc, r5, ror #26
     18c:	6c636e69 	stclvs	14, cr6, [r3], #-420	; 0xfffffe5c
     190:	00656475 	rsbeq	r6, r5, r5, ror r4
     194:	63696700 	cmnvs	r9, #0, 14
     198:	0100632e 	tsteq	r0, lr, lsr #6
     19c:	69670000 	stmdbvs	r7!, {}^	; <UNPREDICTABLE>
     1a0:	79742d63 	ldmdbvc	r4!, {r0, r1, r5, r6, r8, sl, fp, sp}^
     1a4:	2e736570 	mrccs	5, 3, r6, cr3, cr0, {3}
     1a8:	00020068 	andeq	r0, r2, r8, rrx
     1ac:	63696700 	cmnvs	r9, #0, 14
     1b0:	0200682e 	andeq	r6, r0, #3014656	; 0x2e0000
     1b4:	00000000 	andeq	r0, r0, r0
     1b8:	06d40205 	ldrbeq	r0, [r4], r5, lsl #4
     1bc:	6714a000 	ldrvs	sl, [r4, -r0]
     1c0:	4b4b4b67 	blmi	12d2f64 <load_address-0x9ed2d09c>
     1c4:	2f832f6c 	svccs	0x00832f6c
     1c8:	672f832f 	strvs	r8, [pc, -pc, lsr #6]!
     1cc:	832f4b9f 	teqhi	pc, #162816	; 0x27c00
     1d0:	4b9f674d 	blmi	fe7d9f0c <stack_irq+0x5dfbd1b4>
     1d4:	674d832f 	strbvs	r8, [sp, -pc, lsr #6]
     1d8:	832f4b9f 	teqhi	pc, #162816	; 0x27c00
     1dc:	6b67674d 	blvs	19d9f18 <load_address-0x9e6260e8>
     1e0:	4b3d0883 	blmi	f423f4 <load_address-0x9f0bdc0c>
     1e4:	836b6767 	cmnhi	fp, #27000832	; 0x19c0000
     1e8:	834b3d08 	movthi	r3, #48392	; 0xbd08
     1ec:	834b3d08 	movthi	r3, #48392	; 0xbd08
     1f0:	674b3d08 	strbvs	r3, [fp, -r8, lsl #26]
     1f4:	f36767f3 	vaba.u32	q11, <illegal reg q11.5>, <illegal reg q9.5>
     1f8:	69676768 	stmdbvs	r7!, {r3, r5, r6, r8, r9, sl, sp, lr}^
     1fc:	3d08bbf3 	vstrcc	d11, [r8, #-972]	; 0xfffffc34
     200:	6967674b 	stmdbvs	r7!, {r0, r1, r3, r6, r8, r9, sl, sp, lr}^
     204:	3d08bbf3 	vstrcc	d11, [r8, #-972]	; 0xfffffc34
     208:	3d08834b 	stccc	3, cr8, [r8, #-300]	; 0xfffffed4
     20c:	3d08834b 	stccc	3, cr8, [r8, #-300]	; 0xfffffed4
     210:	67f3674b 	ldrbvs	r6, [r3, fp, asr #14]!
     214:	6769f367 	strbvs	pc, [r9, -r7, ror #6]!	; <UNPREDICTABLE>
     218:	bbf36967 	bllt	ffcda7bc <stack_irq+0x5f4bda64>
     21c:	674b3e08 	strbvs	r3, [fp, -r8, lsl #28]
     220:	bbf36967 	bllt	ffcda7c4 <stack_irq+0x5f4bda6c>
     224:	834b3d08 	movthi	r3, #48392	; 0xbd08
     228:	834b3d08 	movthi	r3, #48392	; 0xbd08
     22c:	674b3d08 	strbvs	r3, [fp, -r8, lsl #26]
     230:	f36767f3 	vaba.u32	q11, <illegal reg q11.5>, <illegal reg q9.5>
     234:	83678369 	cmnhi	r7, #-1543503871	; 0xa4000001
     238:	d7a084f3 			; <UNDEFINED> instruction: 0xd7a084f3
     23c:	834b3d08 	movthi	r3, #48392	; 0xbd08
     240:	674b3d08 	strbvs	r3, [fp, -r8, lsl #26]
     244:	678369f3 			; <UNDEFINED> instruction: 0x678369f3
     248:	08f3f483 	ldmeq	r3!, {r0, r1, r7, sl, ip, sp, lr, pc}^
     24c:	67834b3d 			; <UNDEFINED> instruction: 0x67834b3d
     250:	2108f483 	smlabbcs	r8, r3, r4, pc	; <UNPREDICTABLE>
     254:	834b3d08 	movthi	r3, #48392	; 0xbd08
     258:	674b3d08 	strbvs	r3, [fp, -r8, lsl #26]
     25c:	088369f3 	stmeq	r3, {r0, r1, r4, r5, r6, r7, r8, fp, sp, lr}
     260:	f3674b3d 			; <UNDEFINED> instruction: 0xf3674b3d
     264:	9ff38369 	svcls	0x00f38369
     268:	9fd7834b 	svcls	0x00d7834b
     26c:	4b9f674b 	blmi	fe7d9fa0 <stack_irq+0x5dfbd248>
     270:	0903832f 	stmdbeq	r3, {r0, r1, r2, r3, r5, r8, r9, pc}
     274:	3d08834a 	stccc	3, cr8, [r8, #-296]	; 0xfffffed8
     278:	3d08834b 	stccc	3, cr8, [r8, #-300]	; 0xfffffed4
     27c:	67f3674b 	ldrbvs	r6, [r3, fp, asr #14]!
     280:	2f6cf367 	svccs	0x006cf367
     284:	9f674b83 	svcls	0x00674b83
     288:	674b4b4b 	strbvs	r4, [fp, -fp, asr #22]
     28c:	4b4b4b4b 	blmi	12d2fc0 <load_address-0x9ed2d040>
     290:	834b4b67 	movthi	r4, #47975	; 0xbb67
     294:	0402004b 	streq	r0, [r2], #-75	; 0x4b
     298:	06660601 	strbteq	r0, [r6], -r1, lsl #12
     29c:	4d4b6783 	stclmi	7, cr6, [fp, #-524]	; 0xfffffdf4
     2a0:	674b832f 	strbvs	r8, [fp, -pc, lsr #6]
     2a4:	83674b9f 	cmnhi	r7, #162816	; 0x27c00
     2a8:	4b832f4c 	blmi	fe0cbfe0 <stack_irq+0x5d8af288>
     2ac:	674b9f67 	strbvs	r9, [fp, -r7, ror #30]
     2b0:	832f4c83 	teqhi	pc, #33536	; 0x8300
     2b4:	9f83674b 	svcls	0x0083674b
     2b8:	9f67684b 	svcls	0x0067684b
     2bc:	0067834b 	rsbeq	r8, r7, fp, asr #6
     2c0:	06010402 	streq	r0, [r1], -r2, lsl #8
     2c4:	4bbb0666 	blmi	feec1c64 <stack_irq+0x5e6a4f0c>
     2c8:	4b832f4c 	blmi	fe0cc000 <stack_irq+0x5d8af2a8>
     2cc:	2f4c672f 	svccs	0x004c672f
     2d0:	4b674b83 	blmi	19d30e4 <load_address-0x9e62cf1c>
     2d4:	0883a09f 	stmeq	r3, {r0, r1, r2, r3, r4, r7, sp, pc}
     2d8:	f3674b3d 			; <UNDEFINED> instruction: 0xf3674b3d
     2dc:	3d088368 	stccc	3, cr8, [r8, #-416]	; 0xfffffe60
     2e0:	68f3674b 	ldmvs	r3!, {r0, r1, r3, r6, r8, r9, sl, sp, lr}^
     2e4:	674c832f 	strbvs	r8, [ip, -pc, lsr #6]
     2e8:	67834b9f 			; <UNDEFINED> instruction: 0x67834b9f
     2ec:	01040200 	mrseq	r0, R12_usr
     2f0:	bb066606 	bllt	199b10 <load_address-0x9fe664f0>
     2f4:	0004024b 	andeq	r0, r4, fp, asr #4
     2f8:	00a00101 	adceq	r0, r0, r1, lsl #2
     2fc:	00020000 	andeq	r0, r2, r0
     300:	00000047 	andeq	r0, r0, r7, asr #32
     304:	0efb0102 	cdpeq	1, 15, cr0, cr11, cr2, {0}
     308:	0101000d 	tsteq	r1, sp
     30c:	00000101 	andeq	r0, r0, r1, lsl #2
     310:	00000100 	andeq	r0, r0, r0, lsl #2
     314:	636e6901 	cmnvs	lr, #16384	; 0x4000
     318:	6564756c 	strbvs	r7, [r4, #-1388]!	; 0x56c
     31c:	6d654400 	cfstrdvs	mvd4, [r5, #-0]
     320:	6700006f 	strvs	r0, [r0, -pc, rrx]
     324:	656d6974 	strbvs	r6, [sp, #-2420]!	; 0x974
     328:	00682e72 	rsbeq	r2, r8, r2, ror lr
     32c:	67000001 	strvs	r0, [r0, -r1]
     330:	656d6974 	strbvs	r6, [sp, #-2420]!	; 0x974
     334:	00632e72 	rsbeq	r2, r3, r2, ror lr
     338:	67000002 	strvs	r0, [r0, -r2]
     33c:	742d6369 	strtvc	r6, [sp], #-873	; 0x369
     340:	73657079 	cmnvc	r5, #121	; 0x79
     344:	0100682e 	tsteq	r0, lr, lsr #16
     348:	00000000 	andeq	r0, r0, r0
     34c:	17a00205 	strne	r0, [r0, r5, lsl #4]!
     350:	2e1aa000 	cdpcs	0, 1, cr10, cr10, cr0, {0}
     354:	0e034abd 	mcreq	10, 0, r4, cr3, cr13, {5}
     358:	2e012402 	cdpcs	4, 0, cr2, cr1, cr2, {0}
     35c:	2e834abb 	mcrcs	10, 4, r4, cr3, cr11, {5}
     360:	4a844abb 	bmi	fe112e54 <stack_irq+0x5d8f60fc>
     364:	66182402 	ldrvs	r2, [r8], -r2, lsl #8
     368:	042e7608 	strteq	r7, [lr], #-1544	; 0x608
     36c:	ba5d0302 	blt	1740f7c <load_address-0x9e8bf084>
     370:	2f4c672f 	svccs	0x004c672f
     374:	672f4c4b 	strvs	r4, [pc, -fp, asr #24]!
     378:	68672f68 	stmdavs	r7!, {r3, r5, r6, r8, r9, sl, fp, sp}^
     37c:	4b674b4b 	blmi	19d30b0 <load_address-0x9e62cf50>
     380:	684b4b4c 	stmdavs	fp, {r2, r3, r6, r8, r9, fp, lr}^
     384:	832f4c4b 	teqhi	pc, #19200	; 0x4b00
     388:	674b4b4c 	strbvs	r4, [fp, -ip, asr #22]
     38c:	4b4b4c4b 	blmi	12d34c0 <load_address-0x9ed2cb40>
     390:	674c4c67 	strbvs	r4, [ip, -r7, ror #24]
     394:	2f4cd74b 	svccs	0x004cd74b
     398:	0004024b 	andeq	r0, r4, fp, asr #4
     39c:	00890101 	addeq	r0, r9, r1, lsl #2
     3a0:	00020000 	andeq	r0, r2, r0
     3a4:	00000027 	andeq	r0, r0, r7, lsr #32
     3a8:	0efb0102 	cdpeq	1, 15, cr0, cr11, cr2, {0}
     3ac:	0101000d 	tsteq	r1, sp
     3b0:	00000101 	andeq	r0, r0, r1, lsl #2
     3b4:	00000100 	andeq	r0, r0, r0, lsl #2
     3b8:	69726401 	ldmdbvs	r2!, {r0, sl, sp, lr}^
     3bc:	73726576 	cmnvc	r2, #494927872	; 0x1d800000
     3c0:	65730000 	ldrbvs	r0, [r3, #-0]!
     3c4:	6c616972 	stclvs	9, cr6, [r1], #-456	; 0xfffffe38
     3c8:	0100632e 	tsteq	r0, lr, lsr #6
     3cc:	00000000 	andeq	r0, r0, r0
     3d0:	1a980205 	bne	fe600bec <stack_irq+0x5dde3e94>
     3d4:	2e03a000 	cdpcs	0, 0, cr10, cr3, cr0, {0}
     3d8:	4a0d0301 	bmi	340fe4 <load_address-0x9fcbf01c>
     3dc:	6609032f 	strvs	r0, [r9], -pc, lsr #6
     3e0:	00bb4c66 	adcseq	r4, fp, r6, ror #24
     3e4:	06010402 	streq	r0, [r1], -r2, lsl #8
     3e8:	2208062e 	andcs	r0, r8, #48234496	; 0x2e00000
     3ec:	859f679f 	ldrhi	r6, [pc, #1951]	; b93 <load_address-0x9ffff46d>
     3f0:	4b676783 	blmi	19da204 <load_address-0x9e625dfc>
     3f4:	0200854d 	andeq	r8, r0, #322961408	; 0x13400000
     3f8:	00670204 	rsbeq	r0, r7, r4, lsl #4
     3fc:	b9020402 	stmdblt	r2, {r1, sl}
     400:	01040200 	mrseq	r0, R12_usr
     404:	85066606 	strhi	r6, [r6, #-1542]	; 0x606
     408:	0085692f 	addeq	r6, r5, pc, lsr #18
     40c:	67020402 	strvs	r0, [r2, -r2, lsl #8]
     410:	02040200 	andeq	r0, r4, #0, 4
     414:	040200b9 	streq	r0, [r2], #-185	; 0xb9
     418:	06660601 	strbteq	r0, [r6], -r1, lsl #12
     41c:	12032f85 	andne	r2, r3, #532	; 0x214
     420:	4d2f1366 	stcmi	3, cr1, [pc, #-408]!	; 290 <load_address-0x9ffffd70>
     424:	02022f13 	andeq	r2, r2, #19, 30	; 0x4c
     428:	7f010100 	svcvc	0x00010100
     42c:	02000000 	andeq	r0, r0, #0
     430:	00003900 	andeq	r3, r0, r0, lsl #18
     434:	fb010200 	blx	40c3e <load_address-0x9ffbf3c2>
     438:	01000d0e 	tsteq	r0, lr, lsl #26
     43c:	00010101 	andeq	r0, r1, r1, lsl #2
     440:	00010000 	andeq	r0, r1, r0
     444:	72640100 	rsbvc	r0, r4, #0, 2
     448:	72657669 	rsbvc	r7, r5, #110100480	; 0x6900000
     44c:	6e690073 	mcrvs	0, 3, r0, cr9, cr3, {3}
     450:	64756c63 	ldrbtvs	r6, [r5], #-3171	; 0xc63
     454:	67000065 	strvs	r0, [r0, -r5, rrx]
     458:	2e6f6970 	mcrcs	9, 3, r6, cr15, cr0, {3}
     45c:	00010063 	andeq	r0, r1, r3, rrx
     460:	2d6f6900 	stclcs	9, cr6, [pc, #-0]	; 468 <load_address-0x9ffffb98>
     464:	2e316b74 	vmovcs.s16	r6, d1[3]
     468:	00020068 	andeq	r0, r2, r8, rrx
     46c:	05000000 	streq	r0, [r0, #-0]
     470:	001c5402 	andseq	r5, ip, r2, lsl #8
     474:	010f03a0 	smlatbeq	pc, r0, r3, r0	; <UNPREDICTABLE>
     478:	087508bc 	ldmdaeq	r5!, {r2, r3, r4, r5, r7, fp}^
     47c:	d8bb9f43 	ldmle	fp!, {r0, r1, r6, r8, r9, sl, fp, ip, pc}
     480:	9fa04d9f 	svcls	0x00a04d9f
     484:	9fd8bbd7 	svcls	0x00d8bbd7
     488:	9fd8bbd7 	svcls	0x00d8bbd7
     48c:	4dd7bbd8 	vldrmi	d27, [r7, #864]	; 0x360
     490:	67d79fa0 	ldrbvs	r9, [r7, r0, lsr #31]
     494:	834dd7bb 	movthi	sp, #55227	; 0xd7bb
     498:	9fbb9f4c 	svcls	0x00bb9f4c
     49c:	7508a069 	strvc	sl, [r8, #-105]	; 0x69
     4a0:	76083d08 	strvc	r3, [r8], -r8, lsl #26
     4a4:	bb67d79f 	bllt	19f6328 <load_address-0x9e609cd8>
     4a8:	000402d7 	ldrdeq	r0, [r4], -r7
     4ac:	00990101 	addseq	r0, r9, r1, lsl #2
     4b0:	00020000 	andeq	r0, r2, r0
     4b4:	00000042 	andeq	r0, r0, r2, asr #32
     4b8:	0efb0102 	cdpeq	1, 15, cr0, cr11, cr2, {0}
     4bc:	0101000d 	tsteq	r1, sp
     4c0:	00000101 	andeq	r0, r0, r1, lsl #2
     4c4:	00000100 	andeq	r0, r0, r0, lsl #2
     4c8:	62696c01 	rsbvs	r6, r9, #256	; 0x100
     4cc:	636e6900 	cmnvs	lr, #0, 18
     4d0:	6564756c 	strbvs	r7, [r4, #-1388]!	; 0x56c
     4d4:	72700000 	rsbsvc	r0, r0, #0
     4d8:	66746e69 	ldrbtvs	r6, [r4], -r9, ror #28
     4dc:	0100632e 	tsteq	r0, lr, lsr #6
     4e0:	74730000 	ldrbtvc	r0, [r3], #-0
     4e4:	2e6f6964 	cdpcs	9, 6, cr6, cr15, cr4, {3}
     4e8:	00020068 	andeq	r0, r2, r8, rrx
     4ec:	64747300 	ldrbtvs	r7, [r4], #-768	; 0x300
     4f0:	2e677261 	cdpcs	2, 6, cr7, cr7, cr1, {3}
     4f4:	00020068 	andeq	r0, r2, r8, rrx
     4f8:	05000000 	streq	r0, [r0, #-0]
     4fc:	00207402 	eoreq	r7, r0, r2, lsl #8
     500:	010f03a0 	smlatbeq	pc, r0, r3, r0	; <UNPREDICTABLE>
     504:	692f6783 	stmdbvs	pc!, {r0, r1, r7, r8, r9, sl, sp, lr}	; <UNPREDICTABLE>
     508:	692f6783 	stmdbvs	pc!, {r0, r1, r7, r8, r9, sl, sp, lr}	; <UNPREDICTABLE>
     50c:	a0f56787 	rscsge	r6, r5, r7, lsl #15
     510:	6787bd2f 	strvs	fp, [r7, pc, lsr #26]
     514:	be2fa0f5 	mcrlt	0, 1, sl, cr15, cr5, {7}
     518:	674e4b2f 	strbvs	r4, [lr, -pc, lsr #22]
     51c:	67672f4d 	strbvs	r2, [r7, -sp, asr #30]!
     520:	6767d89f 			; <UNDEFINED> instruction: 0x6767d89f
     524:	0402009f 	streq	r0, [r2], #-159	; 0x9f
     528:	82770301 	rsbshi	r0, r7, #67108864	; 0x4000000
     52c:	68ba0e03 	ldmvs	sl!, {r0, r1, r9, sl, fp}
     530:	0084a22f 	addeq	sl, r4, pc, lsr #4
     534:	67020402 	strvs	r0, [r2, -r2, lsl #8]
     538:	02040200 	andeq	r0, r4, #0, 4
     53c:	040200d5 	streq	r0, [r2], #-213	; 0xd5
     540:	06660601 	strbteq	r0, [r6], -r1, lsl #12
     544:	06022f85 	streq	r2, [r2], -r5, lsl #31
     548:	09010100 	stmdbeq	r1, {r8}
     54c:	02000004 	andeq	r0, r0, #4
     550:	00005000 	andeq	r5, r0, r0
     554:	fb010200 	blx	40d5e <load_address-0x9ffbf2a2>
     558:	01000d0e 	tsteq	r0, lr, lsl #26
     55c:	00010101 	andeq	r0, r1, r1, lsl #2
     560:	00010000 	andeq	r0, r1, r0
     564:	6e690100 	powvse	f0, f1, f0
     568:	64756c63 	ldrbtvs	r6, [r5], #-3171	; 0xc63
     56c:	696c0065 	stmdbvs	ip!, {r0, r2, r5, r6}^
     570:	73000062 	movwvc	r0, #98	; 0x62
     574:	6f696474 	svcvs	0x00696474
     578:	0100682e 	tsteq	r0, lr, lsr #16
     57c:	74730000 	ldrbtvc	r0, [r3], #-0
     580:	676e6972 			; <UNDEFINED> instruction: 0x676e6972
     584:	0200632e 	andeq	r6, r0, #-1207959552	; 0xb8000000
     588:	73760000 	cmnvc	r6, #0
     58c:	6e697270 	mcrvs	2, 3, r7, cr9, cr0, {3}
     590:	632e6674 	teqvs	lr, #116, 12	; 0x7400000
     594:	00000200 	andeq	r0, r0, r0, lsl #4
     598:	61647473 	smcvs	18243	; 0x4743
     59c:	682e6772 	stmdavs	lr!, {r1, r4, r5, r6, r8, r9, sl, sp, lr}
     5a0:	00000100 	andeq	r0, r0, r0, lsl #2
     5a4:	02050000 	andeq	r0, r5, #0
     5a8:	a00022f4 	strdge	r2, [r0], -r4
     5ac:	0100d203 	tsteq	r0, r3, lsl #4
     5b0:	67d74b66 	ldrbvs	r4, [r7, r6, ror #22]
     5b4:	4b66a12f 	blmi	19a8a78 <load_address-0x9e657588>
     5b8:	042f67d7 	strteq	r6, [pc], #-2007	; 5c0 <load_address-0x9ffffa40>
     5bc:	7fa70302 	svcvc	0x00a70302
     5c0:	6883a19e 	stmvs	r3, {r1, r2, r3, r4, r7, r8, sp, pc}
     5c4:	2f67bbbb 	svccs	0x0067bbbb
     5c8:	2f832f67 	svccs	0x00832f67
     5cc:	2f839f9f 	svccs	0x00839f9f
     5d0:	676b67bc 			; <UNDEFINED> instruction: 0x676b67bc
     5d4:	0402004c 	streq	r0, [r2], #-76	; 0x4c
     5d8:	062e0601 	strteq	r0, [lr], -r1, lsl #12
     5dc:	692f5b08 	stmdbvs	pc!, {r3, r8, r9, fp, ip, lr}	; <UNPREDICTABLE>
     5e0:	02004c83 	andeq	r4, r0, #33536	; 0x8300
     5e4:	2e060104 	adfcss	f0, f6, f4
     5e8:	02040200 	andeq	r0, r4, #0, 4
     5ec:	5b08069e 	blpl	20206c <load_address-0x9fdfdf94>
     5f0:	4c67682f 	stclmi	8, cr6, [r7], #-188	; 0xffffff44
     5f4:	0402002f 	streq	r0, [r2], #-47	; 0x2f
     5f8:	00846501 	addeq	r6, r4, r1, lsl #10
     5fc:	06010402 	streq	r0, [r1], -r2, lsl #8
     600:	5b08062e 	blpl	201ec0 <load_address-0x9fdfe140>
     604:	4c83692f 	stcmi	9, cr6, [r3], {47}	; 0x2f
     608:	02002f67 	andeq	r2, r0, #412	; 0x19c
     60c:	84650104 	strbthi	r0, [r5], #-260	; 0x104
     610:	0067bb2f 	rsbeq	fp, r7, pc, lsr #22
     614:	2b010402 	blcs	41624 <load_address-0x9ffbe9dc>
     618:	692f6008 	stmdbvs	pc!, {r3, sp, lr}	; <UNPREDICTABLE>
     61c:	04020086 	streq	r0, [r2], #-134	; 0x86
     620:	58080601 	stmdapl	r8, {r0, r9, sl}
     624:	2f30bc06 	svccs	0x0030bc06
     628:	2f309f84 	svccs	0x00309f84
     62c:	01040200 	mrseq	r0, R12_usr
     630:	06580806 	ldrbeq	r0, [r8], -r6, lsl #16
     634:	040200bc 	streq	r0, [r2], #-188	; 0xbc
     638:	2f6c6301 	svccs	0x006c6301
     63c:	832f6784 	teqhi	pc, #132, 14	; 0x2100000
     640:	04020048 	streq	r0, [r2], #-72	; 0x48
     644:	06660601 	strbteq	r0, [r6], -r1, lsl #12
     648:	4d682fbd 	stclmi	15, cr2, [r8, #-756]!	; 0xfffffd0c
     64c:	02040200 	andeq	r0, r4, #0, 4
     650:	02006606 	andeq	r6, r0, #6291456	; 0x600000
     654:	06660104 	strbteq	r0, [r6], -r4, lsl #2
     658:	83686785 	cmnhi	r8, #34865152	; 0x2140000
     65c:	d74bbbbc 			; <UNDEFINED> instruction: 0xd74bbbbc
     660:	0069682f 	rsbeq	r6, r9, pc, lsr #16
     664:	06010402 	streq	r0, [r1], -r2, lsl #8
     668:	04020066 	streq	r0, [r2], #-102	; 0x66
     66c:	8406f202 	strhi	pc, [r6], #-514	; 0x202
     670:	4c696867 	stclmi	8, cr6, [r9], #-412	; 0xfffffe64
     674:	2cbb6767 	ldccs	7, cr6, [fp], #412	; 0x19c
     678:	01040200 	mrseq	r0, R12_usr
     67c:	86066606 	strhi	r6, [r6], -r6, lsl #12
     680:	79034b83 	stmdbvc	r3, {r0, r1, r7, r8, r9, fp, lr}
     684:	04020066 	streq	r0, [r2], #-102	; 0x66
     688:	06660601 	strbteq	r0, [r6], -r1, lsl #12
     68c:	2f820a03 	svccs	0x00820a03
     690:	67676968 	strbvs	r6, [r7, -r8, ror #18]!
     694:	020048bb 	andeq	r4, r0, #12255232	; 0xbb0000
     698:	66060104 	strvs	r0, [r6], -r4, lsl #2
     69c:	02008106 	andeq	r8, r0, #-2147483647	; 0x80000001
     6a0:	66060104 	strvs	r0, [r6], -r4, lsl #2
     6a4:	682f8806 	stmdavs	pc!, {r1, r2, fp, pc}	; <UNPREDICTABLE>
     6a8:	02004d82 	andeq	r4, r0, #8320	; 0x2080
     6ac:	66060104 	strvs	r0, [r6], -r4, lsl #2
     6b0:	02040200 	andeq	r0, r4, #0, 4
     6b4:	0402004a 	streq	r0, [r2], #-74	; 0x4a
     6b8:	02006603 	andeq	r6, r0, #3145728	; 0x300000
     6bc:	2f060304 	svccs	0x00060304
     6c0:	83d74c67 	bicshi	r4, r7, #26368	; 0x6700
     6c4:	00834c83 	addeq	r4, r3, r3, lsl #25
     6c8:	06010402 	streq	r0, [r1], -r2, lsl #8
     6cc:	9f830666 	svcls	0x00830666
     6d0:	83a02f83 	movhi	r2, #524	; 0x20c
     6d4:	834c6768 	movthi	r6, #51048	; 0xc768
     6d8:	2f689f67 	svccs	0x00689f67
     6dc:	2f4d8368 	svccs	0x004d8368
     6e0:	01040200 	mrseq	r0, R12_usr
     6e4:	682fa1b9 	stmdavs	pc!, {r0, r3, r4, r5, r7, r8, sp, pc}	; <UNPREDICTABLE>
     6e8:	002f4c83 	eoreq	r4, pc, r3, lsl #25
     6ec:	f1010402 			; <UNDEFINED> instruction: 0xf1010402
     6f0:	83682fa1 	cmnhi	r8, #644	; 0x284
     6f4:	02002f84 	andeq	r2, r0, #132, 30	; 0x210
     6f8:	a1f10104 	mvnsge	r0, r4, lsl #2
     6fc:	8385682f 	orrhi	r6, r5, #3080192	; 0x2f0000
     700:	002f4b4b 	eoreq	r4, pc, fp, asr #22
     704:	f1010402 			; <UNDEFINED> instruction: 0xf1010402
     708:	2f8383be 	svccs	0x008383be
     70c:	01040200 	mrseq	r0, R12_usr
     710:	2fa23b08 	svccs	0x00a23b08
     714:	9f4c8468 	svcls	0x004c8468
     718:	002c3d08 	eoreq	r3, ip, r8, lsl #26
     71c:	06010402 	streq	r0, [r1], -r2, lsl #8
     720:	69062008 	stmdbvs	r6, {r3, sp}
     724:	4c83682f 	stcmi	8, cr6, [r3], {47}	; 0x2f
     728:	674bbb2f 	strbvs	fp, [fp, -pc, lsr #22]
     72c:	01040200 	mrseq	r0, R12_usr
     730:	682f6c62 	stmdavs	pc!, {r1, r5, r6, sl, fp, sp, lr}	; <UNPREDICTABLE>
     734:	4b678385 	blmi	19e1550 <load_address-0x9e61eab0>
     738:	f3672f83 	vpmin.f32	d18, d23, d3
     73c:	0402004b 	streq	r0, [r2], #-75	; 0x4b
     740:	2f886201 	svccs	0x00886201
     744:	2f4b8368 	svccs	0x004b8368
     748:	040200f3 	streq	r0, [r2], #-243	; 0xf3
     74c:	2fa36401 	svccs	0x00a36401
     750:	02006768 	andeq	r6, r0, #104, 14	; 0x1a00000
     754:	2e060204 	cdpcs	2, 0, cr0, cr6, cr4, {0}
     758:	01040200 	mrseq	r0, R12_usr
     75c:	83065808 	movwhi	r5, #26632	; 0x6808
     760:	0200674c 	andeq	r6, r0, #76, 14	; 0x1300000
     764:	2e060204 	cdpcs	2, 0, cr0, cr6, cr4, {0}
     768:	01040200 	mrseq	r0, R12_usr
     76c:	83065808 	movwhi	r5, #26632	; 0x6808
     770:	4c4b824c 	sfmmi	f0, 3, [fp], {76}	; 0x4c
     774:	0402002f 	streq	r0, [r2], #-47	; 0x2f
     778:	00f46501 	rscseq	r6, r4, r1, lsl #10
     77c:	06020402 	streq	r0, [r2], -r2, lsl #8
     780:	04020066 	streq	r0, [r2], #-102	; 0x66
     784:	00670601 	rsbeq	r0, r7, r1, lsl #12
     788:	49010402 	stmdbmi	r1, {r1, sl}
     78c:	0402004b 	streq	r0, [r2], #-75	; 0x4b
     790:	069e0601 	ldreq	r0, [lr], r1, lsl #12
     794:	684c67a0 	stmdavs	ip, {r5, r7, r8, r9, sl, sp, lr}^
     798:	674e6883 	strbvs	r6, [lr, -r3, lsl #17]
     79c:	01040200 	mrseq	r0, R12_usr
     7a0:	f3066606 	vmax.u8	d6, d6, d6
     7a4:	040200f3 	streq	r0, [r2], #-243	; 0xf3
     7a8:	06660601 	strbteq	r0, [r6], -r1, lsl #12
     7ac:	0200f3f3 	andeq	pc, r0, #-872415229	; 0xcc000003
     7b0:	66060104 	strvs	r0, [r6], -r4, lsl #2
     7b4:	67d9f306 	ldrbvs	pc, [r9, r6, lsl #6]	; <UNPREDICTABLE>
     7b8:	04020030 	streq	r0, [r2], #-48	; 0x30
     7bc:	06660601 	strbteq	r0, [r6], -r1, lsl #12
     7c0:	84a32f68 	strthi	r2, [r3], #3944	; 0xf68
     7c4:	04020050 	streq	r0, [r2], #-80	; 0x50
     7c8:	06660601 	strbteq	r0, [r6], -r1, lsl #12
     7cc:	02004d69 	andeq	r4, r0, #6720	; 0x1a40
     7d0:	66060104 	strvs	r0, [r6], -r4, lsl #2
     7d4:	03040200 	movweq	r0, #16896	; 0x4200
     7d8:	04020066 	streq	r0, [r2], #-102	; 0x66
     7dc:	02004a02 	andeq	r4, r0, #8192	; 0x2000
     7e0:	002e0404 	eoreq	r0, lr, r4, lsl #8
     7e4:	06040402 	streq	r0, [r4], -r2, lsl #8
     7e8:	2d69672f 	stclcs	7, cr6, [r9, #-188]!	; 0xffffff44
     7ec:	83bb304b 			; <UNDEFINED> instruction: 0x83bb304b
     7f0:	00220867 	eoreq	r0, r2, r7, ror #16
     7f4:	03010402 	movweq	r0, #5122	; 0x1402
     7f8:	0200f279 	andeq	pc, r0, #-1879048185	; 0x90000007
     7fc:	66060204 	strvs	r0, [r6], -r4, lsl #4
     800:	820e0306 	andhi	r0, lr, #402653184	; 0x18000000
     804:	4b9f674d 	blmi	fe7da540 <stack_irq+0x5dfbd7e8>
     808:	01040200 	mrseq	r0, R12_usr
     80c:	67841f08 	strvs	r1, [r4, r8, lsl #30]
     810:	0303042f 	movweq	r0, #13359	; 0x342f
     814:	4a667da1 	bmi	199fea0 <load_address-0x9e660160>
     818:	02004c4b 	andeq	r4, r0, #19200	; 0x4b00
     81c:	2e060204 	cdpcs	2, 0, cr0, cr6, cr4, {0}
     820:	01040200 	mrseq	r0, R12_usr
     824:	0806c808 	stmdaeq	r6, {r3, fp, lr, pc}
     828:	68a02f21 	stmiavs	r0!, {r0, r5, r8, r9, sl, fp, sp}
     82c:	83678369 	cmnhi	r7, #-1543503871	; 0xa4000001
     830:	04020067 	streq	r0, [r2], #-103	; 0x67
     834:	06660601 	strbteq	r0, [r6], -r1, lsl #12
     838:	02004b67 	andeq	r4, r0, #105472	; 0x19c00
     83c:	82060104 	andhi	r0, r6, #4, 2
     840:	02040200 	andeq	r0, r4, #0, 4
     844:	0402004a 	streq	r0, [r2], #-74	; 0x4a
     848:	02002e03 	andeq	r2, r0, #3, 28	; 0x30
     84c:	2f060304 	svccs	0x00060304
     850:	03040200 	movweq	r0, #16896	; 0x4200
     854:	4b83834b 	blmi	fe0e1588 <stack_irq+0x5d8c4830>
     858:	4b838383 	blmi	fe0e166c <stack_irq+0x5d8c4914>
     85c:	694b8383 	stmdbvs	fp, {r0, r1, r7, r8, r9, pc}^
     860:	67836783 	strvs	r6, [r3, r3, lsl #15]
     864:	08674b68 	stmdaeq	r7!, {r3, r5, r6, r8, r9, fp, lr}^
     868:	02002f3d 	andeq	r2, r0, #61, 30	; 0xf4
     86c:	30020104 	andcc	r0, r2, r4, lsl #2
     870:	4b836811 	blmi	fe0da8bc <stack_irq+0x5d8bdb64>
     874:	002f8383 	eoreq	r8, pc, r3, lsl #7
     878:	9d010402 	cfstrsls	mvf0, [r1, #-8]
     87c:	839f67a0 	orrshi	r6, pc, #160, 14	; 0x2800000
     880:	9f67bb67 	svcls	0x0067bb67
     884:	002f83bd 	strhteq	r8, [pc], -sp
     888:	9d010402 	cfstrsls	mvf0, [r1, #-8]
     88c:	02002fa0 	andeq	r2, r0, #160, 30	; 0x280
     890:	bc9d0104 	ldflts	f0, [sp], {4}
     894:	0402002f 	streq	r0, [r2], #-47	; 0x2f
     898:	a03b0801 	eorsge	r0, fp, r1, lsl #16
     89c:	0402002f 	streq	r0, [r2], #-47	; 0x2f
     8a0:	2fa09d01 	svccs	0x00a09d01
     8a4:	0e039ea1 	cdpeq	14, 0, cr9, cr3, cr1, {5}
     8a8:	bb83674a 	bllt	fe0da5d8 <stack_irq+0x5d8bd880>
     8ac:	02674c32 	rsbeq	r4, r7, #12800	; 0x3200
     8b0:	8383132e 	orrhi	r1, r3, #-1207959552	; 0xb8000000
     8b4:	4b868383 	blmi	fe1a16c8 <stack_irq+0x5d984970>
     8b8:	68839ff3 	stmvs	r3, {r0, r1, r4, r5, r6, r7, r8, r9, sl, fp, ip, pc}
     8bc:	6b6767bb 	blvs	19da7b0 <load_address-0x9e625850>
     8c0:	f367834b 	vcgt.u32	q12, <illegal reg q3.5>, <illegal reg q5.5>
     8c4:	bc68839f 	stcllt	3, cr8, [r8], #-636	; 0xfffffd84
     8c8:	004b4e67 	subeq	r4, fp, r7, ror #28
     8cc:	06010402 	streq	r0, [r1], -r2, lsl #8
     8d0:	67f30682 	ldrbvs	r0, [r3, r2, lsl #13]!
     8d4:	4e024c6a 	cdpmi	12, 0, cr4, cr2, cr10, {3}
     8d8:	002f8314 	eoreq	r8, pc, r4, lsl r3	; <UNPREDICTABLE>
     8dc:	9d010402 	cfstrsls	mvf0, [r1, #-8]
     8e0:	2f5908bc 	svccs	0x005908bc
     8e4:	01040200 	mrseq	r0, R12_usr
     8e8:	bb31bc9d 	bllt	c6fb64 <load_address-0x9f39049c>
     8ec:	83bd6867 			; <UNDEFINED> instruction: 0x83bd6867
     8f0:	0402002f 	streq	r0, [r2], #-47	; 0x2f
     8f4:	00bc9d01 	adcseq	r9, ip, r1, lsl #26
     8f8:	67020402 	strvs	r0, [r2, -r2, lsl #8]
     8fc:	02040200 	andeq	r0, r4, #0, 4
     900:	040200f1 	streq	r0, [r2], #-241	; 0xf1
     904:	06660601 	strbteq	r0, [r6], -r1, lsl #12
     908:	02002f84 	andeq	r2, r0, #132, 30	; 0x210
     90c:	bc9d0104 	ldflts	f0, [sp], {4}
     910:	694b6731 	stmdbvs	fp, {r0, r4, r5, r8, r9, sl, sp, lr}^
     914:	329308b9 	addscc	r0, r3, #12124160	; 0xb90000
     918:	2ba3bb67 	blcs	fe8ef6bc <stack_irq+0x5e0d2964>
     91c:	4b32a0bb 	blmi	ca8c10 <load_address-0x9f3573f0>
     920:	324b6831 	subcc	r6, fp, #3211264	; 0x310000
     924:	9f833168 	svcls	0x00833168
     928:	672dbd83 	strvs	fp, [sp, -r3, lsl #27]!
     92c:	032e7703 	teqeq	lr, #786432	; 0xc0000
     930:	d7672e0b 	strble	r2, [r7, -fp, lsl #28]!
     934:	22088367 	andcs	r8, r8, #-1677721599	; 0x9c000001
     938:	d7f483f3 			; <UNDEFINED> instruction: 0xd7f483f3
     93c:	087ef203 	ldmdaeq	lr!, {r0, r1, r9, ip, sp, lr, pc}^
     940:	040200ac 	streq	r0, [r2], #-172	; 0xac
     944:	06660601 	strbteq	r0, [r6], -r1, lsl #12
     948:	82019003 	andhi	r9, r1, #3
     94c:	86bd6767 	ldrthi	r6, [sp], r7, ror #14
     950:	022fbc4b 	eoreq	fp, pc, #19200	; 0x4b00
     954:	0101000a 	tsteq	r1, sl
     958:	00000172 	andeq	r0, r0, r2, ror r1
     95c:	00810002 	addeq	r0, r1, r2
     960:	01020000 	mrseq	r0, (UNDEF: 2)
     964:	000d0efb 	strdeq	r0, [sp], -fp
     968:	01010101 	tsteq	r1, r1, lsl #2
     96c:	01000000 	mrseq	r0, (UNDEF: 0)
     970:	53010000 	movwpl	r0, #4096	; 0x1000
     974:	6372756f 	cmnvs	r2, #465567744	; 0x1bc00000
     978:	6f530065 	svcvs	0x00530065
     97c:	65637275 	strbvs	r7, [r3, #-629]!	; 0x275
     980:	636e692f 	cmnvs	lr, #770048	; 0xbc000
     984:	6564756c 	strbvs	r7, [r4, #-1388]!	; 0x56c
     988:	756f5300 	strbvc	r5, [pc, #-768]!	; 690 <load_address-0x9ffff970>
     98c:	2f656372 	svccs	0x00656372
     990:	74726f70 	ldrbtvc	r6, [r2], #-3952	; 0xf70
     994:	656c6261 	strbvs	r6, [ip, #-609]!	; 0x261
     998:	4343472f 	movtmi	r4, #14127	; 0x372f
     99c:	4d52412f 	ldfmie	f4, [r2, #-188]	; 0xffffff44
     9a0:	726f435f 	rsbvc	r4, pc, #2080374785	; 0x7c000001
     9a4:	2d786574 	cfldr64cs	mvdx6, [r8, #-464]!	; 0xfffffe30
     9a8:	00353141 	eorseq	r3, r5, r1, asr #2
     9ac:	6f726300 	svcvs	0x00726300
     9b0:	6e697475 	mcrvs	4, 3, r7, cr9, cr5, {3}
     9b4:	00632e65 	rsbeq	r2, r3, r5, ror #28
     9b8:	6c000001 	stcvs	0, cr0, [r0], {1}
     9bc:	2e747369 	cdpcs	3, 7, cr7, cr4, cr9, {3}
     9c0:	00020068 	andeq	r0, r2, r8, rrx
     9c4:	726f7000 	rsbvc	r7, pc, #0
     9c8:	63616d74 	cmnvs	r1, #116, 26	; 0x1d00
     9cc:	682e6f72 	stmdavs	lr!, {r1, r4, r5, r6, r8, r9, sl, fp, sp, lr}
     9d0:	00000300 	andeq	r0, r0, r0, lsl #6
     9d4:	756f7263 	strbvc	r7, [pc, #-611]!	; 779 <load_address-0x9ffff887>
     9d8:	656e6974 	strbvs	r6, [lr, #-2420]!	; 0x974
     9dc:	0200682e 	andeq	r6, r0, #3014656	; 0x2e0000
     9e0:	00000000 	andeq	r0, r0, r0
     9e4:	40940205 	addsmi	r0, r4, r5, lsl #4
     9e8:	8303a000 	movwhi	sl, #12288	; 0x3000
     9ec:	4f9e0101 	svcmi	0x009e0101
     9f0:	83a06a67 	movhi	r6, #421888	; 0x67000
     9f4:	674e6832 	smlaldxvs	r6, lr, r2, r8
     9f8:	83696767 	cmnhi	r9, #27000832	; 0x19c0000
     9fc:	86696787 	strbthi	r6, [r9], -r7, lsl #15
     a00:	01040200 	mrseq	r0, R12_usr
     a04:	0200d606 	andeq	sp, r0, #6291456	; 0x600000
     a08:	009e0204 	addseq	r0, lr, r4, lsl #4
     a0c:	06020402 	streq	r0, [r2], -r2, lsl #8
     a10:	4d6aae08 	stclmi	14, cr10, [sl, #-32]!	; 0xffffffe0
     a14:	4f82f62f 	svcmi	0x0082f62f
     a18:	bea0bdbf 	mcrlt	13, 5, fp, cr0, cr15, {5}
     a1c:	3f085e08 	svccc	0x00085e08
     a20:	4ef6d86a 	cdpmi	8, 15, cr13, cr6, cr10, {3}
     a24:	849f3033 	ldrhi	r3, [pc], #51	; a2c <load_address-0x9ffff5d4>
     a28:	0200834c 	andeq	r8, r0, #76, 6	; 0x30000001
     a2c:	d6060104 	strle	r0, [r6], -r4, lsl #2
     a30:	02040200 	andeq	r0, r4, #0, 4
     a34:	0402009e 	streq	r0, [r2], #-158	; 0x9e
     a38:	73030601 	movwvc	r0, #13825	; 0x3601
     a3c:	0f03ac08 	svceq	0x0003ac08
     a40:	084dda9e 	stmdaeq	sp, {r1, r2, r3, r4, r7, r9, fp, ip, lr, pc}^
     a44:	d9d73021 	ldmible	r7, {r0, r5, ip, sp}^
     a48:	86bb83a4 	ldrthi	r8, [fp], r4, lsr #7
     a4c:	31d9bc4c 	bicscc	fp, r9, ip, asr #24
     a50:	85848535 	strhi	r8, [r4, #1333]	; 0x535
     a54:	0402004c 	streq	r0, [r2], #-76	; 0x4c
     a58:	00d60601 	sbcseq	r0, r6, r1, lsl #12
     a5c:	9e020402 	cdpls	4, 0, cr0, cr2, cr2, {0}
     a60:	01040200 	mrseq	r0, R12_usr
     a64:	08650306 	stmdaeq	r5!, {r1, r2, r8, r9}^
     a68:	040200ac 	streq	r0, [r2], #-172	; 0xac
     a6c:	ba6e0301 	blt	1b81678 <load_address-0x9e47e988>
     a70:	bb9e3103 	bllt	fe78ce84 <stack_irq+0x5df7012c>
     a74:	4a162c02 	bmi	58ba84 <load_address-0x9fa7457c>
     a78:	3031314c 	eorscc	r3, r1, ip, asr #2
     a7c:	020030a1 	andeq	r3, r0, #161	; 0xa1
     a80:	79030104 	stmdbvc	r3, {r2, r8}
     a84:	080c03d6 	stmdaeq	ip, {r1, r2, r4, r6, r7, r8, r9}
     a88:	04020090 	streq	r0, [r2], #-144	; 0x90
     a8c:	2c020601 	stccs	6, cr0, [r2], {1}
     a90:	04020012 	streq	r0, [r2], #-18
     a94:	02009e02 	andeq	r9, r0, #2, 28
     a98:	bd060204 	sfmlt	f0, 4, [r6, #-16]
     a9c:	02040200 	andeq	r0, r4, #0, 4
     aa0:	082fae08 	stmdaeq	pc!, {r3, r9, sl, fp, sp, pc}	; <UNPREDICTABLE>
     aa4:	02004d5c 	andeq	r4, r0, #92, 26	; 0x1700
     aa8:	00680204 	rsbeq	r0, r8, r4, lsl #4
     aac:	08020402 	stmdaeq	r2, {r1, sl}
     ab0:	0402003a 	streq	r0, [r2], #-58	; 0x3a
     ab4:	06660601 	strbteq	r0, [r6], -r1, lsl #12
     ab8:	8683836b 	strhi	r8, [r3], fp, ror #6
     abc:	40089f9f 	mulmi	r8, pc, pc	; <UNPREDICTABLE>
     ac0:	83835166 	orrhi	r5, r3, #-2147483623	; 0x80000019
     ac4:	4d6af4d8 	cfstrdmi	mvd15, [sl, #-864]!	; 0xfffffca0
     ac8:	000c022f 	andeq	r0, ip, pc, lsr #4
     acc:	00bd0101 	adcseq	r0, sp, r1, lsl #2
     ad0:	00020000 	andeq	r0, r2, r0
     ad4:	0000006f 	andeq	r0, r0, pc, rrx
     ad8:	0efb0102 	cdpeq	1, 15, cr0, cr11, cr2, {0}
     adc:	0101000d 	tsteq	r1, sp
     ae0:	00000101 	andeq	r0, r0, r1, lsl #2
     ae4:	00000100 	andeq	r0, r0, r0, lsl #2
     ae8:	756f5301 	strbvc	r5, [pc, #-769]!	; 7ef <load_address-0x9ffff811>
     aec:	00656372 	rsbeq	r6, r5, r2, ror r3
     af0:	72756f53 	rsbsvc	r6, r5, #332	; 0x14c
     af4:	692f6563 	stmdbvs	pc!, {r0, r1, r5, r6, r8, sl, sp, lr}	; <UNPREDICTABLE>
     af8:	756c636e 	strbvc	r6, [ip, #-878]!	; 0x36e
     afc:	53006564 	movwpl	r6, #1380	; 0x564
     b00:	6372756f 	cmnvs	r2, #465567744	; 0x1bc00000
     b04:	6f702f65 	svcvs	0x00702f65
     b08:	62617472 	rsbvs	r7, r1, #1912602624	; 0x72000000
     b0c:	472f656c 	strmi	r6, [pc, -ip, ror #10]!
     b10:	412f4343 	teqmi	pc, r3, asr #6
     b14:	435f4d52 	cmpmi	pc, #5248	; 0x1480
     b18:	6574726f 	ldrbvs	r7, [r4, #-623]!	; 0x26f
     b1c:	31412d78 	hvccc	4824	; 0x12d8
     b20:	6c000035 	stcvs	0, cr0, [r0], {53}	; 0x35
     b24:	2e747369 	cdpcs	3, 7, cr7, cr4, cr9, {3}
     b28:	00010063 	andeq	r0, r1, r3, rrx
     b2c:	73696c00 	cmnvc	r9, #0, 24
     b30:	00682e74 	rsbeq	r2, r8, r4, ror lr
     b34:	70000002 	andvc	r0, r0, r2
     b38:	6d74726f 	lfmvs	f7, 2, [r4, #-444]!	; 0xfffffe44
     b3c:	6f726361 	svcvs	0x00726361
     b40:	0300682e 	movweq	r6, #2094	; 0x82e
     b44:	00000000 	andeq	r0, r0, r0
     b48:	49280205 	stmdbmi	r8!, {r0, r2, r9}
     b4c:	c503a000 	strgt	sl, [r3, #-0]
     b50:	864e0100 	strbhi	r0, [lr], -r0, lsl #2
     b54:	6784836a 	strvs	r8, [r4, sl, ror #6]
     b58:	4e674c4e 	cdpmi	12, 6, cr4, cr7, cr14, {2}
     b5c:	8383686d 	orrhi	r6, r3, #7143424	; 0x6d0000
     b60:	68696783 	stmdavs	r9!, {r0, r1, r7, r8, r9, sl, sp, lr}^
     b64:	036b4e9f 	cmneq	fp, #2544	; 0x9f0
     b68:	03686609 	cmneq	r8, #9437184	; 0x900000
     b6c:	02008214 	andeq	r8, r0, #20, 4	; 0x40000001
     b70:	82060204 	andhi	r0, r6, #4, 4	; 0x40000000
     b74:	01040200 	mrseq	r0, R12_usr
     b78:	83c10666 	bichi	r0, r1, #106954752	; 0x6600000
     b7c:	686a6783 	stmdavs	sl!, {r0, r1, r7, r8, r9, sl, sp, lr}^
     b80:	9f4d4e9f 	svcls	0x004d4e9f
     b84:	85a069a2 	strhi	r6, [r0, #2466]!	; 0x9a2
     b88:	04029f67 	streq	r9, [r2], #-3943	; 0xf67
     b8c:	4e010100 	adfmis	f0, f1, f0
     b90:	02000002 	andeq	r0, r0, #2
     b94:	00008d00 	andeq	r8, r0, r0, lsl #26
     b98:	fb010200 	blx	413a2 <load_address-0x9ffbec5e>
     b9c:	01000d0e 	tsteq	r0, lr, lsl #26
     ba0:	00010101 	andeq	r0, r1, r1, lsl #2
     ba4:	00010000 	andeq	r0, r1, r0
     ba8:	6f530100 	svcvs	0x00530100
     bac:	65637275 	strbvs	r7, [r3, #-629]!	; 0x275
     bb0:	636e6900 	cmnvs	lr, #0, 18
     bb4:	6564756c 	strbvs	r7, [r4, #-1388]!	; 0x56c
     bb8:	756f5300 	strbvc	r5, [pc, #-768]!	; 8c0 <load_address-0x9ffff740>
     bbc:	2f656372 	svccs	0x00656372
     bc0:	74726f70 	ldrbtvc	r6, [r2], #-3952	; 0xf70
     bc4:	656c6261 	strbvs	r6, [ip, #-609]!	; 0x261
     bc8:	4343472f 	movtmi	r4, #14127	; 0x372f
     bcc:	4d52412f 	ldfmie	f4, [r2, #-188]	; 0xffffff44
     bd0:	726f435f 	rsbvc	r4, pc, #2080374785	; 0x7c000001
     bd4:	2d786574 	cfldr64cs	mvdx6, [r8, #-464]!	; 0xfffffe30
     bd8:	00353141 	eorseq	r3, r5, r1, asr #2
     bdc:	72756f53 	rsbsvc	r6, r5, #332	; 0x14c
     be0:	692f6563 	stmdbvs	pc!, {r0, r1, r5, r6, r8, sl, sp, lr}	; <UNPREDICTABLE>
     be4:	756c636e 	strbvc	r6, [ip, #-878]!	; 0x36e
     be8:	00006564 	andeq	r6, r0, r4, ror #10
     bec:	75657571 	strbvc	r7, [r5, #-1393]!	; 0x571
     bf0:	00632e65 	rsbeq	r2, r3, r5, ror #28
     bf4:	73000001 	movwvc	r0, #1
     bf8:	6f696474 	svcvs	0x00696474
     bfc:	0200682e 	andeq	r6, r0, #3014656	; 0x2e0000
     c00:	6f700000 	svcvs	0x00700000
     c04:	616d7472 	smcvs	55106	; 0xd742
     c08:	2e6f7263 	cdpcs	2, 6, cr7, cr15, cr3, {3}
     c0c:	00030068 	andeq	r0, r3, r8, rrx
     c10:	73696c00 	cmnvc	r9, #0, 24
     c14:	00682e74 	rsbeq	r2, r8, r4, ror lr
     c18:	74000004 	strvc	r0, [r0], #-4
     c1c:	2e6b7361 	cdpcs	3, 6, cr7, cr11, cr1, {3}
     c20:	00040068 	andeq	r0, r4, r8, rrx
     c24:	05000000 	streq	r0, [r0, #-0]
     c28:	004b7402 	subeq	r7, fp, r2, lsl #8
     c2c:	01fc03a0 	mvnseq	r0, r0, lsr #7
     c30:	684d8501 	stmdavs	sp, {r0, r8, sl, pc}^
     c34:	9fa06a67 	svcls	0x00a06a67
     c38:	8367f386 	msrhi	SPSR_sxc, #402653186	; 0x18000002
     c3c:	67672108 	strbvs	r2, [r7, -r8, lsl #2]!
     c40:	85836967 	strhi	r6, [r3, #2407]	; 0x967
     c44:	6c2f516b 	stfvss	f5, [pc], #-428	; aa0 <load_address-0x9ffff560>
     c48:	6769674e 	strbvs	r6, [r9, -lr, asr #14]!
     c4c:	676b676a 	strbvs	r6, [fp, -sl, ror #14]!
     c50:	69676767 	stmdbvs	r7!, {r0, r1, r2, r5, r6, r8, r9, sl, sp, lr}^
     c54:	0a038583 	beq	e2268 <load_address-0x9ff1dd98>
     c58:	036e2f9e 	cmneq	lr, #632	; 0x278
     c5c:	0903660b 	stmdbeq	r3, {r0, r1, r3, r9, sl, sp, lr}
     c60:	a186a1ba 			; <UNDEFINED> instruction: 0xa186a1ba
     c64:	6e2f4f6b 	cdpvs	15, 2, cr4, cr15, cr11, {3}
     c68:	bc820a03 	vstmialt	r2, {s0-s2}
     c6c:	68be6a9f 	ldmvs	lr!, {r0, r1, r2, r3, r4, r7, r9, fp, sp, lr}
     c70:	856e2fa6 	strbhi	r2, [lr, #-4006]!	; 0xfa6
     c74:	0a036884 	beq	dae8c <load_address-0x9ff25174>
     c78:	bb6c2f66 	bllt	1b0ca18 <load_address-0x9e4f35e8>
     c7c:	324a0b03 	subcc	r0, sl, #3072	; 0xc00
     c80:	dc8486bd 	stcle	6, cr8, [r4], {189}	; 0xbd
     c84:	01040200 	mrseq	r0, R12_usr
     c88:	a206ba06 	andge	fp, r6, #24576	; 0x6000
     c8c:	336a4e32 	cmncc	sl, #800	; 0x320
     c90:	4e676a4c 	vnmulmi.f32	s13, s14, s24
     c94:	02002f33 	andeq	r2, r0, #51, 30	; 0xcc
     c98:	9e060104 	adflss	f0, f6, f4
     c9c:	02040200 	andeq	r0, r4, #0, 4
     ca0:	04020066 	streq	r0, [r2], #-102	; 0x66
     ca4:	02008201 	andeq	r8, r0, #268435456	; 0x10000000
     ca8:	00660204 	rsbeq	r0, r6, r4, lsl #4
     cac:	06020402 	streq	r0, [r2], -r2, lsl #8
     cb0:	c1a1f431 			; <UNDEFINED> instruction: 0xc1a1f431
     cb4:	02008451 	andeq	r8, r0, #1358954496	; 0x51000000
     cb8:	ba060104 	blt	1810d0 <load_address-0x9fe7ef30>
     cbc:	034bc006 	movteq	ip, #45062	; 0xb006
     cc0:	78032e0e 	stmdavc	r3, {r1, r2, r3, r9, sl, fp, sp}
     cc4:	4c334b2e 	ldcmi	11, cr4, [r3], #-184	; 0xffffff48
     cc8:	01d2032f 	bicseq	r0, r2, pc, lsr #6
     ccc:	ba0d0366 	blt	341a6c <load_address-0x9fcbe594>
     cd0:	8486be68 	strhi	fp, [r6], #3688	; 0xe68
     cd4:	008ada84 	addeq	sp, sl, r4, lsl #21
     cd8:	a1010402 	tstge	r1, r2, lsl #8
     cdc:	2f684d6b 	svccs	0x00684d6b
     ce0:	0d03bb6a 	vstreq	d11, [r3, #-424]	; 0xfffffe58
     ce4:	6885324a 	stmvs	r5, {r1, r3, r6, r9, ip, sp}
     ce8:	86a26b68 	strthi	r6, [r2], r8, ror #22
     cec:	00d88487 	sbcseq	r8, r8, r7, lsl #9
     cf0:	06010402 	streq	r0, [r1], -r2, lsl #8
     cf4:	0a0306ba 	beq	c27e4 <load_address-0x9ff3d81c>
     cf8:	d9866aba 	stmible	r6, {r1, r3, r4, r5, r7, r9, fp, sp, lr}
     cfc:	01040200 	mrseq	r0, R12_usr
     d00:	a406ba06 	strge	fp, [r6], #-2566	; 0xa06
     d04:	306a4e2f 	rsbcc	r4, sl, pc, lsr #28
     d08:	4e676a4c 	vnmulmi.f32	s13, s14, s24
     d0c:	02002f33 	andeq	r2, r0, #51, 30	; 0xcc
     d10:	9e060104 	adflss	f0, f6, f4
     d14:	02040200 	andeq	r0, r4, #0, 4
     d18:	04020066 	streq	r0, [r2], #-102	; 0x66
     d1c:	02008201 	andeq	r8, r0, #268435456	; 0x10000000
     d20:	00660204 	rsbeq	r0, r6, r4, lsl #4
     d24:	06020402 	streq	r0, [r2], -r2, lsl #8
     d28:	84a4f431 	strthi	pc, [r4], #1073	; 0x431
     d2c:	bb338430 	bllt	ce1df4 <load_address-0x9f31e20c>
     d30:	0200844b 	andeq	r8, r0, #1258291200	; 0x4b000000
     d34:	ba060104 	blt	18114c <load_address-0x9fe7eeb4>
     d38:	034bc006 	movteq	ip, #45062	; 0xb006
     d3c:	4b292e0a 	blmi	a4c56c <load_address-0x9f5b3a94>
     d40:	6a2f4c30 	bvs	bd3e08 <load_address-0x9f42c1f8>
     d44:	678669a6 	strvs	r6, [r6, r6, lsr #19]
     d48:	da8484a3 	ble	fe121fdc <stack_irq+0x5d905284>
     d4c:	0402008a 	streq	r0, [r2], #-138	; 0x8a
     d50:	4e6aa101 	lgnmie	f2, f1
     d54:	6b6a2f68 	blvs	1a8cafc <load_address-0x9e573504>
     d58:	2f30672f 	svccs	0x0030672f
     d5c:	2f684f6a 	svccs	0x00684f6a
     d60:	4b836b6a 	blmi	fe0dbb10 <stack_irq+0x5d8bedb8>
     d64:	85869f4e 	strhi	r9, [r6, #3918]	; 0xf4e
     d68:	f3688783 	vabd.u32	d24, d24, d3
     d6c:	f3a3bcd7 			; <UNDEFINED> instruction: 0xf3a3bcd7
     d70:	9ff6bcf3 	svcls	0x00f6bcf3
     d74:	d784834e 	strle	r8, [r4, lr, asr #6]
     d78:	4ef484bc 	mrcmi	4, 7, r8, cr4, cr12, {5}
     d7c:	8632316d 	ldrthi	r3, [r2], -sp, ror #2
     d80:	00be31da 	ldrsbteq	r3, [lr], sl
     d84:	03010402 	movweq	r0, #5122	; 0x1402
     d88:	17032e6d 	strne	r2, [r3, -sp, ror #28]
     d8c:	30316882 	eorscc	r6, r1, r2, lsl #17
     d90:	31d88430 	bicscc	r8, r8, r0, lsr r4
     d94:	040200be 	streq	r0, [r2], #-190	; 0xbe
     d98:	2e730301 	cdpcs	3, 7, cr0, cr3, cr1, {0}
     d9c:	68821103 	stmvs	r2, {r0, r1, r8, ip}
     da0:	2f694e2f 	svccs	0x00694e2f
     da4:	6a2f30d7 	bvs	bcd108 <load_address-0x9f432ef8>
     da8:	6a2fd84e 	bvs	bf6ee8 <load_address-0x9f409118>
     dac:	21082f69 	tstcs	r8, r9, ror #30
     db0:	4e6a2f30 	mcrmi	15, 3, r2, cr10, cr0, {1}
     db4:	032f2208 	teqeq	pc, #8, 4	; 0x80000000
     db8:	03660288 	cmneq	r6, #136, 4	; 0x80000008
     dbc:	0200820f 	andeq	r8, r0, #-268435456	; 0xf0000000
     dc0:	9e060104 	adflss	f0, f6, f4
     dc4:	02040200 	andeq	r0, r4, #0, 4
     dc8:	04020066 	streq	r0, [r2], #-102	; 0x66
     dcc:	02008201 	andeq	r8, r0, #268435456	; 0x10000000
     dd0:	00660204 	rsbeq	r0, r6, r4, lsl #4
     dd4:	06020402 	streq	r0, [r2], -r2, lsl #8
     dd8:	4ba0852f 	blmi	fe82229c <stack_irq+0x5e005544>
     ddc:	01000402 	tsteq	r0, r2, lsl #8
     de0:	0004a201 	andeq	sl, r4, r1, lsl #4
     de4:	9b000200 	blls	15ec <load_address-0x9fffea14>
     de8:	02000000 	andeq	r0, r0, #0
     dec:	0d0efb01 	vstreq	d15, [lr, #-4]
     df0:	01010100 	mrseq	r0, (UNDEF: 17)
     df4:	00000001 	andeq	r0, r0, r1
     df8:	01000001 	tsteq	r0, r1
     dfc:	72756f53 	rsbsvc	r6, r5, #332	; 0x14c
     e00:	53006563 	movwpl	r6, #1379	; 0x563
     e04:	6372756f 	cmnvs	r2, #465567744	; 0x1bc00000
     e08:	6e692f65 	cdpvs	15, 6, cr2, cr9, cr5, {3}
     e0c:	64756c63 	ldrbtvs	r6, [r5], #-3171	; 0xc63
     e10:	6f530065 	svcvs	0x00530065
     e14:	65637275 	strbvs	r7, [r3, #-629]!	; 0x275
     e18:	726f702f 	rsbvc	r7, pc, #47	; 0x2f
     e1c:	6c626174 	stfvse	f6, [r2], #-464	; 0xfffffe30
     e20:	43472f65 	movtmi	r2, #32613	; 0x7f65
     e24:	52412f43 	subpl	r2, r1, #268	; 0x10c
     e28:	6f435f4d 	svcvs	0x00435f4d
     e2c:	78657472 	stmdavc	r5!, {r1, r4, r5, r6, sl, ip, sp, lr}^
     e30:	3531412d 	ldrcc	r4, [r1, #-301]!	; 0x12d
     e34:	636e6900 	cmnvs	lr, #0, 18
     e38:	6564756c 	strbvs	r7, [r4, #-1388]!	; 0x56c
     e3c:	61740000 	cmnvs	r4, r0
     e40:	2e736b73 	vmovcs.s8	r6, d3[7]
     e44:	00010063 	andeq	r0, r1, r3, rrx
     e48:	6f727000 	svcvs	0x00727000
     e4c:	6665646a 	strbtvs	r6, [r5], -sl, ror #8
     e50:	00682e73 	rsbeq	r2, r8, r3, ror lr
     e54:	70000002 	andvc	r0, r0, r2
     e58:	6d74726f 	lfmvs	f7, 2, [r4, #-444]!	; 0xfffffe44
     e5c:	6f726361 	svcvs	0x00726361
     e60:	0300682e 	movweq	r6, #2094	; 0x82e
     e64:	696c0000 	stmdbvs	ip!, {}^	; <UNPREDICTABLE>
     e68:	682e7473 	stmdavs	lr!, {r0, r1, r4, r5, r6, sl, ip, sp, lr}
     e6c:	00000200 	andeq	r0, r0, r0, lsl #4
     e70:	6b736174 	blvs	1cd9448 <load_address-0x9e326bb8>
     e74:	0200682e 	andeq	r6, r0, #3014656	; 0x2e0000
     e78:	74730000 	ldrbtvc	r0, [r3], #-0
     e7c:	2e6f6964 	cdpcs	9, 6, cr6, cr15, cr4, {3}
     e80:	00040068 	andeq	r0, r4, r8, rrx
     e84:	05000000 	streq	r0, [r0, #-0]
     e88:	005a4002 	subseq	r4, sl, r2
     e8c:	03b103a0 			; <UNDEFINED> instruction: 0x03b103a0
     e90:	0903ba01 	stmdbeq	r3, {r0, r9, fp, ip, sp, pc}
     e94:	1803a04a 	stmdane	r3, {r1, r3, r6, sp, pc}
     e98:	1403d766 	strne	sp, [r3], #-1894	; 0x766
     e9c:	d60c0366 	strle	r0, [ip], -r6, ror #6
     ea0:	306b6bdd 	ldrdcc	r6, [fp], #-189	; 0xffffff43	; <UNPREDICTABLE>
     ea4:	a384a2d7 	orrge	sl, r4, #1879048205	; 0x7000000d
     ea8:	89d8a052 	ldmibhi	r8, {r1, r4, r6, sp, pc}^
     eac:	d8a1a4d8 	stmiale	r1!, {r3, r4, r6, r7, sl, sp, pc}
     eb0:	01040200 	mrseq	r0, R12_usr
     eb4:	0200d606 	andeq	sp, r0, #6291456	; 0x600000
     eb8:	009e0204 	addseq	r0, lr, r4, lsl #4
     ebc:	06020402 	streq	r0, [r2], -r2, lsl #8
     ec0:	0200ae08 	andeq	sl, r0, #8, 28	; 0x80
     ec4:	4e4d0204 	cdpmi	2, 4, cr0, cr13, cr4, {0}
     ec8:	d8a2684e 	stmiale	r2!, {r1, r2, r3, r6, fp, sp, lr}
     ecc:	01040200 	mrseq	r0, R12_usr
     ed0:	a306ba06 	movwge	fp, #27142	; 0x6a06
     ed4:	00c8032f 	sbceq	r0, r8, pc, lsr #6
     ed8:	82012402 	andhi	r2, r1, #33554432	; 0x2000000
     edc:	a0314f4c 	eorsge	r4, r1, ip, asr #30
     ee0:	040200dd 	streq	r0, [r2], #-221	; 0xdd
     ee4:	069e0601 	ldreq	r0, [lr], r1, lsl #12
     ee8:	02006ebc 	andeq	r6, r0, #188, 28	; 0xbc0
     eec:	9e060104 	adflss	f0, f6, f4
     ef0:	684fbc06 	stmdavs	pc, {r1, r2, sl, fp, ip, sp, pc}^	; <UNPREDICTABLE>
     ef4:	4e4dbb6d 	vmlsmi.f64	d27, d13, d29
     ef8:	04020068 	streq	r0, [r2], #-104	; 0x68
     efc:	06ba0601 	ldrteq	r0, [sl], r1, lsl #12
     f00:	4c66dea0 	stclmi	14, cr13, [r6], #-640	; 0xfffffd80
     f04:	0e03684d 	cdpeq	8, 0, cr6, cr3, cr13, {2}
     f08:	4cbbbf2e 	ldcmi	15, cr11, [fp], #184	; 0xb8
     f0c:	0200684f 	andeq	r6, r0, #5177344	; 0x4f0000
     f10:	ba060104 	blt	181328 <load_address-0x9fe7ecd8>
     f14:	66a6a006 	strtvs	sl, [r6], r6
     f18:	0200324e 	andeq	r3, r0, #-536870908	; 0xe0000004
     f1c:	66060104 	strvs	r0, [r6], -r4, lsl #2
     f20:	02040200 	andeq	r0, r4, #0, 4
     f24:	04020082 	streq	r0, [r2], #-130	; 0x82
     f28:	02002e03 	andeq	r2, r0, #3, 28	; 0x30
     f2c:	2f060304 	svccs	0x00060304
     f30:	03040200 	movweq	r0, #16896	; 0x4200
     f34:	04020068 	streq	r0, [r2], #-104	; 0x68
     f38:	02003003 	andeq	r3, r0, #3
     f3c:	a62f0304 	strtge	r0, [pc], -r4, lsl #6
     f40:	684f4d82 	stmdavs	pc, {r1, r7, r8, sl, fp, lr}^	; <UNPREDICTABLE>
     f44:	4fbc304d 	svcmi	0x00bc304d
     f48:	01040200 	mrseq	r0, R12_usr
     f4c:	02006606 	andeq	r6, r0, #6291456	; 0x600000
     f50:	00820204 	addeq	r0, r2, r4, lsl #4
     f54:	2e030402 	cdpcs	4, 0, cr0, cr3, cr2, {0}
     f58:	03040200 	movweq	r0, #16896	; 0x4200
     f5c:	02003406 	andeq	r3, r0, #100663296	; 0x6000000
     f60:	866e0304 	strbthi	r0, [lr], -r4, lsl #6
     f64:	6a696c84 	bvs	1a5c17c <load_address-0x9e5a3e84>
     f68:	bc4a0903 	mcrrlt	9, 0, r0, sl, cr3
     f6c:	08886e6a 	stmeq	r8, {r1, r3, r5, r6, r9, sl, fp, sp, lr}
     f70:	02008379 	andeq	r8, r0, #-469762047	; 0xe4000001
     f74:	d6060104 	strle	r0, [r6], -r4, lsl #2
     f78:	02040200 	andeq	r0, r4, #0, 4
     f7c:	af08069e 	svcge	0x0008069e
     f80:	04020068 	streq	r0, [r2], #-104	; 0x68
     f84:	06ba0601 	ldrteq	r0, [sl], r1, lsl #12
     f88:	66fa2fa2 	ldrbtvs	r2, [sl], r2, lsr #31
     f8c:	4ebc324d 	cdpmi	2, 11, cr3, cr12, cr13, {2}
     f90:	01040200 	mrseq	r0, R12_usr
     f94:	02006606 	andeq	r6, r0, #6291456	; 0x600000
     f98:	00820204 	addeq	r0, r2, r4, lsl #4
     f9c:	2e030402 	cdpcs	4, 0, cr0, cr3, cr2, {0}
     fa0:	03040200 	movweq	r0, #16896	; 0x4200
     fa4:	02003306 	andeq	r3, r0, #402653184	; 0x18000000
     fa8:	84850304 	strhi	r0, [r5], #772	; 0x304
     fac:	6830d885 	ldmdavs	r0!, {r0, r2, r7, fp, ip, lr, pc}
     fb0:	040200a1 	streq	r0, [r2], #-161	; 0xa1
     fb4:	06ba0601 	ldrteq	r0, [sl], r1, lsl #12
     fb8:	32a2f8c1 	adccc	pc, r2, #12648448	; 0xc10000
     fbc:	514b4bfa 	strdpl	r4, [fp, #-186]	; 0xffffff46
     fc0:	4f84c0bd 	svcmi	0x0084c0bd
     fc4:	5266a62f 	rsbpl	sl, r6, #49283072	; 0x2f00000
     fc8:	0402004e 	streq	r0, [r2], #-78	; 0x4e
     fcc:	06660601 	strbteq	r0, [r6], -r1, lsl #12
     fd0:	83a430bc 			; <UNDEFINED> instruction: 0x83a430bc
     fd4:	01040200 	mrseq	r0, R12_usr
     fd8:	0200d606 	andeq	sp, r0, #6291456	; 0x600000
     fdc:	009e0204 	addseq	r0, lr, r4, lsl #4
     fe0:	06020402 	streq	r0, [r2], -r2, lsl #8
     fe4:	00f6af08 	rscseq	sl, r6, r8, lsl #30
     fe8:	06010402 	streq	r0, [r1], -r2, lsl #8
     fec:	30a206ba 	strhtcc	r0, [r2], sl
     ff0:	66d60903 	ldrbvs	r0, [r6], r3, lsl #18
     ff4:	a24c4f4b 	subge	r4, ip, #300	; 0x12c
     ff8:	835908a0 	cmphi	r9, #160, 16	; 0xa00000
     ffc:	01040200 	mrseq	r0, R12_usr
    1000:	0200d606 	andeq	sp, r0, #6291456	; 0x600000
    1004:	069e0204 	ldreq	r0, [lr], r4, lsl #4
    1008:	2fdacf08 	svccs	0x00dacf08
    100c:	3c080d03 	stccc	13, cr0, [r8], {3}
    1010:	1524024e 	strne	r0, [r4, #-590]!	; 0x24e
    1014:	0a034f68 	beq	d4dbc <load_address-0x9ff2b244>
    1018:	8a833066 	bhi	fe0cd1b8 <stack_irq+0x5d8b0460>
    101c:	be2e0d03 	cdplt	13, 2, cr0, cr14, cr3, {0}
    1020:	2f832f32 	svccs	0x00832f32
    1024:	6ad7154e 	bvs	ff5c6564 <stack_irq+0x5eda980c>
    1028:	0b034c4a 	bleq	d4158 <load_address-0x9ff2bea8>
    102c:	a0d8304a 	sbcsge	r3, r8, sl, asr #32
    1030:	83304ea0 	teqhi	r0, #160, 28	; 0xa00
    1034:	02006767 	andeq	r6, r0, #27000832	; 0x19c0000
    1038:	ba060104 	blt	181450 <load_address-0x9fe7ebb0>
    103c:	02040200 	andeq	r0, r4, #0, 4
    1040:	04020082 	streq	r0, [r2], #-130	; 0x82
    1044:	78080602 	stmdavc	r8, {r1, r9, sl}
    1048:	040200d8 	streq	r0, [r2], #-216	; 0xd8
    104c:	4a750301 	bmi	1d41c58 <load_address-0x9e2be3a8>
    1050:	a09e1203 	addsge	r1, lr, r3, lsl #4
    1054:	02002f30 	andeq	r2, r0, #48, 30	; 0xc0
    1058:	03d30104 	bicseq	r0, r3, #4, 2
    105c:	004f9e0b 	subeq	r9, pc, fp, lsl #28
    1060:	06010402 	streq	r0, [r1], -r2, lsl #8
    1064:	4ba00666 	blmi	fe802a04 <stack_irq+0x5dfe5cac>
    1068:	04020083 	streq	r0, [r2], #-131	; 0x83
    106c:	06ba0601 	ldrteq	r0, [sl], r1, lsl #12
    1070:	032f30a3 	teqeq	pc, #163	; 0xa3
    1074:	0128020e 	teqeq	r8, lr, lsl #4
    1078:	3084304e 	addcc	r3, r4, lr, asr #32
    107c:	674e862f 	strbvs	r8, [lr, -pc, lsr #12]
    1080:	862f6883 	strthi	r6, [pc], -r3, lsl #17
    1084:	6c6c6715 	stclvs	7, cr6, [ip], #-84	; 0xffffffac
    1088:	a2a06733 	adcge	r6, r0, #13369344	; 0xcc0000
    108c:	085a0868 	ldmdaeq	sl, {r3, r5, r6, fp}^
    1090:	d9bc6876 	ldmible	ip!, {r1, r2, r4, r5, r6, fp, sp, lr}
    1094:	d60e03bc 			; <UNDEFINED> instruction: 0xd60e03bc
    1098:	032fbfa0 	teqeq	pc, #160, 30	; 0x280
    109c:	740800d3 	strvc	r0, [r8], #-211	; 0xd3
    10a0:	83833086 	orrhi	r3, r3, #134	; 0x86
    10a4:	c22f84d7 	eorgt	r8, pc, #-687865856	; 0xd7000000
    10a8:	30832f4d 	addcc	r2, r3, sp, asr #30
    10ac:	032f2208 	teqeq	pc, #8, 4	; 0x80000000
    10b0:	a050ba0d 	subsge	fp, r0, sp, lsl #20
    10b4:	9e0903d7 	mcrls	3, 0, r0, cr9, cr7, {6}
    10b8:	d883bb83 	stmle	r3, {r0, r1, r7, r8, r9, fp, ip, sp, pc}
    10bc:	a3bba6c1 			; <UNDEFINED> instruction: 0xa3bba6c1
    10c0:	01040200 	mrseq	r0, R12_usr
    10c4:	0200f206 	andeq	pc, r0, #1610612736	; 0x60000000
    10c8:	58080204 	stmdapl	r8, {r2, r9}
    10cc:	01040200 	mrseq	r0, R12_usr
    10d0:	0200c808 	andeq	ip, r0, #8, 16	; 0x80000
    10d4:	009e0204 	addseq	r0, lr, r4, lsl #4
    10d8:	f2010402 	vshl.s8	d0, d2, d1
    10dc:	02040200 	andeq	r0, r4, #0, 4
    10e0:	04020082 	streq	r0, [r2], #-130	; 0x82
    10e4:	0200d601 	andeq	sp, r0, #1048576	; 0x100000
    10e8:	069e0204 	ldreq	r0, [lr], r4, lsl #4
    10ec:	1703e808 	strne	lr, [r3, -r8, lsl #16]
    10f0:	019003d6 			; <UNDEFINED> instruction: 0x019003d6
    10f4:	2e013802 	cdpcs	8, 0, cr3, cr1, cr2, {0}
    10f8:	1e03a24b 	cdpne	2, 0, cr10, cr3, cr11, {2}
    10fc:	0200319e 	andeq	r3, r0, #-2147483609	; 0x80000027
    1100:	08d30104 	ldmeq	r3, {r2, r8}^
    1104:	04020098 	streq	r0, [r2], #-152	; 0x98
    1108:	2c020601 	stccs	6, cr0, [r2], {1}
    110c:	04020012 	streq	r0, [r2], #-18
    1110:	02009e02 	andeq	r9, r0, #2, 28
    1114:	bd060204 	sfmlt	f0, 4, [r6, #-16]
    1118:	01040200 	mrseq	r0, R12_usr
    111c:	02009e06 	andeq	r9, r0, #6, 28	; 0x60
    1120:	6c020204 	sfmvs	f0, 4, [r2], {4}
    1124:	02840612 	addeq	r0, r4, #18874368	; 0x1200000
    1128:	03821634 	orreq	r1, r2, #52, 12	; 0x3400000
    112c:	bfdb4a0b 	svclt	0x00db4a0b
    1130:	bb42086b 	bllt	10832e4 <load_address-0x9ef7cd1c>
    1134:	c04a0b03 	subgt	r0, sl, r3, lsl #22
    1138:	4a0f0382 	bmi	3c1f48 <load_address-0x9fc3e0b8>
    113c:	4bbbbedb 	blmi	feef0cb0 <stack_irq+0x5e6d3f58>
    1140:	110366a4 	smlatbne	r3, r4, r6, r6
    1144:	a084844a 	addge	r8, r4, sl, asr #8
    1148:	04020083 	streq	r0, [r2], #-131	; 0x83
    114c:	00d60601 	sbcseq	r0, r6, r1, lsl #12
    1150:	9e020402 	cdpls	4, 0, cr0, cr2, cr2, {0}
    1154:	d9ce0806 	stmible	lr, {r1, r2, fp}^
    1158:	2f4d6af8 	svccs	0x004d6af8
    115c:	9f4c4008 	svcls	0x004c4008
    1160:	3488869f 	strcc	r8, [r8], #1695	; 0x69f
    1164:	02006b84 	andeq	r6, r0, #132, 22	; 0x21000
    1168:	d6060104 	strle	r0, [r6], -r4, lsl #2
    116c:	0868dc06 	stmdaeq	r8!, {r1, r2, sl, fp, ip, lr, pc}^
    1170:	4b59083f 	blmi	1643274 <load_address-0x9e9bcd8c>
    1174:	2f304d6a 	svccs	0x00304d6a
    1178:	038313da 	orreq	r1, r3, #1744830467	; 0x68000003
    117c:	02004a0e 	andeq	r4, r0, #57344	; 0xe000
    1180:	006d0104 	rsbeq	r0, sp, r4, lsl #2
    1184:	03010402 	movweq	r0, #5122	; 0x1402
    1188:	02002e27 	andeq	r2, r0, #624	; 0x270
    118c:	03310104 	teqeq	r1, #4, 2
    1190:	bdbf2e10 	ldclt	14, cr2, [pc, #64]!	; 11d8 <load_address-0x9fffee28>
    1194:	694d686a 	stmdbvs	sp, {r1, r3, r5, r6, fp, sp, lr}^
    1198:	6986836a 	stmibvs	r6, {r1, r3, r5, r6, r8, r9, pc}
    119c:	1a036a83 	bne	dbbb0 <load_address-0x9ff24450>
    11a0:	4a170366 	bmi	5c1f40 <load_address-0x9fa3e0c0>
    11a4:	0402004d 	streq	r0, [r2], #-77	; 0x4d
    11a8:	02006802 	andeq	r6, r0, #131072	; 0x20000
    11ac:	3a080204 	bcc	2019c4 <load_address-0x9fdfe63c>
    11b0:	01040200 	mrseq	r0, R12_usr
    11b4:	6b066606 	blvs	19a9d4 <load_address-0x9fe6562c>
    11b8:	0a038383 	beq	e1fcc <load_address-0x9ff1e034>
    11bc:	9f9f8882 	svcls	0x009f8882
    11c0:	1f035c08 	svcne	0x00035c08
    11c4:	4c663201 	sfmmi	f3, 2, [r6], #-4
    11c8:	5d08bda0 	stcpl	13, cr11, [r8, #-640]	; 0xfffffd80
    11cc:	85bc4108 	ldrhi	r4, [ip, #264]!	; 0x108
    11d0:	68a32408 	stmiavs	r3!, {r3, sl, sp}
    11d4:	0402006b 	streq	r0, [r2], #-107	; 0x6b
    11d8:	00660601 	rsbeq	r0, r6, r1, lsl #12
    11dc:	ba020402 	blt	821ec <load_address-0x9ff7de14>
    11e0:	03040200 	movweq	r0, #16896	; 0x4200
    11e4:	0402002e 	streq	r0, [r2], #-46	; 0x2e
    11e8:	854c0603 	strbhi	r0, [ip, #-1539]	; 0x603
    11ec:	2ff66b4b 	svccs	0x00f66b4b
    11f0:	0200bf6c 	andeq	fp, r0, #108, 30	; 0x1b0
    11f4:	08060104 	stmdaeq	r6, {r2, r8}
    11f8:	04020090 	streq	r0, [r2], #-144	; 0x90
    11fc:	85069e02 	strhi	r9, [r6, #-3586]	; 0xe02
    1200:	01040200 	mrseq	r0, R12_usr
    1204:	00900806 	addseq	r0, r0, r6, lsl #16
    1208:	9e020402 	cdpls	4, 0, cr0, cr2, cr2, {0}
    120c:	02040200 	andeq	r0, r4, #0, 4
    1210:	02008906 	andeq	r8, r0, #98304	; 0x18000
    1214:	00be0204 	adcseq	r0, lr, r4, lsl #4
    1218:	02020402 	andeq	r0, r2, #33554432	; 0x2000000
    121c:	02001322 	andeq	r1, r0, #-2013265920	; 0x88000000
    1220:	83a00204 	movhi	r0, #4, 4	; 0x40000000
    1224:	9e00cf03 	cdpls	15, 0, cr12, cr0, cr3, {0}
    1228:	67303067 	ldrvs	r3, [r0, -r7, rrx]!
    122c:	01040200 	mrseq	r0, R12_usr
    1230:	2f4c8863 	svccs	0x004c8863
    1234:	2e823303 	cdpcs	3, 8, cr3, cr2, cr3, {0}
    1238:	032f8450 	teqeq	pc, #80, 8	; 0x50000000
    123c:	a0319e09 	eorsge	r9, r1, r9, lsl #28
    1240:	4e6aa06a 	cdpmi	0, 6, cr10, cr10, cr10, {3}
    1244:	4b66a62f 	blmi	19aab08 <load_address-0x9e6554f8>
    1248:	08daf54e 	ldmeq	sl, {r1, r2, r3, r6, r8, sl, ip, sp, lr, pc}^
    124c:	00bb8592 	umlalseq	r8, fp, r2, r5
    1250:	06010402 	streq	r0, [r1], -r2, lsl #8
    1254:	040200d6 	streq	r0, [r2], #-214	; 0xd6
    1258:	08069e02 	stmdaeq	r6, {r1, r9, sl, fp, ip, pc}
    125c:	67fabdcd 	ldrbvs	fp, [sl, sp, asr #27]!
    1260:	86be684c 	ldrthi	r6, [lr], ip, asr #16
    1264:	02009f83 	andeq	r9, r0, #524	; 0x20c
    1268:	d6060104 	strle	r0, [r6], -r4, lsl #2
    126c:	02040200 	andeq	r0, r4, #0, 4
    1270:	af08069e 	svcge	0x0008069e
    1274:	304b2ea6 	subcc	r2, fp, r6, lsr #29
    1278:	2e8abca0 	cdpcs	12, 8, cr11, cr10, cr0, {5}
    127c:	bcbca04b 	ldclt	0, cr10, [ip], #300	; 0x12c
    1280:	08024ebc 	stmdaeq	r2, {r2, r3, r4, r5, r7, r9, sl, fp, lr}
    1284:	80010100 	andhi	r0, r1, r0, lsl #2
    1288:	02000001 	andeq	r0, r0, #1
    128c:	00008800 	andeq	r8, r0, r0, lsl #16
    1290:	fb010200 	blx	41a9a <load_address-0x9ffbe566>
    1294:	01000d0e 	tsteq	r0, lr, lsl #26
    1298:	00010101 	andeq	r0, r1, r1, lsl #2
    129c:	00010000 	andeq	r0, r1, r0
    12a0:	6f530100 	svcvs	0x00530100
    12a4:	65637275 	strbvs	r7, [r3, #-629]!	; 0x275
    12a8:	756f5300 	strbvc	r5, [pc, #-768]!	; fb0 <load_address-0x9ffff050>
    12ac:	2f656372 	svccs	0x00656372
    12b0:	6c636e69 	stclvs	14, cr6, [r3], #-420	; 0xfffffe5c
    12b4:	00656475 	rsbeq	r6, r5, r5, ror r4
    12b8:	72756f53 	rsbsvc	r6, r5, #332	; 0x14c
    12bc:	702f6563 	eorvc	r6, pc, r3, ror #10
    12c0:	6174726f 	cmnvs	r4, pc, ror #4
    12c4:	2f656c62 	svccs	0x00656c62
    12c8:	2f434347 	svccs	0x00434347
    12cc:	5f4d5241 	svcpl	0x004d5241
    12d0:	74726f43 	ldrbtvc	r6, [r2], #-3907	; 0xf43
    12d4:	412d7865 	teqmi	sp, r5, ror #16
    12d8:	00003531 	andeq	r3, r0, r1, lsr r5
    12dc:	656d6974 	strbvs	r6, [sp, #-2420]!	; 0x974
    12e0:	632e7372 	teqvs	lr, #-939524095	; 0xc8000001
    12e4:	00000100 	andeq	r0, r0, r0, lsl #2
    12e8:	7473696c 	ldrbtvc	r6, [r3], #-2412	; 0x96c
    12ec:	0200682e 	andeq	r6, r0, #3014656	; 0x2e0000
    12f0:	6f700000 	svcvs	0x00700000
    12f4:	616d7472 	smcvs	55106	; 0xd742
    12f8:	2e6f7263 	cdpcs	2, 6, cr7, cr15, cr3, {3}
    12fc:	00030068 	andeq	r0, r3, r8, rrx
    1300:	65757100 	ldrbvs	r7, [r5, #-256]!	; 0x100
    1304:	682e6575 	stmdavs	lr!, {r0, r2, r4, r5, r6, r8, sl, sp, lr}
    1308:	00000200 	andeq	r0, r0, r0, lsl #4
    130c:	656d6974 	strbvs	r6, [sp, #-2420]!	; 0x974
    1310:	682e7372 	stmdavs	lr!, {r1, r4, r5, r6, r8, r9, ip, sp, lr}
    1314:	00000200 	andeq	r0, r0, r0, lsl #4
    1318:	02050000 	andeq	r0, r5, #0
    131c:	a0007dcc 	andge	r7, r0, ip, asr #27
    1320:	0101ae03 	tsteq	r1, r3, lsl #28
    1324:	a030504b 	eorsge	r5, r0, fp, asr #32
    1328:	2f162402 	svccs	0x00162402
    132c:	6b68bebe 	blvs	1a30e2c <load_address-0x9e5cf1d4>
    1330:	67316a67 	ldrvs	r6, [r1, -r7, ror #20]!
    1334:	67676767 	strbvs	r6, [r7, -r7, ror #14]!
    1338:	2f820a03 	svccs	0x00820a03
    133c:	a14fbb6a 	cmpge	pc, sl, ror #22
    1340:	684c4b4b 	stmdavs	ip, {r0, r1, r3, r6, r8, r9, fp, lr}^
    1344:	085c0884 	ldmdaeq	ip, {r2, r7, fp}^
    1348:	2f42085d 	svccs	0x0042085d
    134c:	87bb88da 	sbfxhi	r8, sl, #17, #28
    1350:	f978088a 			; <UNDEFINED> instruction: 0xf978088a
    1354:	02006a83 	andeq	r6, r0, #536576	; 0x83000
    1358:	0b030104 	bleq	c1770 <load_address-0x9ff3e890>
    135c:	04020066 	streq	r0, [r2], #-102	; 0x66
    1360:	02008601 	andeq	r8, r0, #1048576	; 0x100000
    1364:	00850104 	addeq	r0, r5, r4, lsl #2
    1368:	2f010402 	svccs	0x00010402
    136c:	83358633 	teqhi	r5, #53477376	; 0x3300000
    1370:	04020069 	streq	r0, [r2], #-105	; 0x69
    1374:	06660601 	strbteq	r0, [r6], -r1, lsl #12
    1378:	0a032f84 	beq	cd190 <load_address-0x9ff32e70>
    137c:	88220882 	stmdahi	r2!, {r1, r7, fp}
    1380:	01040200 	mrseq	r0, R12_usr
    1384:	c006ba06 	andgt	fp, r6, r6, lsl #20
    1388:	0a036a31 	beq	dbc54 <load_address-0x9ff243ac>
    138c:	8459084a 	ldrbhi	r0, [r9], #-2122	; 0x84a
    1390:	a22f4ddb 	eorge	r4, pc, #14016	; 0x36c0
    1394:	9fbc4c6a 	svcls	0x00bc4c6a
    1398:	2f846986 	svccs	0x00846986
    139c:	674cbbbe 			; <UNDEFINED> instruction: 0x674cbbbe
    13a0:	6ada8668 	bvs	ff6a2d48 <stack_irq+0x5ee85ff0>
    13a4:	02002508 	andeq	r2, r0, #8, 10	; 0x2000000
    13a8:	82060104 	andhi	r0, r6, #4, 2
    13ac:	f66a8706 			; <UNDEFINED> instruction: 0xf66a8706
    13b0:	8452a22f 	ldrbhi	sl, [r2], #-559	; 0x22f
    13b4:	85684f30 	strbhi	r4, [r8, #-3888]!	; 0xf30
    13b8:	7808f688 	stmdavc	r8, {r3, r7, r9, sl, ip, sp, lr, pc}
    13bc:	79088484 	stmdbvc	r8, {r2, r7, sl, pc}
    13c0:	21086852 	tstcs	r8, r2, asr r8
    13c4:	00324b33 	eorseq	r4, r2, r3, lsr fp
    13c8:	03010402 	movweq	r0, #5122	; 0x1402
    13cc:	3b032e48 	blcc	cccf4 <load_address-0x9ff3330c>
    13d0:	036a7408 	cmneq	sl, #8, 8	; 0x8000000
    13d4:	bd30660d 	ldclt	6, cr6, [r0, #-52]!	; 0xffffffcc
    13d8:	8a8487bb 	bhi	fe1232cc <stack_irq+0x5d906574>
    13dc:	6767849f 			; <UNDEFINED> instruction: 0x6767849f
    13e0:	02002408 	andeq	r2, r0, #8, 8	; 0x8000000
    13e4:	62030104 	andvs	r0, r3, #4, 2
    13e8:	ba2503f2 	blt	9423b8 <load_address-0x9f6bdc48>
    13ec:	0883bb83 	stmeq	r3, {r0, r1, r7, r8, r9, fp, ip, sp, pc}
    13f0:	a0303240 	eorsge	r3, r0, r0, asr #4
    13f4:	9f9f8383 	svcls	0x009f8383
    13f8:	24082fd9 	strcs	r2, [r8], #-4057	; 0xfd9
    13fc:	d8334d68 	ldmdale	r3!, {r3, r5, r6, r8, sl, fp, lr}
    1400:	4b6a2f30 	blmi	1a8d0c8 <load_address-0x9e572f38>
    1404:	06024b4c 	streq	r4, [r2], -ip, asr #22
    1408:	b0010100 	andlt	r0, r1, r0, lsl #2
    140c:	02000001 	andeq	r0, r0, #1
    1410:	00007000 	andeq	r7, r0, r0
    1414:	fb010200 	blx	41c1e <load_address-0x9ffbe3e2>
    1418:	01000d0e 	tsteq	r0, lr, lsl #26
    141c:	00010101 	andeq	r0, r1, r1, lsl #2
    1420:	00010000 	andeq	r0, r1, r0
    1424:	6f530100 	svcvs	0x00530100
    1428:	65637275 	strbvs	r7, [r3, #-629]!	; 0x275
    142c:	726f702f 	rsbvc	r7, pc, #47	; 0x2f
    1430:	6c626174 	stfvse	f6, [r2], #-464	; 0xfffffe30
    1434:	43472f65 	movtmi	r2, #32613	; 0x7f65
    1438:	52412f43 	subpl	r2, r1, #268	; 0x10c
    143c:	6f435f4d 	svcvs	0x00435f4d
    1440:	78657472 	stmdavc	r5!, {r1, r4, r5, r6, sl, ip, sp, lr}^
    1444:	3531412d 	ldrcc	r4, [r1, #-301]!	; 0x12d
    1448:	756f5300 	strbvc	r5, [pc, #-768]!	; 1150 <load_address-0x9fffeeb0>
    144c:	2f656372 	svccs	0x00656372
    1450:	6c636e69 	stclvs	14, cr6, [r3], #-420	; 0xfffffe5c
    1454:	00656475 	rsbeq	r6, r5, r5, ror r4
    1458:	6c636e69 	stclvs	14, cr6, [r3], #-420	; 0xfffffe5c
    145c:	00656475 	rsbeq	r6, r5, r5, ror r4
    1460:	726f7000 	rsbvc	r7, pc, #0
    1464:	00632e74 	rsbeq	r2, r3, r4, ror lr
    1468:	70000001 	andvc	r0, r0, r1
    146c:	646a6f72 	strbtvs	r6, [sl], #-3954	; 0xf72
    1470:	2e736665 	cdpcs	6, 7, cr6, cr3, cr5, {3}
    1474:	00020068 	andeq	r0, r2, r8, rrx
    1478:	64747300 	ldrbtvs	r7, [r4], #-768	; 0x300
    147c:	682e6f69 	stmdavs	lr!, {r0, r3, r5, r6, r8, r9, sl, fp, sp, lr}
    1480:	00000300 	andeq	r0, r0, r0, lsl #6
    1484:	02050000 	andeq	r0, r5, #0
    1488:	a00087b8 			; <UNDEFINED> instruction: 0xa00087b8
    148c:	01019103 	tsteq	r1, r3, lsl #2
    1490:	4b4b4b67 	blmi	12d4234 <load_address-0x9ed2bdcc>
    1494:	02040200 	andeq	r0, r4, #0, 4
    1498:	04020068 	streq	r0, [r2], #-104	; 0x68
    149c:	00c90802 	sbceq	r0, r9, r2, lsl #16
    14a0:	ef020402 	svc	0x00020402
    14a4:	01040200 	mrseq	r0, R12_usr
    14a8:	6b06f206 	blvs	1bdcc8 <load_address-0x9fe42338>
    14ac:	52836d2f 	addpl	r6, r3, #3008	; 0xbc0
    14b0:	67676767 	strbvs	r6, [r7, -r7, ror #14]!
    14b4:	67676767 	strbvs	r6, [r7, -r7, ror #14]!
    14b8:	2f686767 	svccs	0x00686767
    14bc:	0d03146a 	cfstrseq	mvf1, [r3, #-424]	; 0xfffffe58
    14c0:	14162008 	ldrne	r2, [r6], #-8
    14c4:	24021403 	strcs	r1, [r2], #-1027	; 0x403
    14c8:	83131601 	tsthi	r3, #1048576	; 0x100000
    14cc:	24021403 	strcs	r1, [r2], #-1027	; 0x403
    14d0:	0115bb01 	tsteq	r5, r1, lsl #22
    14d4:	167a084c 	ldrbtne	r0, [sl], -ip, asr #16
    14d8:	2f2f1614 	svccs	0x002f1614
    14dc:	4b4b3683 	blmi	12ceef0 <load_address-0x9ed31110>
    14e0:	00304b4b 	eorseq	r4, r0, fp, asr #22
    14e4:	2f020402 	svccs	0x00020402
    14e8:	02040200 	andeq	r0, r4, #0, 4
    14ec:	04020065 	streq	r0, [r2], #-101	; 0x65
    14f0:	06660601 	strbteq	r0, [r6], -r1, lsl #12
    14f4:	674b2308 	strbvs	r2, [fp, -r8, lsl #6]
    14f8:	2f4d2f68 	svccs	0x004d2f68
    14fc:	312f4b2f 	teqcc	pc, pc, lsr #22
    1500:	302f8330 	eorcc	r8, pc, r0, lsr r3	; <UNPREDICTABLE>
    1504:	2f4e4a31 	svccs	0x004e4a31
    1508:	835c0884 	cmphi	ip, #132, 16	; 0x840000
    150c:	83322f83 	teqhi	r2, #524	; 0x20c
    1510:	24082f31 	strcs	r2, [r8], #-3889	; 0xf31
    1514:	4b683215 	blmi	1a0dd70 <load_address-0x9e5f2290>
    1518:	512f8331 	teqpl	pc, r1, lsr r3	; <UNPREDICTABLE>
    151c:	4a090333 	bmi	2421f0 <load_address-0x9fdbde10>
    1520:	67838331 			; <UNDEFINED> instruction: 0x67838331
    1524:	83314d4c 	teqhi	r1, #76, 26	; 0x1300
    1528:	4b836767 	blmi	fe0db2cc <stack_irq+0x5d8be574>
    152c:	4b4a514b 	blmi	1295a60 <load_address-0x9ed6a5a0>
    1530:	88590830 	ldmdahi	r9, {r4, r5, fp}^
    1534:	67834c9e 			; <UNDEFINED> instruction: 0x67834c9e
    1538:	67836783 	strvs	r6, [r3, r3, lsl #15]
    153c:	69674d4b 	stmdbvs	r7!, {r0, r1, r3, r6, r8, sl, fp, lr}^
    1540:	23089fbc 	movwcs	r9, #36796	; 0x8fbc
    1544:	67836783 	strvs	r6, [r3, r3, lsl #15]
    1548:	02686c83 	rsbeq	r6, r8, #33536	; 0x8300
    154c:	2308162a 	movwcs	r1, #34346	; 0x862a
    1550:	02682308 	rsbeq	r2, r8, #8, 6	; 0x20000000
    1554:	2a021328 	bcs	861fc <load_address-0x9ff79e04>
    1558:	132a0217 	teqne	sl, #1879048193	; 0x70000001
    155c:	a2152a02 	andsge	r2, r5, #8192	; 0x2000
    1560:	684b4b4a 	stmdavs	fp, {r1, r3, r6, r8, r9, fp, lr}^
    1564:	69a2844d 	stmibvs	r2!, {r0, r2, r3, r6, sl, pc}
    1568:	01040200 	mrseq	r0, R12_usr
    156c:	db06d606 	blle	1b6d8c <load_address-0x9fe49274>
    1570:	a288e708 	addge	lr, r8, #8, 14	; 0x200000
    1574:	2f83832f 	svccs	0x0083832f
    1578:	4e834b6a 	cdpmi	11, 8, cr4, cr3, cr10, {3}
    157c:	03314e4d 	teqeq	r1, #1232	; 0x4d0
    1580:	684b4a11 	stmdavs	fp, {r0, r4, r9, fp, lr}^
    1584:	01040200 	mrseq	r0, R12_usr
    1588:	006888f0 	strdeq	r8, [r8], #-128	; 0xffffff80	; <UNPREDICTABLE>
    158c:	9c010402 	cfstrsls	mvf0, [r1], {2}
    1590:	02220388 	eoreq	r0, r2, #136, 6	; 0x20000002
    1594:	674b0140 	strbvs	r0, [fp, -r0, asr #2]
    1598:	04020068 	streq	r0, [r2], #-104	; 0x68
    159c:	6788f001 	strvs	pc, [r8, r1]
    15a0:	03695050 	cmneq	r9, #80	; 0x50
    15a4:	13be4a12 			; <UNDEFINED> instruction: 0x13be4a12
    15a8:	01040200 	mrseq	r0, R12_usr
    15ac:	0013332f 	andseq	r3, r3, pc, lsr #6
    15b0:	2f010402 	svccs	0x00010402
    15b4:	04020033 	streq	r0, [r2], #-51	; 0x33
    15b8:	02021401 	andeq	r1, r2, #16777216	; 0x1000000
    15bc:	a1010100 	mrsge	r0, (UNDEF: 17)
    15c0:	02000000 	andeq	r0, r0, #0
    15c4:	00006c00 	andeq	r6, r0, r0, lsl #24
    15c8:	fb010200 	blx	41dd2 <load_address-0x9ffbe22e>
    15cc:	01000d0e 	tsteq	r0, lr, lsl #26
    15d0:	00010101 	andeq	r0, r1, r1, lsl #2
    15d4:	00010000 	andeq	r0, r1, r0
    15d8:	6f530100 	svcvs	0x00530100
    15dc:	65637275 	strbvs	r7, [r3, #-629]!	; 0x275
    15e0:	726f702f 	rsbvc	r7, pc, #47	; 0x2f
    15e4:	6c626174 	stfvse	f6, [r2], #-464	; 0xfffffe30
    15e8:	654d2f65 	strbvs	r2, [sp, #-3941]	; 0xf65
    15ec:	6e614d6d 	cdpvs	13, 6, cr4, cr1, cr13, {3}
    15f0:	752f0067 	strvc	r0, [pc, #-103]!	; 1591 <load_address-0x9fffea6f>
    15f4:	6c2f7273 	sfmvs	f7, 4, [pc], #-460	; 1430 <load_address-0x9fffebd0>
    15f8:	672f6269 	strvs	r6, [pc, -r9, ror #4]!
    15fc:	612f6363 	teqvs	pc, r3, ror #6
    1600:	6e2d6d72 	mcrvs	13, 1, r6, cr13, cr2, {3}
    1604:	2d656e6f 	stclcs	14, cr6, [r5, #-444]!	; 0xfffffe44
    1608:	69626165 	stmdbvs	r2!, {r0, r2, r5, r6, r8, sp, lr}^
    160c:	382e342f 	stmdacc	lr!, {r0, r1, r2, r3, r5, sl, ip, sp}
    1610:	692f322e 	stmdbvs	pc!, {r1, r2, r3, r5, r9, ip, sp}	; <UNPREDICTABLE>
    1614:	756c636e 	strbvc	r6, [ip, #-878]!	; 0x36e
    1618:	00006564 	andeq	r6, r0, r4, ror #10
    161c:	70616568 	rsbvc	r6, r1, r8, ror #10
    1620:	632e315f 	teqvs	lr, #-1073741801	; 0xc0000017
    1624:	00000100 	andeq	r0, r0, r0, lsl #2
    1628:	64647473 	strbtvs	r7, [r4], #-1139	; 0x473
    162c:	682e6665 	stmdavs	lr!, {r0, r2, r5, r6, r9, sl, sp, lr}
    1630:	00000200 	andeq	r0, r0, r0, lsl #4
    1634:	02050000 	andeq	r0, r5, #0
    1638:	a0009358 	andge	r9, r0, r8, asr r3
    163c:	0100d903 	tsteq	r0, r3, lsl #18
    1640:	86854e67 	strhi	r4, [r5], r7, ror #28
    1644:	04020031 	streq	r0, [r2], #-49	; 0x31
    1648:	0200d701 	andeq	sp, r0, #262144	; 0x40000
    164c:	4ff10104 	svcmi	0x00f10104
    1650:	6932f5d7 	ldmdbvs	r2!, {r0, r1, r2, r4, r6, r7, r8, sl, ip, sp, lr, pc}
    1654:	40082f33 	andmi	r2, r8, r3, lsr pc
    1658:	83144e4f 	tsthi	r4, #1264	; 0x4f0
    165c:	0283134e 	addeq	r1, r3, #939524097	; 0x38000001
    1660:	01010006 	tsteq	r1, r6

Disassembly of section .debug_str:

00000000 <.debug_str>:
       0:	7974635f 	ldmdbvc	r4!, {r0, r1, r2, r3, r4, r6, r8, r9, sp, lr}^
       4:	65006570 	strvs	r6, [r0, #-1392]	; 0x570
       8:	68435f6d 	stmdavs	r3, {r0, r2, r3, r5, r6, r8, r9, sl, fp, ip, lr}^
       c:	336b6365 	cmncc	fp, #-1811939327	; 0x94000001
      10:	70417600 	subvc	r7, r1, r0, lsl #12
      14:	63696c70 	cmnvs	r9, #112, 24	; 0x7000
      18:	6f697461 	svcvs	0x00697461
      1c:	6c64496e 	stclvs	9, cr4, [r4], #-440	; 0xfffffe48
      20:	6f6f4865 	svcvs	0x006f4865
      24:	6544006b 	strbvs	r0, [r4, #-107]	; 0x6b
      28:	6d2f6f6d 	stcvs	15, cr6, [pc, #-436]!	; fffffe7c <stack_irq+0x5f7e3124>
      2c:	2e6e6961 	cdpcs	9, 6, cr6, cr14, cr1, {3}
      30:	616d0063 	cmnvs	sp, r3, rrx
      34:	49006e69 	stmdbmi	r0, {r0, r3, r5, r6, r9, sl, fp, sp, lr}
      38:	43656c64 	cmnmi	r5, #100, 24	; 0x6400
      3c:	6b636568 	blvs	18d95e4 <load_address-0x9e726a1c>
      40:	726f7000 	rsbvc	r7, pc, #0
      44:	00355f74 	eorseq	r5, r5, r4, ror pc
      48:	74726f70 	ldrbtvc	r6, [r2], #-3952	; 0xf70
      4c:	7000365f 	andvc	r3, r0, pc, asr r6
      50:	5f74726f 	svcpl	0x0074726f
      54:	76700038 			; <UNDEFINED> instruction: 0x76700038
      58:	61726150 	cmnvs	r2, r0, asr r1
      5c:	6574656d 	ldrbvs	r6, [r4, #-1389]!	; 0x56d
      60:	76007372 			; <UNDEFINED> instruction: 0x76007372
      64:	6c707041 	ldclvs	0, cr7, [r0], #-260	; 0xfffffefc
      68:	74616369 	strbtvc	r6, [r1], #-873	; 0x369
      6c:	546e6f69 	strbtpl	r6, [lr], #-3945	; 0xf69
      70:	486b6369 	stmdami	fp!, {r0, r3, r5, r6, r8, r9, sp, lr}^
      74:	006b6f6f 	rsbeq	r6, fp, pc, ror #30
      78:	5f6b736d 	svcpl	0x006b736d
      7c:	5f746e69 	svcpl	0x00746e69
      80:	00626e65 	rsbeq	r6, r2, r5, ror #28
      84:	53767270 	cmnpl	r6, #112, 4
      88:	70757465 	rsbsvc	r7, r5, r5, ror #8
      8c:	64726148 	ldrbtvs	r6, [r2], #-328	; 0x148
      90:	65726177 	ldrbvs	r6, [r2, #-375]!	; 0x177
      94:	6e6f6c00 	cdpvs	12, 6, cr6, cr15, cr0, {0}
      98:	6f6c2067 	svcvs	0x006c2067
      9c:	6920676e 	stmdbvs	r0!, {r1, r2, r3, r5, r6, r8, r9, sl, sp, lr}
      a0:	2f00746e 	svccs	0x0000746e
      a4:	746f6f72 	strbtvc	r6, [pc], #-3954	; ac <load_address-0x9fffff54>
      a8:	6d69732f 	stclvs	3, cr7, [r9, #-188]!	; 0xffffff44
      ac:	6d6f632f 	stclvs	3, cr6, [pc, #-188]!	; fffffff8 <stack_irq+0x5f7e32a0>
      b0:	74656c70 	strbtvc	r6, [r5], #-3184	; 0xc70
      b4:	75662f65 	strbvc	r2, [r6, #-3941]!	; 0xf65
      b8:	6f636c6c 	svcvs	0x00636c6c
      bc:	656c706d 	strbvs	r7, [ip, #-109]!	; 0x6d
      c0:	645f6574 	ldrbvs	r6, [pc], #-1396	; c8 <load_address-0x9fffff38>
      c4:	6d746e6f 	ldclvs	14, cr6, [r4, #-444]!	; 0xfffffe44
      c8:	6669646f 	strbtvs	r6, [r9], -pc, ror #8
      cc:	4b542f79 	blmi	150beb8 <load_address-0x9eaf4148>
      d0:	72462f31 	subvc	r2, r6, #49, 30	; 0xc4
      d4:	54526565 	ldrbpl	r6, [r2], #-1381	; 0x565
      d8:	545f534f 	ldrbpl	r5, [pc], #-847	; e0 <load_address-0x9fffff20>
      dc:	515f314b 	cmppl	pc, fp, asr #2
      e0:	675f4850 			; <UNDEFINED> instruction: 0x675f4850
      e4:	006f6970 	rsbeq	r6, pc, r0, ror r9	; <UNPREDICTABLE>
      e8:	5f6b736d 	svcpl	0x006b736d
      ec:	0074756f 	rsbseq	r7, r4, pc, ror #10
      f0:	5f6b736d 	svcpl	0x006b736d
      f4:	5f746e69 	svcpl	0x00746e69
      f8:	00617473 	rsbeq	r7, r1, r3, ror r4
      fc:	726f5076 	rsbvc	r5, pc, #118	; 0x76
     100:	6b6e5574 	blvs	1b956d8 <load_address-0x9e46a928>
     104:	6e776f6e 	cdpvs	15, 7, cr6, cr7, cr14, {3}
     108:	65746e49 	ldrbvs	r6, [r4, #-3657]!	; 0xe49
     10c:	70757272 	rsbsvc	r7, r5, r2, ror r2
     110:	6e614874 	mcrvs	8, 3, r4, cr1, cr4, {3}
     114:	72656c64 	rsbvc	r6, r5, #100, 24	; 0x6400
     118:	70417600 	subvc	r7, r1, r0, lsl #12
     11c:	63696c70 	cmnvs	r9, #112, 24	; 0x7000
     120:	6f697461 	svcvs	0x00697461
     124:	6c614d6e 	stclvs	13, cr4, [r1], #-440	; 0xfffffe48
     128:	46636f6c 	strbtmi	r6, [r3], -ip, ror #30
     12c:	656c6961 	strbvs	r6, [ip, #-2401]!	; 0x961
     130:	6f6f4864 	svcvs	0x006f4864
     134:	6e75006b 	cdpvs	0, 7, cr0, cr5, cr11, {3}
     138:	6e676973 	mcrvs	9, 3, r6, cr7, cr3, {3}
     13c:	63206465 	teqvs	r0, #1694498816	; 0x65000000
     140:	00726168 	rsbseq	r6, r2, r8, ror #2
     144:	676e6f6c 	strbvs	r6, [lr, -ip, ror #30]!
     148:	6e6f6c20 	cdpvs	12, 6, cr6, cr15, cr0, {1}
     14c:	6e752067 	cdpvs	0, 7, cr2, cr5, cr7, {3}
     150:	6e676973 	mcrvs	9, 3, r6, cr7, cr3, {3}
     154:	69206465 	stmdbvs	r0!, {r0, r2, r5, r6, sl, sp, lr}
     158:	4700746e 	strmi	r7, [r0, -lr, ror #8]
     15c:	4320554e 	teqmi	r0, #327155712	; 0x13800000
     160:	382e3420 	stmdacc	lr!, {r5, sl, ip, sp}
     164:	2d20322e 	sfmcs	f3, 4, [r0, #-184]!	; 0xffffff48
     168:	7570636d 	ldrbvc	r6, [r0, #-877]!	; 0x36d
     16c:	726f633d 	rsbvc	r6, pc, #-201326592	; 0xf4000000
     170:	2d786574 	cfldr64cs	mvdx6, [r8, #-464]!	; 0xfffffe30
     174:	20353161 	eorscs	r3, r5, r1, ror #2
     178:	2d20672d 	stccs	7, cr6, [r0, #-180]!	; 0xffffff4c
     17c:	43495066 	movtmi	r5, #36966	; 0x9066
     180:	6e662d20 	cdpvs	13, 6, cr2, cr6, cr0, {1}
     184:	75622d6f 	strbvc	r2, [r2, #-3439]!	; 0xd6f
     188:	69746c69 	ldmdbvs	r4!, {r0, r3, r5, r6, sl, fp, sp, lr}^
     18c:	662d206e 	strtvs	r2, [sp], -lr, rrx
     190:	74696d6f 	strbtvc	r6, [r9], #-3439	; 0xd6f
     194:	6172662d 	cmnvs	r2, sp, lsr #12
     198:	702d656d 	eorvc	r6, sp, sp, ror #10
     19c:	746e696f 	strbtvc	r6, [lr], #-2415	; 0x96f
     1a0:	2d207265 	sfmcs	f7, 4, [r0, #-404]!	; 0xfffffe6c
     1a4:	2d6f6e66 	stclcs	14, cr6, [pc, #-408]!	; 14 <load_address-0x9fffffec>
     1a8:	63617473 	cmnvs	r1, #1929379840	; 0x73000000
     1ac:	72702d6b 	rsbsvc	r2, r0, #6848	; 0x1ac0
     1b0:	6365746f 	cmnvs	r5, #1862270976	; 0x6f000000
     1b4:	00726f74 	rsbseq	r6, r2, r4, ror pc
     1b8:	75626564 	strbvc	r6, [r2, #-1380]!	; 0x564
     1bc:	68730067 	ldmdavs	r3!, {r0, r1, r2, r5, r6}^
     1c0:	2074726f 	rsbscs	r7, r4, pc, ror #4
     1c4:	69736e75 	ldmdbvs	r3!, {r0, r2, r4, r5, r6, r9, sl, fp, sp, lr}^
     1c8:	64656e67 	strbtvs	r6, [r5], #-3687	; 0xe67
     1cc:	746e6920 	strbtvc	r6, [lr], #-2336	; 0x920
     1d0:	69706700 	ldmdbvs	r0!, {r8, r9, sl, sp, lr}^
     1d4:	6d00336f 	stcvs	3, cr3, [r0, #-444]	; 0xfffffe44
     1d8:	6f5f6b73 	svcvs	0x005f6b73
     1dc:	6d650065 	stclvs	0, cr0, [r5, #-404]!	; 0xfffffe6c
     1e0:	6568435f 	strbvs	r4, [r8, #-863]!	; 0x35f
     1e4:	00326b63 	eorseq	r6, r2, r3, ror #22
     1e8:	74726f70 	ldrbtvc	r6, [r2], #-3952	; 0xf70
     1ec:	6f507600 	svcvs	0x00507600
     1f0:	6e497472 	mcrvs	4, 2, r7, cr9, cr2, {3}
     1f4:	6c617473 	cfstrdvs	mvd7, [r1], #-460	; 0xfffffe34
     1f8:	746e496c 	strbtvc	r4, [lr], #-2412	; 0x96c
     1fc:	75727265 	ldrbvc	r7, [r2, #-613]!	; 0x265
     200:	61487470 	hvcvs	34624	; 0x8740
     204:	656c646e 	strbvs	r6, [ip, #-1134]!	; 0x46e
     208:	736d0072 	cmnvc	sp, #114	; 0x72
     20c:	6e695f6b 	cdpvs	15, 6, cr5, cr9, cr11, {3}
     210:	766c5f74 	uqsub16vc	r5, ip, r4
     214:	4376006c 	cmnmi	r6, #108	; 0x6c
     218:	6b636568 	blvs	18d97c0 <load_address-0x9e726840>
     21c:	6b736154 	blvs	1cd8774 <load_address-0x9e32788c>
     220:	69706700 	ldmdbvs	r0!, {r8, r9, sl, sp, lr}^
     224:	61625f6f 	cmnvs	r2, pc, ror #30
     228:	6d006b6e 	vstrvs	d6, [r0, #-440]	; 0xfffffe48
     22c:	635f6b73 	cmpvs	pc, #117760	; 0x1cc00
     230:	7500666e 	strvc	r6, [r0, #-1646]	; 0x66e
     234:	6365566c 	cmnvs	r5, #108, 12	; 0x6c00000
     238:	00726f74 	rsbseq	r6, r2, r4, ror pc
     23c:	5f746e69 	svcpl	0x00746e69
     240:	00726c63 	rsbseq	r6, r2, r3, ror #24
     244:	3164656c 	cmncc	r4, ip, ror #10
     248:	64656c00 	strbtvs	r6, [r5], #-3072	; 0xc00
     24c:	70670032 	rsbvc	r0, r7, r2, lsr r0
     250:	00326f69 	eorseq	r6, r2, r9, ror #30
     254:	657a6973 	ldrbvs	r6, [sl, #-2419]!	; 0x973
     258:	65707974 	ldrbvs	r7, [r0, #-2420]!	; 0x974
     25c:	69706700 	ldmdbvs	r0!, {r8, r9, sl, sp, lr}^
     260:	6700346f 	strvs	r3, [r0, -pc, ror #8]
     264:	356f6970 	strbcc	r6, [pc, #-2416]!	; fffff8fc <stack_irq+0x5f7e2ba4>
     268:	69706700 	ldmdbvs	r0!, {r8, r9, sl, sp, lr}^
     26c:	6700366f 	strvs	r3, [r0, -pc, ror #12]
     270:	386f6970 	stmdacc	pc!, {r4, r5, r6, r8, fp, sp, lr}^	; <UNPREDICTABLE>
     274:	73657200 	cmnvc	r5, #0, 4
     278:	65720031 	ldrbvs	r0, [r2, #-49]!	; 0x31
     27c:	6c003273 	sfmvs	f3, 4, [r0], {115}	; 0x73
     280:	00306465 	eorseq	r6, r0, r5, ror #8
     284:	74697277 	strbtvc	r7, [r9], #-631	; 0x277
     288:	49475f65 	stmdbmi	r7, {r0, r2, r5, r6, r8, r9, sl, fp, ip, lr}^
     28c:	435f4443 	cmpmi	pc, #1124073472	; 0x43000000
     290:	00524c54 	subseq	r4, r2, r4, asr ip
     294:	64616572 	strbtvs	r6, [r1], #-1394	; 0x572
     298:	4349475f 	movtmi	r4, #38751	; 0x975f
     29c:	53495f44 	movtpl	r5, #40772	; 0x9f44
     2a0:	49544341 	ldmdbmi	r4, {r0, r6, r8, r9, lr}^
     2a4:	00524556 	subseq	r4, r2, r6, asr r5
     2a8:	74697277 	strbtvc	r7, [r9], #-631	; 0x277
     2ac:	72770065 	rsbsvc	r0, r7, #101	; 0x65
     2b0:	5f657469 	svcpl	0x00657469
     2b4:	44434947 	strbmi	r4, [r3], #-2375	; 0x947
     2b8:	4543495f 	strbmi	r4, [r3, #-2399]	; 0x95f
     2bc:	4c42414e 	stfmie	f4, [r2], {78}	; 0x4e
     2c0:	67005245 	strvs	r5, [r0, -r5, asr #4]
     2c4:	5f646369 	svcpl	0x00646369
     2c8:	5f746573 	svcpl	0x00746573
     2cc:	62616e65 	rsbvs	r6, r1, #1616	; 0x650
     2d0:	695f656c 	ldmdbvs	pc, {r2, r3, r5, r6, r8, sl, sp, lr}^	; <UNPREDICTABLE>
     2d4:	72007172 	andvc	r7, r0, #-2147483620	; 0x8000001c
     2d8:	5f646165 	svcpl	0x00646165
     2dc:	43434947 	movtmi	r4, #14663	; 0x3947
     2e0:	5050485f 	subspl	r4, r0, pc, asr r8
     2e4:	47005249 	strmi	r5, [r0, -r9, asr #4]
     2e8:	535f4349 	cmppl	pc, #603979777	; 0x24000001
     2ec:	565f5445 	ldrbpl	r5, [pc], -r5, asr #8
     2f0:	45554c41 	ldrbmi	r4, [r5, #-3137]	; 0xc41
     2f4:	61657200 	cmnvs	r5, r0, lsl #4
     2f8:	49475f64 	stmdbmi	r7, {r2, r5, r6, r8, r9, sl, fp, ip, lr}^
     2fc:	495f4443 	ldmdbmi	pc, {r0, r1, r6, sl, lr}^	; <UNPREDICTABLE>
     300:	4e455053 	mcrmi	0, 2, r5, cr5, cr3, {2}
     304:	67005244 	strvs	r5, [r0, -r4, asr #4]
     308:	5f646369 	svcpl	0x00646369
     30c:	5f726c63 	svcpl	0x00726c63
     310:	646e6570 	strbtvs	r6, [lr], #-1392	; 0x570
     314:	5f676e69 	svcpl	0x00676e69
     318:	00717269 	rsbseq	r7, r1, r9, ror #4
     31c:	63636967 	cmnvs	r3, #1687552	; 0x19c000
     320:	7465735f 	strbtvc	r7, [r5], #-863	; 0x35f
     324:	6972705f 	ldmdbvs	r2!, {r0, r1, r2, r3, r4, r6, ip, sp, lr}^
     328:	7469726f 	strbtvc	r7, [r9], #-623	; 0x26f
     32c:	65725f79 	ldrbvs	r5, [r2, #-3961]!	; 0xf79
     330:	74736967 	ldrbtvc	r6, [r3], #-2407	; 0x967
     334:	67007265 	strvs	r7, [r0, -r5, ror #4]
     338:	5f636369 	svcpl	0x00636369
     33c:	6e6e7572 	mcrvs	5, 3, r7, cr14, cr2, {3}
     340:	5f676e69 	svcpl	0x00676e69
     344:	6f697270 	svcvs	0x00697270
     348:	79746972 	ldmdbvc	r4!, {r1, r4, r5, r6, r8, fp, sp, lr}^
     34c:	63696700 	cmnvs	r9, #0, 14
     350:	6e655f63 	cdpvs	15, 6, cr5, cr5, cr3, {3}
     354:	656c6261 	strbvs	r6, [ip, #-609]!	; 0x261
     358:	7570635f 	ldrbvc	r6, [r0, #-863]!	; 0x35f
     35c:	746e695f 	strbtvc	r6, [lr], #-2399	; 0x95f
     360:	61667265 	cmnvs	r6, r5, ror #4
     364:	72006563 	andvc	r6, r0, #415236096	; 0x18c00000
     368:	5f646165 	svcpl	0x00646165
     36c:	43434947 	movtmi	r4, #14663	; 0x3947
     370:	41534e5f 	cmpmi	r3, pc, asr lr
     374:	77005250 	smlsdvc	r0, r0, r2, r5
     378:	65746972 	ldrbvs	r6, [r4, #-2418]!	; 0x972
     37c:	4349475f 	movtmi	r4, #38751	; 0x975f
     380:	53495f44 	movtpl	r5, #40772	; 0x9f44
     384:	49544341 	ldmdbmi	r4, {r0, r6, r8, r9, lr}^
     388:	00524556 	subseq	r4, r2, r6, asr r5
     38c:	74697277 	strbtvc	r7, [r9], #-631	; 0x277
     390:	49475f65 	stmdbmi	r7, {r0, r2, r5, r6, r8, r9, sl, fp, ip, lr}^
     394:	495f4443 	ldmdbmi	pc, {r0, r1, r6, sl, lr}^	; <UNPREDICTABLE>
     398:	414e4553 	cmpmi	lr, r3, asr r5
     39c:	52454c42 	subpl	r4, r5, #16896	; 0x4200
     3a0:	63696700 	cmnvs	r9, #0, 14
     3a4:	00706f5f 	rsbseq	r6, r0, pc, asr pc
     3a8:	64636967 	strbtvs	r6, [r3], #-2407	; 0x967
     3ac:	726c635f 	rsbvc	r6, ip, #2080374785	; 0x7c000001
     3b0:	616e655f 	cmnvs	lr, pc, asr r5
     3b4:	5f656c62 	svcpl	0x00656c62
     3b8:	00717269 	rsbseq	r7, r1, r9, ror #4
     3bc:	64616572 	strbtvs	r6, [r1], #-1394	; 0x572
     3c0:	4349475f 	movtmi	r4, #38751	; 0x975f
     3c4:	50535f44 	subspl	r5, r3, r4, asr #30
     3c8:	53444e45 	movtpl	r4, #20037	; 0x4e45
     3cc:	00524947 	subseq	r4, r2, r7, asr #18
     3d0:	64616572 	strbtvs	r6, [r1], #-1394	; 0x572
     3d4:	4349475f 	movtmi	r4, #38751	; 0x975f
     3d8:	50435f44 	subpl	r5, r3, r4, asr #30
     3dc:	53444e45 	movtpl	r4, #20037	; 0x4e45
     3e0:	00524947 	subseq	r4, r2, r7, asr #18
     3e4:	64636967 	strbtvs	r6, [r3], #-2407	; 0x967
     3e8:	7465735f 	strbtvc	r7, [r5], #-863	; 0x35f
     3ec:	6e65705f 	mcrvs	0, 3, r7, cr5, cr15, {2}
     3f0:	676e6964 	strbvs	r6, [lr, -r4, ror #18]!
     3f4:	7172695f 	cmnvc	r2, pc, asr r9
     3f8:	69727700 	ldmdbvs	r2!, {r8, r9, sl, ip, sp, lr}^
     3fc:	475f6574 			; <UNDEFINED> instruction: 0x475f6574
     400:	5f444349 	svcpl	0x00444349
     404:	45505954 	ldrbmi	r5, [r0, #-2388]	; 0x954
     408:	72770052 	rsbsvc	r0, r7, #82	; 0x52
     40c:	5f657469 	svcpl	0x00657469
     410:	44434947 	strbmi	r4, [r3], #-2375	; 0x947
     414:	4143495f 	cmpmi	r3, pc, asr r9
     418:	56495443 	strbpl	r5, [r9], -r3, asr #8
     41c:	72005245 	andvc	r5, r0, #1342177284	; 0x50000004
     420:	5f646165 	svcpl	0x00646165
     424:	44434947 	strbmi	r4, [r3], #-2375	; 0x947
     428:	4553495f 	ldrbmi	r4, [r3, #-2399]	; 0x95f
     42c:	4c42414e 	stfmie	f4, [r2], {78}	; 0x4e
     430:	72005245 	andvc	r5, r0, #1342177284	; 0x50000004
     434:	5f646165 	svcpl	0x00646165
     438:	43434947 	movtmi	r4, #14663	; 0x3947
     43c:	5250415f 	subspl	r4, r0, #-1073741801	; 0xc0000017
     440:	63696700 	cmnvs	r9, #0, 14
     444:	65735f64 	ldrbvs	r5, [r3, #-3940]!	; 0xf64
     448:	63615f74 	cmnvs	r1, #116, 30	; 0x1d0
     44c:	65766974 	ldrbvs	r6, [r6, #-2420]!	; 0x974
     450:	7172695f 	cmnvc	r2, pc, asr r9
     454:	61657200 	cmnvs	r5, r0, lsl #4
     458:	49470064 	stmdbmi	r7, {r2, r5, r6}^
     45c:	4c435f43 	mcrrmi	15, 4, r5, r3, cr3
     460:	41565f52 	cmpmi	r6, r2, asr pc
     464:	0045554c 	subeq	r5, r5, ip, asr #10
     468:	74697277 	strbtvc	r7, [r9], #-631	; 0x277
     46c:	49475f65 	stmdbmi	r7, {r0, r2, r5, r6, r8, r9, sl, fp, ip, lr}^
     470:	495f4443 	ldmdbmi	pc, {r0, r1, r6, sl, lr}^	; <UNPREDICTABLE>
     474:	4e455053 	mcrmi	0, 2, r5, cr5, cr3, {2}
     478:	67005244 	strvs	r5, [r0, -r4, asr #4]
     47c:	5f636369 	svcpl	0x00636369
     480:	5f696f65 	svcpl	0x00696f65
     484:	65646f6d 	strbvs	r6, [r4, #-3949]!	; 0xf6d
     488:	63696700 	cmnvs	r9, #0, 14
     48c:	69645f64 	stmdbvs	r4!, {r2, r5, r6, r8, r9, sl, fp, ip, lr}^
     490:	6c626173 	stfvse	f6, [r2], #-460	; 0xfffffe34
     494:	72695f65 	rsbvc	r5, r9, #404	; 0x194
     498:	6f665f71 	svcvs	0x00665f71
     49c:	72617772 	rsbvc	r7, r1, #29884416	; 0x1c80000
     4a0:	676e6964 	strbvs	r6, [lr, -r4, ror #18]!
     4a4:	69727700 	ldmdbvs	r2!, {r8, r9, sl, ip, sp, lr}^
     4a8:	475f6574 			; <UNDEFINED> instruction: 0x475f6574
     4ac:	5f434349 	svcpl	0x00434349
     4b0:	00525041 	subseq	r5, r2, r1, asr #32
     4b4:	64616572 	strbtvs	r6, [r1], #-1394	; 0x572
     4b8:	4349475f 	movtmi	r4, #38751	; 0x975f
     4bc:	54435f43 	strbpl	r5, [r3], #-3907	; 0xf43
     4c0:	6100524c 	tstvs	r0, ip, asr #4
     4c4:	00726464 	rsbseq	r6, r2, r4, ror #8
     4c8:	64636967 	strbtvs	r6, [r3], #-2407	; 0x967
     4cc:	6e65735f 	mcrvs	3, 3, r7, cr5, cr15, {2}
     4d0:	67735f64 	ldrbvs	r5, [r3, -r4, ror #30]!
     4d4:	6f745f69 	svcvs	0x00745f69
     4d8:	7570635f 	ldrbvc	r6, [r0, #-863]!	; 0x35f
     4dc:	69727700 	ldmdbvs	r2!, {r8, r9, sl, ip, sp, lr}^
     4e0:	475f6574 			; <UNDEFINED> instruction: 0x475f6574
     4e4:	5f444349 	svcpl	0x00444349
     4e8:	4e455043 	cdpmi	0, 4, cr5, cr5, cr3, {2}
     4ec:	49475344 	stmdbmi	r7, {r2, r6, r8, r9, ip, lr}^
     4f0:	65720052 	ldrbvs	r0, [r2, #-82]!	; 0x52
     4f4:	475f6461 	ldrbmi	r6, [pc, -r1, ror #8]
     4f8:	5f434349 	svcpl	0x00434349
     4fc:	00525042 	subseq	r5, r2, r2, asr #32
     500:	5f757063 	svcpl	0x00757063
     504:	67006469 	strvs	r6, [r0, -r9, ror #8]
     508:	5f646369 	svcpl	0x00646369
     50c:	5f726c63 	svcpl	0x00726c63
     510:	69746361 	ldmdbvs	r4!, {r0, r5, r6, r8, r9, sp, lr}^
     514:	695f6576 	ldmdbvs	pc, {r1, r2, r4, r5, r6, r8, sl, sp, lr}^	; <UNPREDICTABLE>
     518:	6c007172 	stfvss	f7, [r0], {114}	; 0x72
     51c:	5f747369 	svcpl	0x00747369
     520:	73757063 	cmnvc	r5, #99	; 0x63
     524:	63696700 	cmnvs	r9, #0, 14
     528:	63615f63 	cmnvs	r1, #396	; 0x18c
     52c:	72695f6b 	rsbvc	r5, r9, #428	; 0x1ac
     530:	69670071 	stmdbvs	r7!, {r0, r4, r5, r6}^
     534:	735f6463 	cmpvc	pc, #1660944384	; 0x63000000
     538:	745f7465 	ldrbvc	r7, [pc], #-1125	; 540 <load_address-0x9ffffac0>
     53c:	65677261 	strbvs	r7, [r7, #-609]!	; 0x261
     540:	72695f74 	rsbvc	r5, r9, #116, 30	; 0x1d0
     544:	65720071 	ldrbvs	r0, [r2, #-113]!	; 0x71
     548:	475f6461 	ldrbmi	r6, [pc, -r1, ror #8]
     54c:	5f444349 	svcpl	0x00444349
     550:	52444949 	subpl	r4, r4, #1196032	; 0x124000
     554:	61657200 	cmnvs	r5, r0, lsl #4
     558:	49475f64 	stmdbmi	r7, {r2, r5, r6, r8, r9, sl, fp, ip, lr}^
     55c:	495f4443 	ldmdbmi	pc, {r0, r1, r6, sl, lr}^	; <UNPREDICTABLE>
     560:	54434143 	strbpl	r4, [r3], #-323	; 0x143
     564:	52455649 	subpl	r5, r5, #76546048	; 0x4900000
     568:	69727700 	ldmdbvs	r2!, {r8, r9, sl, ip, sp, lr}^
     56c:	475f6574 			; <UNDEFINED> instruction: 0x475f6574
     570:	5f434349 	svcpl	0x00434349
     574:	524c5443 	subpl	r5, ip, #1124073472	; 0x43000000
     578:	63696700 	cmnvs	r9, #0, 14
     57c:	6f655f63 	svcvs	0x00655f63
     580:	5f646569 	svcpl	0x00646569
     584:	00717269 	rsbseq	r7, r1, r9, ror #4
     588:	64616572 	strbtvs	r6, [r1], #-1394	; 0x572
     58c:	4349475f 	movtmi	r4, #38751	; 0x975f
     590:	50525f43 	subspl	r5, r2, r3, asr #30
     594:	65720052 	ldrbvs	r0, [r2, #-82]!	; 0x52
     598:	475f6461 	ldrbmi	r6, [pc, -r1, ror #8]
     59c:	5f434349 	svcpl	0x00434349
     5a0:	00524149 	subseq	r4, r2, r9, asr #2
     5a4:	63636967 	cmnvs	r3, #1687552	; 0x19c000
     5a8:	6165645f 	cmnvs	r5, pc, asr r4
     5ac:	76697463 	strbtvc	r7, [r9], -r3, ror #8
     5b0:	5f657461 	svcpl	0x00657461
     5b4:	00717269 	rsbseq	r7, r1, r9, ror #4
     5b8:	6f6d6544 	svcvs	0x006d6544
     5bc:	6369672f 	cmnvs	r9, #12320768	; 0xbc0000
     5c0:	6700632e 	strvs	r6, [r0, -lr, lsr #6]
     5c4:	5f646369 	svcpl	0x00646369
     5c8:	5f726c63 	svcpl	0x00726c63
     5cc:	67726174 			; <UNDEFINED> instruction: 0x67726174
     5d0:	695f7465 	ldmdbvs	pc, {r0, r2, r5, r6, sl, ip, sp, lr}^	; <UNPREDICTABLE>
     5d4:	72007172 	andvc	r7, r0, #-2147483620	; 0x8000001c
     5d8:	5f646165 	svcpl	0x00646165
     5dc:	44434947 	strbmi	r4, [r3], #-2375	; 0x947
     5e0:	4154495f 	cmpmi	r4, pc, asr r9
     5e4:	54454752 	strbpl	r4, [r5], #-1874	; 0x752
     5e8:	67005253 	smlsdvs	r0, r3, r2, r5
     5ec:	5f646369 	svcpl	0x00646369
     5f0:	5f746573 	svcpl	0x00746573
     5f4:	6f697270 	svcvs	0x00697270
     5f8:	79746972 	ldmdbvc	r4!, {r1, r4, r5, r6, r8, fp, sp, lr}^
     5fc:	7172695f 	cmnvc	r2, pc, asr r9
     600:	63696700 	cmnvs	r9, #0, 14
     604:	69685f63 	stmdbvs	r8!, {r0, r1, r5, r6, r8, r9, sl, fp, ip, lr}^
     608:	73656867 	cmnvc	r5, #6750208	; 0x670000
     60c:	72705f74 	rsbsvc	r5, r0, #116, 30	; 0x1d0
     610:	695f6f69 	ldmdbvs	pc, {r0, r3, r5, r6, r8, r9, sl, fp, sp, lr}^	; <UNPREDICTABLE>
     614:	67007172 	smlsdxvs	r0, r2, r1, r7
     618:	5f636369 	svcpl	0x00636369
     61c:	61736964 	cmnvs	r3, r4, ror #18
     620:	5f656c62 	svcpl	0x00656c62
     624:	5f757063 	svcpl	0x00757063
     628:	65746e69 	ldrbvs	r6, [r4, #-3689]!	; 0xe69
     62c:	63616672 	cmnvs	r1, #119537664	; 0x7200000
     630:	72770065 	rsbsvc	r0, r7, #101	; 0x65
     634:	5f657469 	svcpl	0x00657469
     638:	43434947 	movtmi	r4, #14663	; 0x3947
     63c:	494f455f 	stmdbmi	pc, {r0, r1, r2, r3, r4, r6, r8, sl, lr}^	; <UNPREDICTABLE>
     640:	65720052 	ldrbvs	r0, [r2, #-82]!	; 0x52
     644:	475f6461 	ldrbmi	r6, [pc, -r1, ror #8]
     648:	5f444349 	svcpl	0x00444349
     64c:	45505954 	ldrbmi	r5, [r0, #-2388]	; 0x954
     650:	72770052 	rsbsvc	r0, r7, #82	; 0x52
     654:	5f657469 	svcpl	0x00657469
     658:	44434947 	strbmi	r4, [r3], #-2375	; 0x947
     65c:	4449495f 	strbmi	r4, [r9], #-2399	; 0x95f
     660:	65720052 	ldrbvs	r0, [r2, #-82]!	; 0x52
     664:	475f6461 	ldrbmi	r6, [pc, -r1, ror #8]
     668:	5f444349 	svcpl	0x00444349
     66c:	45504349 	ldrbmi	r4, [r0, #-841]	; 0x349
     670:	0052444e 	subseq	r4, r2, lr, asr #8
     674:	64616572 	strbtvs	r6, [r1], #-1394	; 0x572
     678:	4349475f 	movtmi	r4, #38751	; 0x975f
     67c:	47535f44 	ldrbmi	r5, [r3, -r4, asr #30]
     680:	77005249 	strvc	r5, [r0, -r9, asr #4]
     684:	65746972 	ldrbvs	r6, [r4, #-2418]!	; 0x972
     688:	4349475f 	movtmi	r4, #38751	; 0x975f
     68c:	534e5f43 	movtpl	r5, #61251	; 0xef43
     690:	00525041 	subseq	r5, r2, r1, asr #32
     694:	63636967 	cmnvs	r3, #1687552	; 0x19c000
     698:	7465735f 	strbtvc	r7, [r5], #-863	; 0x35f
     69c:	6e69625f 	mcrvs	2, 3, r6, cr9, cr15, {2}
     6a0:	5f797261 	svcpl	0x00797261
     6a4:	6e696f70 	mcrvs	15, 3, r6, cr9, cr0, {3}
     6a8:	65725f74 	ldrbvs	r5, [r2, #-3956]!	; 0xf74
     6ac:	74736967 	ldrbtvc	r6, [r3], #-2407	; 0x967
     6b0:	77007265 	strvc	r7, [r0, -r5, ror #4]
     6b4:	65746972 	ldrbvs	r6, [r4, #-2418]!	; 0x972
     6b8:	4349475f 	movtmi	r4, #38751	; 0x975f
     6bc:	50495f44 	subpl	r5, r9, r4, asr #30
     6c0:	524f4952 	subpl	r4, pc, #1343488	; 0x148000
     6c4:	52595449 	subspl	r5, r9, #1224736768	; 0x49000000
     6c8:	69727700 	ldmdbvs	r2!, {r8, r9, sl, ip, sp, lr}^
     6cc:	475f6574 			; <UNDEFINED> instruction: 0x475f6574
     6d0:	5f434349 	svcpl	0x00434349
     6d4:	00525042 	subseq	r5, r2, r2, asr #32
     6d8:	64616572 	strbtvs	r6, [r1], #-1394	; 0x572
     6dc:	4349475f 	movtmi	r4, #38751	; 0x975f
     6e0:	43495f44 	movtmi	r5, #40772	; 0x9f44
     6e4:	42414e45 	submi	r4, r1, #1104	; 0x450
     6e8:	0052454c 	subseq	r4, r2, ip, asr #10
     6ec:	64636967 	strbtvs	r6, [r3], #-2407	; 0x967
     6f0:	616e655f 	cmnvs	lr, pc, asr r5
     6f4:	5f656c62 	svcpl	0x00656c62
     6f8:	5f717269 	svcpl	0x00717269
     6fc:	77726f66 	ldrbvc	r6, [r2, -r6, ror #30]!
     700:	69647261 	stmdbvs	r4!, {r0, r5, r6, r9, ip, sp, lr}^
     704:	7200676e 	andvc	r6, r0, #28835840	; 0x1b80000
     708:	5f646165 	svcpl	0x00646165
     70c:	43434947 	movtmi	r4, #14663	; 0x3947
     710:	4449495f 	strbmi	r4, [r9], #-2399	; 0x95f
     714:	616d0052 	qdsubvs	r0, r2, sp
     718:	72006b73 	andvc	r6, r0, #117760	; 0x1cc00
     71c:	5f646165 	svcpl	0x00646165
     720:	44434947 	strbmi	r4, [r3], #-2375	; 0x947
     724:	4643495f 			; <UNDEFINED> instruction: 0x4643495f
     728:	77005247 	strvc	r5, [r0, -r7, asr #4]
     72c:	65746972 	ldrbvs	r6, [r4, #-2418]!	; 0x972
     730:	4349475f 	movtmi	r4, #38751	; 0x975f
     734:	43495f44 	movtmi	r5, #40772	; 0x9f44
     738:	00524746 	subseq	r4, r2, r6, asr #14
     73c:	74697277 	strbtvc	r7, [r9], #-631	; 0x277
     740:	49475f65 	stmdbmi	r7, {r0, r2, r5, r6, r8, r9, sl, fp, ip, lr}^
     744:	505f4343 	subspl	r4, pc, r3, asr #6
     748:	7700524d 	strvc	r5, [r0, -sp, asr #4]
     74c:	65746972 	ldrbvs	r6, [r4, #-2418]!	; 0x972
     750:	4349475f 	movtmi	r4, #38751	; 0x975f
     754:	47535f44 	ldrbmi	r5, [r3, -r4, asr #30]
     758:	72005249 	andvc	r5, r0, #-1879048188	; 0x90000004
     75c:	5f646165 	svcpl	0x00646165
     760:	44434947 	strbmi	r4, [r3], #-2375	; 0x947
     764:	4c54435f 	mrrcmi	3, 5, r4, r4, cr15	; <UNPREDICTABLE>
     768:	70630052 	rsbvc	r0, r3, r2, asr r0
     76c:	6f735f75 	svcvs	0x00735f75
     770:	65637275 	strbvs	r7, [r3, #-629]!	; 0x275
     774:	69727700 	ldmdbvs	r2!, {r8, r9, sl, ip, sp, lr}^
     778:	475f6574 			; <UNDEFINED> instruction: 0x475f6574
     77c:	5f444349 	svcpl	0x00444349
     780:	52415449 	subpl	r5, r1, #1224736768	; 0x49000000
     784:	53544547 	cmppl	r4, #297795584	; 0x11c00000
     788:	69670052 	stmdbvs	r7!, {r1, r4, r6}^
     78c:	735f6463 	cmpvc	pc, #1660944384	; 0x63000000
     790:	5f646e65 	svcpl	0x00646e65
     794:	5f696773 	svcpl	0x00696773
     798:	635f6f74 	cmpvs	pc, #116, 30	; 0x1d0
     79c:	6c5f7570 	cfldr64vs	mvdx7, [pc], {112}	; 0x70
     7a0:	00747369 	rsbseq	r7, r4, r9, ror #6
     7a4:	74697277 	strbtvc	r7, [r9], #-631	; 0x277
     7a8:	49475f65 	stmdbmi	r7, {r0, r2, r5, r6, r8, r9, sl, fp, ip, lr}^
     7ac:	445f4343 	ldrbmi	r4, [pc], #-835	; 7b4 <load_address-0x9ffff84c>
     7b0:	77005249 	strvc	r5, [r0, -r9, asr #4]
     7b4:	65746972 	ldrbvs	r6, [r4, #-2418]!	; 0x972
     7b8:	4349475f 	movtmi	r4, #38751	; 0x975f
     7bc:	43495f44 	movtmi	r5, #40772	; 0x9f44
     7c0:	444e4550 	strbmi	r4, [lr], #-1360	; 0x550
     7c4:	72770052 	rsbsvc	r0, r7, #82	; 0x52
     7c8:	5f657469 	svcpl	0x00657469
     7cc:	44434947 	strbmi	r4, [r3], #-2375	; 0x947
     7d0:	4550535f 	ldrbmi	r5, [r0, #-863]	; 0x35f
     7d4:	4753444e 	ldrbmi	r4, [r3, -lr, asr #8]
     7d8:	72005249 	andvc	r5, r0, #-1879048188	; 0x90000004
     7dc:	5f646165 	svcpl	0x00646165
     7e0:	44434947 	strbmi	r4, [r3], #-2375	; 0x947
     7e4:	5250495f 	subspl	r4, r0, #1556480	; 0x17c000
     7e8:	49524f49 	ldmdbmi	r2, {r0, r3, r6, r8, r9, sl, fp, lr}^
     7ec:	00525954 	subseq	r5, r2, r4, asr r9
     7f0:	64616572 	strbtvs	r6, [r1], #-1394	; 0x572
     7f4:	4349475f 	movtmi	r4, #38751	; 0x975f
     7f8:	4d505f43 	ldclmi	15, cr5, [r0, #-268]	; 0xfffffef4
     7fc:	74670052 	strbtvc	r0, [r7], #-82	; 0x52
     800:	7465675f 	strbtvc	r6, [r5], #-1887	; 0x75f
     804:	6f6c635f 	svcvs	0x006c635f
     808:	665f6b63 	ldrbvs	r6, [pc], -r3, ror #22
     80c:	00716572 	rsbseq	r6, r1, r2, ror r5
     810:	5f746567 	svcpl	0x00746567
     814:	4449504d 	strbmi	r5, [r9], #-77	; 0x4d
     818:	6d650052 	stclvs	0, cr0, [r5, #-328]!	; 0xfffffeb8
     81c:	7465675f 	strbtvc	r6, [r5], #-1887	; 0x75f
     820:	544e435f 	strbpl	r4, [lr], #-863	; 0x35f
     824:	54435f56 	strbpl	r5, [r3], #-3926	; 0xf56
     828:	7467004c 	strbtvc	r0, [r7], #-76	; 0x4c
     82c:	6d6e755f 	cfstr64vs	mvdx7, [lr, #-380]!	; 0xfffffe84
     830:	5f6b7361 	svcpl	0x006b7361
     834:	74726976 	ldrbtvc	r6, [r2], #-2422	; 0x976
     838:	5f6c6175 	svcpl	0x006c6175
     83c:	656d6974 	strbvs	r6, [sp, #-2420]!	; 0x974
     840:	65670072 	strbvs	r0, [r7, #-114]!	; 0x72
     844:	4e435f74 	mcrmi	15, 2, r5, cr3, cr4, {3}
     848:	54435054 	strbpl	r5, [r3], #-84	; 0x54
     84c:	6c617600 	stclvs	6, cr7, [r1], #-0
     850:	74670031 	strbtvc	r0, [r7], #-49	; 0x31
     854:	7465675f 	strbtvc	r6, [r5], #-1887	; 0x75f
     858:	7968705f 	stmdbvc	r8!, {r0, r1, r2, r3, r4, r6, ip, sp, lr}^
     85c:	61636973 	smcvs	13971	; 0x3693
     860:	6f635f6c 	svcvs	0x00635f6c
     864:	00746e75 	rsbseq	r6, r4, r5, ror lr
     868:	645f7467 	ldrbvs	r7, [pc], #-1127	; 870 <load_address-0x9ffff790>
     86c:	62617369 	rsbvs	r7, r1, #-1543503871	; 0xa4000001
     870:	765f656c 	ldrbvc	r6, [pc], -ip, ror #10
     874:	75747269 	ldrbvc	r7, [r4, #-617]!	; 0x269
     878:	745f6c61 	ldrbvc	r6, [pc], #-3169	; 880 <load_address-0x9ffff780>
     87c:	72656d69 	rsbvc	r6, r5, #6720	; 0x1a40
     880:	74657300 	strbtvc	r7, [r5], #-768	; 0x300
     884:	544e435f 	strbpl	r4, [lr], #-863	; 0x35f
     888:	56435f56 			; <UNDEFINED> instruction: 0x56435f56
     88c:	67004c41 	strvs	r4, [r0, -r1, asr #24]
     890:	435f7465 	cmpmi	pc, #1694498816	; 0x65000000
     894:	4356544e 	cmpmi	r6, #1308622848	; 0x4e000000
     898:	65440054 	strbvs	r0, [r4, #-84]	; 0x54
     89c:	672f6f6d 	strvs	r6, [pc, -sp, ror #30]!
     8a0:	656d6974 	strbvs	r6, [sp, #-2420]!	; 0x974
     8a4:	00632e72 	rsbeq	r2, r3, r2, ror lr
     8a8:	72727563 	rsbsvc	r7, r2, #415236096	; 0x18c00000
     8ac:	5f746e65 	svcpl	0x00746e65
     8b0:	74726976 	ldrbtvc	r6, [r2], #-2422	; 0x976
     8b4:	5f6c6175 	svcpl	0x006c6175
     8b8:	656d6974 	strbvs	r6, [sp, #-2420]!	; 0x974
     8bc:	5f746700 	svcpl	0x00746700
     8c0:	5f746573 	svcpl	0x00746573
     8c4:	74726976 	ldrbtvc	r6, [r2], #-2422	; 0x976
     8c8:	5f6c6175 	svcpl	0x006c6175
     8cc:	656d6974 	strbvs	r6, [sp, #-2420]!	; 0x974
     8d0:	65645f72 	strbvs	r5, [r4, #-3954]!	; 0xf72
     8d4:	696c6461 	stmdbvs	ip!, {r0, r5, r6, sl, sp, lr}^
     8d8:	6700656e 	strvs	r6, [r0, -lr, ror #10]
     8dc:	65675f74 	strbvs	r5, [r7, #-3956]!	; 0xf74
     8e0:	6e635f74 	mcrvs	15, 3, r5, cr3, cr4, {3}
     8e4:	635f7674 	cmpvs	pc, #116, 12	; 0x7400000
     8e8:	67006c74 	smlsdxvs	r0, r4, ip, r6
     8ec:	616d5f74 	smcvs	54772	; 0xd5f4
     8f0:	765f6b73 			; <UNDEFINED> instruction: 0x765f6b73
     8f4:	75747269 	ldrbvc	r7, [r4, #-617]!	; 0x269
     8f8:	745f6c61 	ldrbvc	r6, [pc], #-3169	; 900 <load_address-0x9ffff700>
     8fc:	72656d69 	rsbvc	r6, r5, #6720	; 0x1a40
     900:	5f746700 	svcpl	0x00746700
     904:	62616e65 	rsbvs	r6, r1, #1616	; 0x650
     908:	765f656c 	ldrbvc	r6, [pc], -ip, ror #10
     90c:	75747269 	ldrbvc	r7, [r4, #-617]!	; 0x269
     910:	745f6c61 	ldrbvc	r6, [pc], #-3169	; 918 <load_address-0x9ffff6e8>
     914:	72656d69 	rsbvc	r6, r5, #6720	; 0x1a40
     918:	74656700 	strbtvc	r6, [r5], #-1792	; 0x700
     91c:	544e435f 	strbpl	r4, [lr], #-863	; 0x35f
     920:	00515246 	subseq	r5, r1, r6, asr #4
     924:	326c6176 	rsbcc	r6, ip, #-2147483619	; 0x8000001d
     928:	74656700 	strbtvc	r6, [r5], #-1792	; 0x700
     92c:	7570635f 	ldrbvc	r6, [r0, #-863]!	; 0x35f
     930:	67006469 	strvs	r6, [r0, -r9, ror #8]
     934:	73695f74 	cmnvc	r9, #116, 30	; 0x1d0
     938:	7269765f 	rsbvc	r7, r9, #99614720	; 0x5f00000
     93c:	6c617574 	cfstr64vs	mvdx7, [r1], #-464	; 0xfffffe30
     940:	6d69745f 	cfstrdvs	mvd7, [r9, #-380]!	; 0xfffffe84
     944:	695f7265 	ldmdbvs	pc, {r0, r2, r5, r6, r9, ip, sp, lr}^	; <UNPREDICTABLE>
     948:	615f7172 	cmpvs	pc, r2, ror r1	; <UNPREDICTABLE>
     94c:	72657373 	rsbvc	r7, r5, #-872415231	; 0xcc000001
     950:	00646574 	rsbeq	r6, r4, r4, ror r5
     954:	735f6d65 	cmpvc	pc, #6464	; 0x1940
     958:	435f7465 	cmpmi	pc, #1694498816	; 0x65000000
     95c:	5f56544e 	svcpl	0x0056544e
     960:	004c5443 	subeq	r5, ip, r3, asr #8
     964:	675f7467 	ldrbvs	r7, [pc, -r7, ror #8]
     968:	765f7465 	ldrbvc	r7, [pc], -r5, ror #8
     96c:	75747269 	ldrbvc	r7, [r4, #-617]!	; 0x269
     970:	635f6c61 	cmpvs	pc, #24832	; 0x6100
     974:	746e756f 	strbtvc	r7, [lr], #-1391	; 0x56f
     978:	72617500 	rsbvc	r7, r1, #0, 10
     97c:	78745f74 	ldmdavc	r4!, {r2, r4, r5, r6, r8, r9, sl, fp, ip, lr}^
     980:	6168635f 	cmnvs	r8, pc, asr r3
     984:	61750072 	cmnvs	r5, r2, ror r0
     988:	6f5f7472 	svcvs	0x005f7472
     98c:	635f7475 	cmpvs	pc, #1962934272	; 0x75000000
     990:	5f726168 	svcpl	0x00726168
     994:	63656863 	cmnvs	r5, #6488064	; 0x630000
     998:	52435f6b 	subpl	r5, r3, #428	; 0x1ac
     99c:	72617500 	rsbvc	r7, r1, #0, 10
     9a0:	75007374 	strvc	r7, [r0, #-884]	; 0x374
     9a4:	5f747261 	svcpl	0x00747261
     9a8:	635f7872 	cmpvs	pc, #7471104	; 0x720000
     9ac:	00726168 	rsbseq	r6, r2, r8, ror #2
     9b0:	636f6c63 	cmnvs	pc, #25344	; 0x6300
     9b4:	65725f6b 	ldrbvs	r5, [r2, #-3947]!	; 0xf6b
     9b8:	65720067 	ldrbvs	r0, [r2, #-103]!	; 0x67
     9bc:	5f746573 	svcpl	0x00746573
     9c0:	00676572 	rsbeq	r6, r7, r2, ror r5
     9c4:	65736162 	ldrbvs	r6, [r3, #-354]!	; 0x162
     9c8:	69726400 	ldmdbvs	r2!, {sl, sp, lr}^
     9cc:	73726576 	cmnvc	r2, #494927872	; 0x1d800000
     9d0:	7265732f 	rsbvc	r7, r5, #-1140850688	; 0xbc000000
     9d4:	2e6c6169 	powcsez	f6, f4, #1.0
     9d8:	61750063 	cmnvs	r5, r3, rrx
     9dc:	6f5f7472 	svcvs	0x005f7472
     9e0:	735f7475 	cmpvc	pc, #1962934272	; 0x75000000
     9e4:	75007274 	strvc	r7, [r0, #-628]	; 0x274
     9e8:	5f747261 	svcpl	0x00747261
     9ec:	74696e69 	strbtvc	r6, [r9], #-3689	; 0xe69
     9f0:	72617500 	rsbvc	r7, r1, #0, 10
     9f4:	756f5f74 	strbvc	r5, [pc, #-3956]!	; fffffa88 <stack_irq+0x5f7e2d30>
     9f8:	74735f74 	ldrbtvc	r5, [r3], #-3956	; 0xf74
     9fc:	68635f72 	stmdavs	r3!, {r1, r4, r5, r6, r8, r9, sl, fp, ip, lr}^
     a00:	5f6b6365 	svcpl	0x006b6365
     a04:	73005243 	movwvc	r5, #579	; 0x243
     a08:	00657a69 	rsbeq	r7, r5, r9, ror #20
     a0c:	69726573 	ldmdbvs	r2!, {r0, r1, r4, r5, r6, r8, sl, sp, lr}^
     a10:	655f6c61 	ldrbvs	r6, [pc, #-3169]	; fffffdb7 <stack_irq+0x5f7e305f>
     a14:	635f7272 	cmpvs	pc, #536870919	; 0x20000007
     a18:	6b636568 	blvs	18d9fc0 <load_address-0x9e726040>
     a1c:	72617500 	rsbvc	r7, r1, #0, 10
     a20:	65720074 	ldrbvs	r0, [r2, #-116]!	; 0x74
     a24:	746c7573 	strbtvc	r7, [ip], #-1395	; 0x573
     a28:	69706700 	ldmdbvs	r0!, {r8, r9, sl, sp, lr}^
     a2c:	736d5f6f 	cmnvc	sp, #444	; 0x1bc
     a30:	69705f6b 	ldmdbvs	r0!, {r0, r1, r3, r5, r6, r8, r9, sl, fp, ip, lr}^
     a34:	7067006e 	rsbvc	r0, r7, lr, rrx
     a38:	635f6f69 	cmpvs	pc, #420	; 0x1a4
     a3c:	705f6766 	subsvc	r6, pc, r6, ror #14
     a40:	64006e69 	strvs	r6, [r0], #-3689	; 0xe69
     a44:	65766972 	ldrbvs	r6, [r6, #-2418]!	; 0x972
     a48:	672f7372 			; <UNDEFINED> instruction: 0x672f7372
     a4c:	2e6f6970 	mcrcs	9, 3, r6, cr15, cr0, {3}
     a50:	70670063 	rsbvc	r0, r7, r3, rrx
     a54:	675f6f69 	ldrbvs	r6, [pc, -r9, ror #30]
     a58:	765f7465 	ldrbvc	r7, [pc], -r5, ror #8
     a5c:	65756c61 	ldrbvs	r6, [r5, #-3169]!	; 0xc61
     a60:	68707100 	ldmdavs	r0!, {r8, ip, sp, lr}^
     a64:	6970675f 	ldmdbvs	r0!, {r0, r1, r2, r3, r4, r6, r8, r9, sl, sp, lr}^
     a68:	65735f6f 	ldrbvs	r5, [r3, #-3951]!	; 0xf6f
     a6c:	61765f74 	cmnvs	r6, r4, ror pc
     a70:	0065756c 	rsbeq	r7, r5, ip, ror #10
     a74:	43736948 	cmnmi	r3, #72, 18	; 0x120000
     a78:	746e756f 	strbtvc	r7, [lr], #-1391	; 0x56f
     a7c:	74757000 	ldrbtvc	r7, [r5], #-0
     a80:	69480078 	stmdbvs	r8, {r3, r4, r5, r6}^
     a84:	646e4973 	strbtvs	r4, [lr], #-2419	; 0x973
     a88:	67007865 	strvs	r7, [r0, -r5, ror #16]
     a8c:	00637465 	rsbeq	r7, r3, r5, ror #8
     a90:	69726573 	ldmdbvs	r2!, {r0, r1, r4, r5, r6, r8, sl, sp, lr}^
     a94:	675f6c61 	ldrbvs	r6, [pc, -r1, ror #24]
     a98:	00737465 	rsbseq	r7, r3, r5, ror #8
     a9c:	42736948 	rsbsmi	r6, r3, #72, 18	; 0x120000
     aa0:	00666675 	rsbeq	r6, r6, r5, ror r6
     aa4:	2f62696c 	svccs	0x0062696c
     aa8:	6e697270 	mcrvs	2, 3, r7, cr9, cr0, {3}
     aac:	632e6674 	teqvs	lr, #116, 12	; 0x7400000
     ab0:	5f617600 	svcpl	0x00617600
     ab4:	7473696c 	ldrbtvc	r6, [r3], #-2412	; 0x96c
     ab8:	5f6d6500 	svcpl	0x006d6500
     abc:	6e697270 	mcrvs	2, 3, r7, cr9, cr0, {3}
     ac0:	70006674 	andvc	r6, r0, r4, ror r6
     ac4:	00637475 	rsbeq	r7, r3, r5, ror r4
     ac8:	66667562 	strbtvs	r7, [r6], -r2, ror #10
     acc:	73007265 	movwvc	r7, #613	; 0x265
     ad0:	6c6e7274 	sfmvs	f7, 2, [lr], #-464	; 0xfffffe30
     ad4:	73006e65 	movwvc	r6, #3685	; 0xe65
     ad8:	636e7274 	cmnvs	lr, #116, 4	; 0x40000007
     adc:	73007970 	movwvc	r7, #2416	; 0x970
     ae0:	00646e65 	rsbeq	r6, r4, r5, ror #28
     ae4:	74736564 	ldrbtvc	r6, [r3], #-1380	; 0x564
     ae8:	65696600 	strbvs	r6, [r9, #-1536]!	; 0x600
     aec:	775f646c 	ldrbvc	r6, [pc, -ip, ror #8]
     af0:	68746469 	ldmdavs	r4!, {r0, r3, r5, r6, sl, sp, lr}^
     af4:	72747300 	rsbsvc	r7, r4, #0, 6
     af8:	6b726270 	blvs	1c994c0 <load_address-0x9e366b40>
     afc:	745f5f00 	ldrbvc	r5, [pc], #-3840	; b04 <load_address-0x9ffff4fc>
     b00:	776f6c6f 	strbvc	r6, [pc, -pc, ror #24]!
     b04:	72007265 	andvc	r7, r0, #1342177286	; 0x50000006
     b08:	61657065 	cmnvs	r5, r5, rrx
     b0c:	656d0074 	strbvs	r0, [sp, #-116]!	; 0x74
     b10:	7970636d 	ldmdbvc	r0!, {r0, r2, r3, r5, r6, r8, r9, sp, lr}^
     b14:	64617200 	strbtvs	r7, [r1], #-512	; 0x200
     b18:	5f007869 	svcpl	0x00007869
     b1c:	7365725f 	cmnvc	r5, #-268435451	; 0xf0000005
     b20:	70737600 	rsbsvc	r7, r3, r0, lsl #12
     b24:	746e6972 	strbtvc	r6, [lr], #-2418	; 0x972
     b28:	74730066 	ldrbtvc	r0, [r3], #-102	; 0x66
     b2c:	63696e72 	cmnvs	r9, #1824	; 0x720
     b30:	7300706d 	movwvc	r7, #109	; 0x6d
     b34:	006e6769 	rsbeq	r6, lr, r9, ror #14
     b38:	735f5f5f 	cmpvc	pc, #380	; 0x17c
     b3c:	6f747274 	svcvs	0x00747274
     b40:	656d006b 	strbvs	r0, [sp, #-107]!	; 0x6b
     b44:	6163736d 	cmnvs	r3, sp, ror #6
     b48:	656d006e 	strbvs	r0, [sp, #-110]!	; 0x6e
     b4c:	706d636d 	rsbvc	r6, sp, sp, ror #6
     b50:	62696c00 	rsbvs	r6, r9, #0, 24
     b54:	7073762f 	rsbsvc	r7, r3, pc, lsr #12
     b58:	746e6972 	strbtvc	r6, [lr], #-2418	; 0x972
     b5c:	00632e66 	rsbeq	r2, r3, r6, ror #28
     b60:	6f745f5f 	svcvs	0x00745f5f
     b64:	65707075 	ldrbvs	r7, [r0, #-117]!	; 0x75
     b68:	74730072 	ldrbtvc	r0, [r3], #-114	; 0x72
     b6c:	676e6972 			; <UNDEFINED> instruction: 0x676e6972
     b70:	67696400 	strbvs	r6, [r9, -r0, lsl #8]!
     b74:	00737469 	rsbseq	r7, r3, r9, ror #8
     b78:	74727473 	ldrbtvc	r7, [r2], #-1139	; 0x473
     b7c:	006c756f 	rsbeq	r7, ip, pc, ror #10
     b80:	616f7469 	cmnvs	pc, r9, ror #8
     b84:	6d656d00 	stclvs	13, cr6, [r5, #-0]
     b88:	65766f6d 	ldrbvs	r6, [r6, #-3949]!	; 0xf6d
     b8c:	72747300 	rsbsvc	r7, r4, #0, 6
     b90:	00726863 	rsbseq	r6, r2, r3, ror #16
     b94:	73727473 	cmnvc	r2, #1929379840	; 0x73000000
     b98:	66007065 	strvs	r7, [r0], -r5, rrx
     b9c:	7367616c 	cmnvc	r7, #108, 2
     ba0:	67726100 	ldrbvs	r6, [r2, -r0, lsl #2]!
     ba4:	63620073 	cmnvs	r2, #115	; 0x73
     ba8:	0079706f 	rsbseq	r7, r9, pc, rrx
     bac:	67656273 			; <UNDEFINED> instruction: 0x67656273
     bb0:	73006e69 	movwvc	r6, #3689	; 0xe69
     bb4:	61637274 	smcvs	14116	; 0x3724
     bb8:	74730074 	ldrbtvc	r0, [r3], #-116	; 0x74
     bbc:	6e656c72 	mcrvs	12, 3, r6, cr5, cr2, {3}
     bc0:	70705500 	rsbsvc	r5, r0, r0, lsl #10
     bc4:	74537265 	ldrbvc	r7, [r3], #-613	; 0x265
     bc8:	756f0072 	strbvc	r0, [pc, #-114]!	; b5e <load_address-0x9ffff4a2>
     bcc:	00705f74 	rsbseq	r5, r0, r4, ror pc
     bd0:	63727473 	cmnvs	r2, #1929379840	; 0x73000000
     bd4:	61007970 	tstvs	r0, r0, ror r9
     bd8:	70656363 	rsbvc	r6, r5, r3, ror #6
     bdc:	74730074 	ldrbtvc	r0, [r3], #-116	; 0x74
     be0:	6e707372 	mrcvs	3, 3, r7, cr0, cr2, {3}
     be4:	61757100 	cmnvs	r5, r0, lsl #2
     be8:	6966696c 	stmdbvs	r6!, {r2, r3, r5, r6, r8, fp, sp, lr}^
     bec:	73007265 	movwvc	r7, #613	; 0x265
     bf0:	5f70696b 	svcpl	0x0070696b
     bf4:	696f7461 	stmdbvs	pc!, {r0, r5, r6, sl, ip, sp, lr}^	; <UNPREDICTABLE>
     bf8:	6d656d00 	stclvs	13, cr6, [r5, #-0]
     bfc:	00726863 	rsbseq	r6, r2, r3, ror #16
     c00:	63727473 	cmnvs	r2, #1929379840	; 0x73000000
     c04:	6d00706d 	stcvs	0, cr7, [r0, #-436]	; 0xfffffe4c
     c08:	65736d65 	ldrbvs	r6, [r3, #-3429]!	; 0xd65
     c0c:	74730074 	ldrbtvc	r0, [r3], #-116	; 0x74
     c10:	72747372 	rsbsvc	r7, r4, #-939524095	; 0xc8000001
     c14:	72747300 	rsbsvc	r7, r4, #0, 6
     c18:	72686372 	rsbvc	r6, r8, #-939524095	; 0xc8000001
     c1c:	6b5f5f00 	blvs	17d8824 <load_address-0x9e8277dc>
     c20:	656e7265 	strbvs	r7, [lr, #-613]!	; 0x265
     c24:	69735f6c 	ldmdbvs	r3!, {r2, r3, r5, r6, r8, r9, sl, fp, ip, lr}^
     c28:	745f657a 	ldrbvc	r6, [pc], #-1402	; c30 <load_address-0x9ffff3d0>
     c2c:	6d756e00 	ldclvs	14, cr6, [r5, #-0]
     c30:	00726562 	rsbseq	r6, r2, r2, ror #10
     c34:	6e727473 	mrcvs	4, 3, r7, cr2, cr3, {3}
     c38:	00706d63 	rsbseq	r6, r0, r3, ror #26
     c3c:	65776f4c 	ldrbvs	r6, [r7, #-3916]!	; 0xf4c
     c40:	72745372 	rsbsvc	r5, r4, #-939524095	; 0xc8000001
     c44:	65727000 	ldrbvs	r7, [r2, #-0]!
     c48:	69736963 	ldmdbvs	r3!, {r0, r1, r5, r6, r8, fp, sp, lr}^
     c4c:	73006e6f 	movwvc	r6, #3695	; 0xe6f
     c50:	636e7274 	cmnvs	lr, #116, 4	; 0x40000007
     c54:	70007461 	andvc	r7, r0, r1, ror #8
     c58:	626e5578 	rsbvs	r5, lr, #120, 10	; 0x1e000000
     c5c:	6b636f6c 	blvs	18dca14 <load_address-0x9e7235ec>
     c60:	52436465 	subpl	r6, r3, #1694498816	; 0x65000000
     c64:	70004243 	andvc	r4, r0, r3, asr #4
     c68:	6d655478 	cfstrdvs	mvd5, [r5, #-480]!	; 0xfffffe20
     c6c:	43760070 	cmnmi	r6, #112	; 0x70
     c70:	756f526f 	strbvc	r5, [pc, #-623]!	; a09 <load_address-0x9ffff5f7>
     c74:	656e6974 	strbvs	r6, [lr, #-2420]!	; 0x974
     c78:	54646441 	strbtpl	r6, [r4], #-1089	; 0x441
     c7c:	6c65446f 	cfstrdvs	mvd4, [r5], #-444	; 0xfffffe44
     c80:	64657961 	strbtvs	r7, [r5], #-2401	; 0x961
     c84:	7473694c 	ldrbtvc	r6, [r3], #-2380	; 0x94c
     c88:	43767000 	cmnmi	r6, #0
     c8c:	61746e6f 	cmnvs	r4, pc, ror #28
     c90:	72656e69 	rsbvc	r6, r5, #1680	; 0x690
     c94:	43787000 	cmnmi	r8, #0
     c98:	756f526f 	strbvc	r5, [pc, #-623]!	; a31 <load_address-0x9ffff5cf>
     c9c:	656e6974 	strbvs	r6, [lr, #-2420]!	; 0x974
     ca0:	636e7546 	cmnvs	lr, #293601280	; 0x11800000
     ca4:	6e6f6974 	mcrvs	9, 3, r6, cr15, cr4, {3}
     ca8:	61507800 	cmpvs	r0, r0, lsl #16
     cac:	64657373 	strbtvs	r7, [r5], #-883	; 0x373
     cb0:	6b636954 	blvs	18db208 <load_address-0x9e724df8>
     cb4:	78700073 	ldmdavc	r0!, {r0, r1, r4, r5, r6}^
     cb8:	65646e49 	strbvs	r6, [r4, #-3657]!	; 0xe49
     cbc:	6f700078 	svcvs	0x00700078
     cc0:	69547472 	ldmdbvs	r4, {r1, r4, r5, r6, sl, ip, sp, lr}^
     cc4:	79546b63 	ldmdbvc	r4, {r0, r1, r5, r6, r8, r9, fp, sp, lr}^
     cc8:	78006570 	stmdavc	r0, {r4, r5, r6, r8, sl, sp, lr}
     ccc:	6d657449 	cfstrdvs	mvd7, [r5, #-292]!	; 0xfffffedc
     cd0:	756c6156 	strbvc	r6, [ip, #-342]!	; 0x156
     cd4:	4c780065 	ldclmi	0, cr0, [r8], #-404	; 0xfffffe6c
     cd8:	45747369 	ldrbmi	r7, [r4, #-873]!	; 0x369
     cdc:	7000646e 	andvc	r6, r0, lr, ror #8
     ce0:	6e774f76 	mrcvs	15, 3, r4, cr7, cr6, {3}
     ce4:	78007265 	stmdavc	r0, {r0, r2, r5, r6, r9, ip, sp, lr}
     ce8:	7473614c 	ldrbtvc	r6, [r3], #-332	; 0x14c
     cec:	6b636954 	blvs	18db244 <load_address-0x9e724dbc>
     cf0:	6e756f43 	cdpvs	15, 7, cr6, cr5, cr3, {2}
     cf4:	43780074 	cmnmi	r8, #116	; 0x74
     cf8:	756f526f 	strbvc	r5, [pc, #-623]!	; a91 <load_address-0x9ffff56f>
     cfc:	656e6974 	strbvs	r6, [lr, #-2420]!	; 0x974
     d00:	6b636954 	blvs	18db258 <load_address-0x9e724da8>
     d04:	6e756f43 	cdpvs	15, 7, cr6, cr5, cr3, {2}
     d08:	4c780074 	ldclmi	0, cr0, [r8], #-464	; 0xfffffe30
     d0c:	5f545349 	svcpl	0x00545349
     d10:	4d455449 	cfstrdmi	mvd5, [r5, #-292]	; 0xfffffedc
     d14:	43787000 	cmnmi	r8, #0
     d18:	74736e6f 	ldrbtvc	r6, [r3], #-3695	; 0xe6f
     d1c:	7473694c 	ldrbtvc	r6, [r3], #-2380	; 0x94c
     d20:	54787500 	ldrbtpl	r7, [r8], #-1280	; 0x500
     d24:	6f43706f 	svcvs	0x0043706f
     d28:	74756f52 	ldrbtvc	r6, [r5], #-3922	; 0xf52
     d2c:	52656e69 	rsbpl	r6, r5, #1680	; 0x690
     d30:	79646165 	stmdbvc	r4!, {r0, r2, r5, r6, r8, sp, lr}^
     d34:	6f697250 	svcvs	0x00697250
     d38:	79746972 	ldmdbvc	r4!, {r1, r4, r5, r6, r8, fp, sp, lr}^
     d3c:	65447800 	strbvs	r7, [r4, #-2048]	; 0x800
     d40:	6579616c 	ldrbvs	r6, [r9, #-364]!	; 0x16c
     d44:	526f4364 	rsbpl	r4, pc, #100, 6	; 0x90000001
     d48:	6974756f 	ldmdbvs	r4!, {r0, r1, r2, r3, r5, r6, r8, sl, ip, sp, lr}^
     d4c:	694c656e 	stmdbvs	ip, {r1, r2, r3, r5, r6, r8, sl, sp, lr}^
     d50:	00317473 	eorseq	r7, r1, r3, ror r4
     d54:	6c654478 	cfstrdvs	mvd4, [r5], #-480	; 0xfffffe20
     d58:	64657961 	strbtvs	r7, [r5], #-2401	; 0x961
     d5c:	6f526f43 	svcvs	0x00526f43
     d60:	6e697475 	mcrvs	4, 3, r7, cr9, cr5, {3}
     d64:	73694c65 	cmnvc	r9, #25856	; 0x6500
     d68:	63003274 	movwvs	r3, #628	; 0x274
     d6c:	5243726f 	subpl	r7, r3, #-268435450	; 0xf0000006
     d70:	70004243 	andvc	r4, r0, r3, asr #4
     d74:	43524378 	cmpmi	r2, #120, 6	; 0xe0000001
     d78:	78700042 	ldmdavc	r0!, {r1, r6}^
     d7c:	76657250 			; <UNDEFINED> instruction: 0x76657250
     d80:	73756f69 	cmnvc	r5, #420	; 0x1a4
     d84:	43787000 	cmnmi	r8, #0
     d88:	756f526f 	strbvc	r5, [pc, #-623]!	; b21 <load_address-0x9ffff4df>
     d8c:	656e6974 	strbvs	r6, [lr, #-2420]!	; 0x974
     d90:	65646f43 	strbvs	r6, [r4, #-3907]!	; 0xf43
     d94:	726f6300 	rsbvc	r6, pc, #0, 6
     d98:	6f526f43 	svcvs	0x00526f43
     d9c:	6e697475 	mcrvs	4, 3, r7, cr9, cr5, {3}
     da0:	6e6f4365 	cdpvs	3, 6, cr4, cr15, cr5, {3}
     da4:	6c6f7274 	sfmvs	f7, 2, [pc], #-464	; bdc <load_address-0x9ffff424>
     da8:	636f6c42 	cmnvs	pc, #16896	; 0x4200
     dac:	4378006b 	cmnmi	r8, #107	; 0x6b
     db0:	756f526f 	strbvc	r5, [pc, #-623]!	; b49 <load_address-0x9ffff4b7>
     db4:	656e6974 	strbvs	r6, [lr, #-2420]!	; 0x974
     db8:	6f6d6552 	svcvs	0x006d6552
     dbc:	72466576 	subvc	r6, r6, #494927872	; 0x1d800000
     dc0:	76456d6f 	strbvc	r6, [r5], -pc, ror #26
     dc4:	4c746e65 	ldclmi	14, cr6, [r4], #-404	; 0xfffffe6c
     dc8:	00747369 	rsbseq	r7, r4, r9, ror #6
     dcc:	764f7870 			; <UNDEFINED> instruction: 0x764f7870
     dd0:	6c667265 	sfmvs	f7, 2, [r6], #-404	; 0xfffffe6c
     dd4:	6544776f 	strbvs	r7, [r4, #-1903]	; 0x76f
     dd8:	6579616c 	ldrbvs	r6, [r9, #-364]!	; 0x16c
     ddc:	526f4364 	rsbpl	r4, pc, #100, 6	; 0x90000001
     de0:	6974756f 	ldmdbvs	r4!, {r0, r1, r2, r3, r5, r6, r8, sl, ip, sp, lr}^
     de4:	694c656e 	stmdbvs	ip, {r1, r2, r3, r5, r6, r8, sl, sp, lr}^
     de8:	75007473 	strvc	r7, [r0, #-1139]	; 0x473
     dec:	646e4978 	strbtvs	r4, [lr], #-2424	; 0x978
     df0:	53007865 	movwpl	r7, #2149	; 0x865
     df4:	6372756f 	cmnvs	r2, #465567744	; 0x1bc00000
     df8:	72632f65 	rsbvc	r2, r3, #404	; 0x194
     dfc:	6974756f 	ldmdbvs	r4!, {r0, r1, r2, r3, r5, r6, r8, sl, ip, sp, lr}^
     e00:	632e656e 	teqvs	lr, #461373440	; 0x1b800000
     e04:	6f437800 	svcvs	0x00437800
     e08:	74756f52 	ldrbtvc	r6, [r5], #-3922	; 0xf52
     e0c:	43656e69 	cmnmi	r5, #1680	; 0x690
     e10:	74616572 	strbtvc	r6, [r1], #-1394	; 0x572
     e14:	78750065 	ldmdavc	r5!, {r0, r2, r5, r6}^
     e18:	626d754e 	rsbvs	r7, sp, #327155712	; 0x13800000
     e1c:	664f7265 	strbvs	r7, [pc], -r5, ror #4
     e20:	6d657449 	cfstrdvs	mvd7, [r5, #-292]!	; 0xfffffedc
     e24:	72700073 	rsbsvc	r0, r0, #115	; 0x73
     e28:	65684376 	strbvs	r4, [r8, #-886]!	; 0x376
     e2c:	65506b63 	ldrbvs	r6, [r0, #-2915]	; 0xb63
     e30:	6e69646e 	cdpvs	4, 6, cr6, cr9, cr14, {3}
     e34:	61655267 	cmnvs	r5, r7, ror #4
     e38:	694c7964 	stmdbvs	ip, {r2, r5, r6, r8, fp, ip, sp, lr}^
     e3c:	75007473 	strvc	r7, [r0, #-1139]	; 0x473
     e40:	69725078 	ldmdbvs	r2!, {r3, r4, r5, r6, ip, lr}^
     e44:	7469726f 	strbtvc	r7, [r9], #-623	; 0x26f
     e48:	43780079 	cmnmi	r8, #121	; 0x79
     e4c:	756f526f 	strbvc	r5, [pc, #-623]!	; be5 <load_address-0x9ffff41b>
     e50:	656e6974 	strbvs	r6, [lr, #-2420]!	; 0x974
     e54:	646e6148 	strbtvs	r6, [lr], #-328	; 0x148
     e58:	7800656c 	stmdavc	r0, {r2, r3, r5, r6, r8, sl, sp, lr}
     e5c:	646e6550 	strbtvs	r6, [lr], #-1360	; 0x550
     e60:	52676e69 	rsbpl	r6, r7, #1680	; 0x690
     e64:	79646165 	stmdbvc	r4!, {r0, r2, r5, r6, r8, sp, lr}^
     e68:	6f526f43 	svcvs	0x00526f43
     e6c:	6e697475 	mcrvs	4, 3, r7, cr9, cr5, {3}
     e70:	73694c65 	cmnvc	r9, #25856	; 0x6500
     e74:	78700074 	ldmdavc	r0!, {r2, r4, r5, r6}^
     e78:	7478654e 	ldrbtvc	r6, [r8], #-1358	; 0x54e
     e7c:	45787000 	ldrbmi	r7, [r8, #-0]!
     e80:	746e6576 	strbtvc	r6, [lr], #-1398	; 0x576
     e84:	7473694c 	ldrbtvc	r6, [r3], #-2380	; 0x94c
     e88:	694d7800 	stmdbvs	sp, {fp, ip, sp, lr}^
     e8c:	694c696e 	stmdbvs	ip, {r1, r2, r3, r5, r6, r8, fp, sp, lr}^
     e90:	74497473 	strbvc	r7, [r9], #-1139	; 0x473
     e94:	70006d65 	andvc	r6, r0, r5, ror #26
     e98:	72754378 	rsbsvc	r4, r5, #120, 6	; 0xe0000001
     e9c:	746e6572 	strbtvc	r6, [lr], #-1394	; 0x572
     ea0:	6f526f43 	svcvs	0x00526f43
     ea4:	6e697475 	mcrvs	4, 3, r7, cr9, cr5, {3}
     ea8:	54780065 	ldrbtpl	r0, [r8], #-101	; 0x65
     eac:	54656d69 	strbtpl	r6, [r5], #-3433	; 0xd69
     eb0:	6b61576f 	blvs	1856c74 <load_address-0x9e7a938c>
     eb4:	4c780065 	ldclmi	0, cr0, [r8], #-404	; 0xfffffe6c
     eb8:	49747369 	ldmdbmi	r4!, {r0, r3, r5, r6, r8, r9, ip, sp, lr}^
     ebc:	006d6574 	rsbeq	r6, sp, r4, ror r5
     ec0:	526f4376 	rsbpl	r4, pc, #-671088639	; 0xd8000001
     ec4:	6974756f 	ldmdbvs	r4!, {r0, r1, r2, r3, r5, r6, r8, sl, ip, sp, lr}^
     ec8:	6353656e 	cmpvs	r3, #461373440	; 0x1b800000
     ecc:	75646568 	strbvc	r6, [r4, #-1384]!	; 0x568
     ed0:	7000656c 	andvc	r6, r0, ip, ror #10
     ed4:	526f4378 	rsbpl	r4, pc, #120, 6	; 0xe0000001
     ed8:	6974756f 	ldmdbvs	r4!, {r0, r1, r2, r3, r5, r6, r8, sl, ip, sp, lr}^
     edc:	7500656e 	strvc	r6, [r0, #-1390]	; 0x56e
     ee0:	61745378 	cmnvs	r4, r8, ror r3
     ee4:	70006574 	andvc	r6, r0, r4, ror r5
     ee8:	6c654478 	cfstrdvs	mvd4, [r5], #-480	; 0xfffffe20
     eec:	64657961 	strbtvs	r7, [r5], #-2401	; 0x961
     ef0:	6f526f43 	svcvs	0x00526f43
     ef4:	6e697475 	mcrvs	4, 3, r7, cr9, cr5, {3}
     ef8:	73694c65 	cmnvc	r9, #25856	; 0x6500
     efc:	78700074 	ldmdavc	r0!, {r2, r4, r5, r6}^
     f00:	64616552 	strbtvs	r6, [r1], #-1362	; 0x552
     f04:	526f4379 	rsbpl	r4, pc, #-469762047	; 0xe4000001
     f08:	6974756f 	ldmdbvs	r4!, {r0, r1, r2, r3, r5, r6, r8, sl, ip, sp, lr}^
     f0c:	694c656e 	stmdbvs	ip, {r1, r2, r3, r5, r6, r8, sl, sp, lr}^
     f10:	00737473 	rsbseq	r7, r3, r3, ror r4
     f14:	4e494d78 	mcrmi	13, 2, r4, cr9, cr8, {3}
     f18:	494c5f49 	stmdbmi	ip, {r0, r3, r6, r8, r9, sl, fp, ip, lr}^
     f1c:	495f5453 	ldmdbmi	pc, {r0, r1, r4, r6, sl, ip, lr}^	; <UNPREDICTABLE>
     f20:	004d4554 	subeq	r4, sp, r4, asr r5
     f24:	53494c78 	movtpl	r4, #40056	; 0x9c78
     f28:	72700054 	rsbsvc	r0, r0, #84	; 0x54
     f2c:	696e4976 	stmdbvs	lr!, {r1, r2, r4, r5, r6, r8, fp, lr}^
     f30:	6c616974 	stclvs	9, cr6, [r1], #-464	; 0xfffffe30
     f34:	43657369 	cmnmi	r5, #-1543503871	; 0xa4000001
     f38:	756f526f 	strbvc	r5, [pc, #-623]!	; cd1 <load_address-0x9ffff32f>
     f3c:	656e6974 	strbvs	r6, [lr, #-2420]!	; 0x974
     f40:	7473694c 	ldrbtvc	r6, [r3], #-2380	; 0x94c
     f44:	54780073 	ldrbtpl	r0, [r8], #-115	; 0x73
     f48:	736b6369 	cmnvc	fp, #-1543503871	; 0xa4000001
     f4c:	65446f54 	strbvs	r6, [r4, #-3924]	; 0xf54
     f50:	0079616c 	rsbseq	r6, r9, ip, ror #2
     f54:	6e654778 	mcrvs	7, 3, r4, cr5, cr8, {3}
     f58:	63697265 	cmnvs	r9, #1342177286	; 0x50000006
     f5c:	7473694c 	ldrbtvc	r6, [r3], #-2380	; 0x94c
     f60:	6d657449 	cfstrdvs	mvd7, [r5, #-292]!	; 0xfffffedc
     f64:	76457800 	strbvc	r7, [r5], -r0, lsl #16
     f68:	4c746e65 	ldclmi	14, cr6, [r4], #-404	; 0xfffffe6c
     f6c:	49747369 	ldmdbmi	r4!, {r0, r3, r5, r6, r8, r9, ip, sp, lr}^
     f70:	006d6574 	rsbeq	r6, sp, r4, ror r5
     f74:	43767270 	cmnmi	r6, #112, 4
     f78:	6b636568 	blvs	18da520 <load_address-0x9e725ae0>
     f7c:	616c6544 	cmnvs	ip, r4, asr #10
     f80:	4c646579 	cfstr64mi	mvdx6, [r4], #-484	; 0xfffffe1c
     f84:	00747369 	rsbseq	r7, r4, r9, ror #6
     f88:	4f437263 	svcmi	0x00437263
     f8c:	54554f52 	ldrbpl	r4, [r5], #-3922	; 0xf52
     f90:	5f454e49 	svcpl	0x00454e49
     f94:	45444f43 	strbmi	r4, [r4, #-3907]	; 0xf43
     f98:	756f5300 	strbvc	r5, [pc, #-768]!	; ca0 <load_address-0x9ffff360>
     f9c:	2f656372 	svccs	0x00656372
     fa0:	7473696c 	ldrbtvc	r6, [r3], #-2412	; 0x96c
     fa4:	7000632e 	andvc	r6, r0, lr, lsr #6
     fa8:	65744978 	ldrbvs	r4, [r4, #-2424]!	; 0x978
     fac:	526f546d 	rsbpl	r5, pc, #1828716544	; 0x6d000000
     fb0:	766f6d65 	strbtvc	r6, [pc], -r5, ror #26
     fb4:	4c760065 	ldclmi	0, cr0, [r6], #-404	; 0xfffffe6c
     fb8:	49747369 	ldmdbmi	r4!, {r0, r3, r5, r6, r8, r9, ip, sp, lr}^
     fbc:	6974696e 	ldmdbvs	r4!, {r1, r2, r3, r5, r6, r8, fp, sp, lr}^
     fc0:	73696c61 	cmnvc	r9, #24832	; 0x6100
     fc4:	65744965 	ldrbvs	r4, [r4, #-2405]!	; 0x965
     fc8:	4c76006d 	ldclmi	0, cr0, [r6], #-436	; 0xfffffe4c
     fcc:	49747369 	ldmdbmi	r4!, {r0, r3, r5, r6, r8, r9, ip, sp, lr}^
     fd0:	7265736e 	rsbvc	r7, r5, #-1207959551	; 0xb8000001
     fd4:	646e4574 	strbtvs	r4, [lr], #-1396	; 0x574
     fd8:	694c7600 	stmdbvs	ip, {r9, sl, ip, sp, lr}^
     fdc:	6e497473 	mcrvs	4, 2, r7, cr9, cr3, {3}
     fe0:	61697469 	cmnvs	r9, r9, ror #8
     fe4:	6573696c 	ldrbvs	r6, [r3, #-2412]!	; 0x96c
     fe8:	61567800 	cmpvs	r6, r0, lsl #16
     fec:	4f65756c 	svcmi	0x0065756c
     ff0:	736e4966 	cmnvc	lr, #1671168	; 0x198000
     ff4:	69747265 	ldmdbvs	r4!, {r0, r2, r5, r6, r9, ip, sp, lr}^
     ff8:	70006e6f 	andvc	r6, r0, pc, ror #28
     ffc:	65744978 	ldrbvs	r4, [r4, #-2424]!	; 0x978
    1000:	4c76006d 	ldclmi	0, cr0, [r6], #-436	; 0xfffffe4c
    1004:	52747369 	rsbspl	r7, r4, #-1543503871	; 0xa4000001
    1008:	766f6d65 	strbtvc	r6, [pc], -r5, ror #26
    100c:	78700065 	ldmdavc	r0!, {r0, r2, r5, r6}^
    1010:	72657449 	rsbvc	r7, r5, #1224736768	; 0x49000000
    1014:	726f7461 	rsbvc	r7, pc, #1627389952	; 0x61000000
    1018:	6f687300 	svcvs	0x00687300
    101c:	69207472 	stmdbvs	r0!, {r1, r4, r5, r6, sl, ip, sp, lr}
    1020:	7000746e 	andvc	r7, r0, lr, ror #8
    1024:	73694c78 	cmnvc	r9, #120, 24	; 0x7800
    1028:	78700074 	ldmdavc	r0!, {r2, r4, r5, r6}^
    102c:	4c77654e 	cfldr64mi	mvdx6, [r7], #-312	; 0xfffffec8
    1030:	49747369 	ldmdbmi	r4!, {r0, r3, r5, r6, r8, r9, ip, sp, lr}^
    1034:	006d6574 	rsbeq	r6, sp, r4, ror r5
    1038:	73694c76 	cmnvc	r9, #30208	; 0x7600
    103c:	736e4974 	cmnvc	lr, #116, 18	; 0x1d0000
    1040:	00747265 	rsbseq	r7, r4, r5, ror #4
    1044:	65755178 	ldrbvs	r5, [r5, #-376]!	; 0x178
    1048:	65476575 	strbvs	r6, [r7, #-1397]	; 0x575
    104c:	6972656e 	ldmdbvs	r2!, {r1, r2, r3, r5, r6, r8, sl, sp, lr}^
    1050:	6e655363 	cdpvs	3, 6, cr5, cr5, cr3, {3}
    1054:	6f724664 	svcvs	0x00724664
    1058:	5253496d 	subspl	r4, r3, #1785856	; 0x1b4000
    105c:	51787500 	cmnpl	r8, r0, lsl #10
    1060:	65756575 	ldrbvs	r6, [r5, #-1397]!	; 0x575
    1064:	7373654d 	cmnvc	r3, #322961408	; 0x13400000
    1068:	73656761 	cmnvc	r5, #25427968	; 0x1840000
    106c:	74696157 	strbtvc	r6, [r9], #-343	; 0x157
    1070:	00676e69 	rsbeq	r6, r7, r9, ror #28
    1074:	65755178 	ldrbvs	r5, [r5, #-376]!	; 0x178
    1078:	72436575 	subvc	r6, r3, #490733568	; 0x1d400000
    107c:	65746165 	ldrbvs	r6, [r4, #-357]!	; 0x165
    1080:	6e756f43 	cdpvs	15, 7, cr6, cr5, cr3, {2}
    1084:	676e6974 			; <UNDEFINED> instruction: 0x676e6974
    1088:	616d6553 	cmnvs	sp, r3, asr r5
    108c:	726f6870 	rsbvc	r6, pc, #112, 16	; 0x700000
    1090:	78700065 	ldmdavc	r0!, {r0, r2, r5, r6}^
    1094:	68676948 	stmdavs	r7!, {r3, r6, r8, fp, sp, lr}^
    1098:	72507265 	subsvc	r7, r0, #1342177286	; 0x50000006
    109c:	69726f69 	ldmdbvs	r2!, {r0, r3, r5, r6, r8, r9, sl, fp, sp, lr}^
    10a0:	61547974 	cmpvs	r4, r4, ror r9
    10a4:	6f576b73 	svcvs	0x00576b73
    10a8:	006e656b 	rsbeq	r6, lr, fp, ror #10
    10ac:	65755178 	ldrbvs	r5, [r5, #-376]!	; 0x178
    10b0:	73496575 	movtvc	r6, #38261	; 0x9575
    10b4:	75657551 	strbvc	r7, [r5, #-1361]!	; 0x551
    10b8:	706d4565 	rsbvc	r4, sp, r5, ror #10
    10bc:	72467974 	subvc	r7, r6, #116, 18	; 0x1d0000
    10c0:	53496d6f 	movtpl	r6, #40303	; 0x9d6f
    10c4:	72700052 	rsbsvc	r0, r0, #82	; 0x52
    10c8:	51734976 	cmnpl	r3, r6, ror r9
    10cc:	65756575 	ldrbvs	r6, [r5, #-1397]!	; 0x575
    10d0:	74706d45 	ldrbtvc	r6, [r0], #-3397	; 0xd45
    10d4:	72700079 	rsbsvc	r0, r0, #121	; 0x79
    10d8:	706f4376 	rsbvc	r4, pc, r6, ror r3	; <UNPREDICTABLE>
    10dc:	74614479 	strbtvc	r4, [r1], #-1145	; 0x479
    10e0:	6f724661 	svcvs	0x00724661
    10e4:	6575516d 	ldrbvs	r5, [r5, #-365]!	; 0x16d
    10e8:	70006575 	andvc	r6, r0, r5, ror r5
    10ec:	77654e78 			; <UNDEFINED> instruction: 0x77654e78
    10f0:	75657551 	strbvc	r7, [r5, #-1361]!	; 0x551
    10f4:	72700065 	rsbsvc	r0, r0, #101	; 0x65
    10f8:	706f4376 	rsbvc	r4, pc, r6, ror r3	; <UNPREDICTABLE>
    10fc:	74614479 	strbtvc	r4, [r1], #-1145	; 0x479
    1100:	516f5461 	cmnpl	pc, r1, ror #8
    1104:	65756575 	ldrbvs	r6, [r5, #-1397]!	; 0x575
    1108:	49547800 	ldmdbmi	r4, {fp, ip, sp, lr}^
    110c:	4f5f454d 	svcmi	0x005f454d
    1110:	78005455 	stmdavc	r0, {r0, r2, r4, r6, sl, ip, lr}
    1114:	75657551 	strbvc	r7, [r5, #-1361]!	; 0x551
    1118:	6e654765 	cdpvs	7, 6, cr4, cr5, cr5, {3}
    111c:	63697265 	cmnvs	r9, #1342177286	; 0x50000006
    1120:	65636552 	strbvs	r6, [r3, #-1362]!	; 0x552
    1124:	00657669 	rsbeq	r7, r5, r9, ror #12
    1128:	724f6370 	subvc	r6, pc, #112, 6	; 0xc0000001
    112c:	6e696769 	cdpvs	7, 6, cr6, cr9, cr9, {3}
    1130:	65526c61 	ldrbvs	r6, [r2, #-3169]	; 0xc61
    1134:	6f506461 	svcvs	0x00506461
    1138:	69746973 	ldmdbvs	r4!, {r0, r1, r4, r5, r6, r8, fp, sp, lr}^
    113c:	70006e6f 	andvc	r6, r0, pc, ror #28
    1140:	61655263 	cmnvs	r5, r3, ror #4
    1144:	6f724664 	svcvs	0x00724664
    1148:	7870006d 	ldmdavc	r0!, {r0, r2, r3, r5, r6}^
    114c:	6b736154 	blvs	1cd96a4 <load_address-0x9e32695c>
    1150:	656b6f57 	strbvs	r6, [fp, #-3927]!	; 0xf57
    1154:	4f78006e 	svcmi	0x0078006e
    1158:	66726576 			; <UNDEFINED> instruction: 0x66726576
    115c:	43776f6c 	cmnmi	r7, #108, 30	; 0x1b0
    1160:	746e756f 	strbtvc	r7, [lr], #-1391	; 0x56f
    1164:	6c427800 	mcrrvs	8, 0, r7, r2, cr0
    1168:	546b636f 	strbtpl	r6, [fp], #-879	; 0x36f
    116c:	00656d69 	rsbeq	r6, r5, r9, ror #26
    1170:	65755176 	ldrbvs	r5, [r5, #-374]!	; 0x176
    1174:	65446575 	strbvs	r6, [r4, #-1397]	; 0x575
    1178:	6574656c 	ldrbvs	r6, [r4, #-1388]!	; 0x56c
    117c:	48637000 	stmdami	r3!, {ip, sp, lr}^
    1180:	00646165 	rsbeq	r6, r4, r5, ror #2
    1184:	65755178 	ldrbvs	r5, [r5, #-376]!	; 0x178
    1188:	61546575 	cmpvs	r4, r5, ror r5
    118c:	754d656b 	strbvc	r6, [sp, #-1387]	; 0x56b
    1190:	52786574 	rsbspl	r6, r8, #116, 10	; 0x1d000000
    1194:	72756365 	rsbsvc	r6, r5, #-1811939327	; 0x94000001
    1198:	65766973 	ldrbvs	r6, [r6, #-2419]!	; 0x973
    119c:	69547800 	ldmdbvs	r4, {fp, ip, sp, lr}^
    11a0:	6e4f656d 	cdpvs	5, 4, cr6, cr15, cr13, {3}
    11a4:	65746e45 	ldrbvs	r6, [r4, #-3653]!	; 0xe45
    11a8:	676e6972 			; <UNDEFINED> instruction: 0x676e6972
    11ac:	75517800 	ldrbvc	r7, [r1, #-2048]	; 0x800
    11b0:	47657565 	strbmi	r7, [r5, -r5, ror #10]!
    11b4:	72656e65 	rsbvc	r6, r5, #1616	; 0x650
    11b8:	65536369 	ldrbvs	r6, [r3, #-873]	; 0x369
    11bc:	7800646e 	stmdavc	r0, {r1, r2, r3, r5, r6, sl, sp, lr}
    11c0:	656d6954 	strbvs	r6, [sp, #-2388]!	; 0x954
    11c4:	5474754f 	ldrbtpl	r7, [r4], #-1359	; 0x54f
    11c8:	00657079 	rsbeq	r7, r5, r9, ror r0
    11cc:	65755178 	ldrbvs	r5, [r5, #-376]!	; 0x178
    11d0:	72436575 	subvc	r6, r3, #490733568	; 0x1d400000
    11d4:	65746165 	ldrbvs	r6, [r4, #-357]!	; 0x165
    11d8:	6574754d 	ldrbvs	r7, [r4, #-1357]!	; 0x54d
    11dc:	78750078 	ldmdavc	r5!, {r3, r4, r5, r6}^
    11e0:	75746552 	ldrbvc	r6, [r4, #-1362]!	; 0x552
    11e4:	78006e72 	stmdavc	r0, {r1, r4, r5, r6, r9, sl, fp, sp, lr}
    11e8:	75657551 	strbvc	r7, [r5, #-1361]!	; 0x551
    11ec:	6e614865 	cdpvs	8, 6, cr4, cr1, cr5, {3}
    11f0:	00656c64 	rsbeq	r6, r5, r4, ror #24
    11f4:	65755178 	ldrbvs	r5, [r5, #-376]!	; 0x178
    11f8:	65526575 	ldrbvs	r6, [r2, #-1397]	; 0x575
    11fc:	76696563 	strbtvc	r6, [r9], -r3, ror #10
    1200:	6f724665 	svcvs	0x00724665
    1204:	5253496d 	subspl	r4, r3, #1785856	; 0x1b4000
    1208:	4d787000 	ldclmi	0, cr7, [r8, #-0]
    120c:	78657475 	stmdavc	r5!, {r0, r2, r4, r5, r6, sl, ip, sp, lr}^
    1210:	75517800 	ldrbvc	r7, [r1, #-2048]	; 0x800
    1214:	43657565 	cmnmi	r5, #423624704	; 0x19400000
    1218:	74616572 	strbtvc	r6, [r1], #-1394	; 0x572
    121c:	78750065 	ldmdavc	r5!, {r0, r2, r5, r6}^
    1220:	676e654c 	strbvs	r6, [lr, -ip, asr #10]!
    1224:	75006874 	strvc	r6, [r0, #-2164]	; 0x874
    1228:	65755178 	ldrbvs	r5, [r5, #-376]!	; 0x178
    122c:	654c6575 	strbvs	r6, [ip, #-1397]	; 0x575
    1230:	6874676e 	ldmdavs	r4!, {r1, r2, r3, r5, r6, r8, r9, sl, sp, lr}^
    1234:	61547800 	cmpvs	r4, r0, lsl #16
    1238:	57736b73 			; <UNDEFINED> instruction: 0x57736b73
    123c:	69746961 	ldmdbvs	r4!, {r0, r5, r6, r8, fp, sp, lr}^
    1240:	6f54676e 	svcvs	0x0054676e
    1244:	65636552 	strbvs	r6, [r3, #-1362]!	; 0x552
    1248:	00657669 	rsbeq	r7, r5, r9, ror #12
    124c:	73754a78 	cmnvc	r5, #120, 20	; 0x78000
    1250:	65655074 	strbvs	r5, [r5, #-116]!	; 0x74
    1254:	676e696b 	strbvs	r6, [lr, -fp, ror #18]!
    1258:	51787500 	cmnpl	r8, r0, lsl #10
    125c:	65756575 	ldrbvs	r6, [r5, #-1397]!	; 0x575
    1260:	7373654d 	cmnvc	r3, #322961408	; 0x13400000
    1264:	73656761 	cmnvc	r5, #25427968	; 0x1840000
    1268:	74696157 	strbtvc	r6, [r9], #-343	; 0x157
    126c:	46676e69 	strbtmi	r6, [r7], -r9, ror #28
    1270:	496d6f72 	stmdbmi	sp!, {r1, r4, r5, r6, r8, r9, sl, fp, sp, lr}^
    1274:	70005253 	andvc	r5, r0, r3, asr r2
    1278:	65744976 	ldrbvs	r4, [r4, #-2422]!	; 0x976
    127c:	516f546d 	cmnpl	pc, sp, ror #8
    1280:	65756575 	ldrbvs	r6, [r5, #-1397]!	; 0x575
    1284:	55517800 	ldrbpl	r7, [r1, #-2048]	; 0x800
    1288:	00455545 	subeq	r5, r5, r5, asr #10
    128c:	746e4578 	strbtvc	r4, [lr], #-1400	; 0x578
    1290:	69547972 	ldmdbvs	r4, {r1, r4, r5, r6, r8, fp, ip, sp, lr}^
    1294:	6553656d 	ldrbvs	r6, [r3, #-1389]	; 0x56d
    1298:	75510074 	ldrbvc	r0, [r1, #-116]	; 0x74
    129c:	44657565 	strbtmi	r7, [r5], #-1381	; 0x565
    12a0:	6e696665 	cdpvs	6, 6, cr6, cr9, cr5, {3}
    12a4:	6f697469 	svcvs	0x00697469
    12a8:	6f53006e 	svcvs	0x0053006e
    12ac:	65637275 	strbvs	r7, [r3, #-629]!	; 0x275
    12b0:	6575712f 	ldrbvs	r7, [r5, #-303]!	; 0x12f
    12b4:	632e6575 	teqvs	lr, #490733568	; 0x1d400000
    12b8:	75517800 	ldrbvc	r7, [r1, #-2048]	; 0x800
    12bc:	49657565 	stmdbmi	r5!, {r0, r2, r5, r6, r8, sl, ip, sp, lr}^
    12c0:	65755173 	ldrbvs	r5, [r5, #-371]!	; 0x173
    12c4:	75466575 	strbvc	r6, [r6, #-1397]	; 0x575
    12c8:	72466c6c 	subvc	r6, r6, #108, 24	; 0x6c00
    12cc:	53496d6f 	movtpl	r6, #40303	; 0x9d6f
    12d0:	54780052 	ldrbtpl	r0, [r8], #-82	; 0x52
    12d4:	636f4c78 	cmnvs	pc, #120, 24	; 0x7800
    12d8:	5178006b 	cmnpl	r8, fp, rrx
    12dc:	65756575 	ldrbvs	r6, [r5, #-1397]!	; 0x575
    12e0:	65766947 	ldrbvs	r6, [r6, #-2375]!	; 0x947
    12e4:	6574754d 	ldrbvs	r7, [r4, #-1357]!	; 0x54d
    12e8:	63655278 	cmnvs	r5, #120, 4	; 0x80000007
    12ec:	69737275 	ldmdbvs	r3!, {r0, r2, r4, r5, r6, r9, ip, sp, lr}^
    12f0:	75006576 	strvc	r6, [r0, #-1398]	; 0x576
    12f4:	76615378 			; <UNDEFINED> instruction: 0x76615378
    12f8:	6e496465 	cdpvs	4, 4, cr6, cr9, cr5, {3}
    12fc:	72726574 	rsbsvc	r6, r2, #116, 10	; 0x1d000000
    1300:	53747075 	cmnpl	r4, #117	; 0x75
    1304:	75746174 	ldrbvc	r6, [r4, #-372]!	; 0x174
    1308:	72700073 	rsbsvc	r0, r0, #115	; 0x73
    130c:	51734976 	cmnpl	r3, r6, ror r9
    1310:	65756575 	ldrbvs	r6, [r5, #-1397]!	; 0x575
    1314:	6c6c7546 	cfstr64vs	mvdx7, [ip], #-280	; 0xfffffee8
    1318:	4d787500 	cfldr64mi	mvdx7, [r8, #-0]
    131c:	61737365 	cmnvs	r3, r5, ror #6
    1320:	57736567 	ldrbpl	r6, [r3, -r7, ror #10]!
    1324:	69746961 	ldmdbvs	r4!, {r0, r5, r6, r8, fp, sp, lr}^
    1328:	7000676e 	andvc	r6, r0, lr, ror #14
    132c:	66754276 			; <UNDEFINED> instruction: 0x66754276
    1330:	00726566 	rsbseq	r6, r2, r6, ror #10
    1334:	706f4378 	rsbvc	r4, pc, r8, ror r3	; <UNPREDICTABLE>
    1338:	736f5079 	cmnvc	pc, #121	; 0x79
    133c:	6f697469 	svcvs	0x00697469
    1340:	7270006e 	rsbsvc	r0, r0, #110	; 0x6e
    1344:	6c6e5576 	cfstr64vs	mvdx5, [lr], #-472	; 0xfffffe28
    1348:	516b636f 	cmnpl	fp, pc, ror #6
    134c:	65756575 	ldrbvs	r6, [r5, #-1397]!	; 0x575
    1350:	78527800 	ldmdavc	r2, {fp, ip, sp, lr}^
    1354:	6b636f4c 	blvs	18dd08c <load_address-0x9e722f74>
    1358:	54637000 	strbtpl	r7, [r3], #-0
    135c:	006c6961 	rsbeq	r6, ip, r1, ror #18
    1360:	736f5078 	cmnvc	pc, #120	; 0x78
    1364:	6f697469 	svcvs	0x00697469
    1368:	7875006e 	ldmdavc	r5!, {r1, r2, r3, r5, r6}^
    136c:	74696e49 	strbtvc	r6, [r9], #-3657	; 0xe49
    1370:	436c6169 	cmnmi	ip, #1073741850	; 0x4000001a
    1374:	746e756f 	strbtvc	r7, [lr], #-1391	; 0x56f
    1378:	43787500 	cmnmi	r8, #0, 10
    137c:	746e756f 	strbtvc	r7, [lr], #-1391	; 0x56f
    1380:	756c6156 	strbvc	r6, [ip, #-342]!	; 0x156
    1384:	54780065 	ldrbtpl	r0, [r8], #-101	; 0x65
    1388:	736b7361 	cmnvc	fp, #-2080374783	; 0x84000001
    138c:	74696157 	strbtvc	r6, [r9], #-343	; 0x157
    1390:	54676e69 	strbtpl	r6, [r7], #-3689	; 0xe69
    1394:	6e65536f 	cdpvs	3, 6, cr5, cr5, cr15, {3}
    1398:	51780064 	cmnpl	r8, r4, rrx
    139c:	65756575 	ldrbvs	r6, [r5, #-1397]!	; 0x575
    13a0:	657a6953 	ldrbvs	r6, [sl, #-2387]!	; 0x953
    13a4:	79426e49 	stmdbvc	r2, {r0, r3, r6, r9, sl, fp, sp, lr}^
    13a8:	00736574 	rsbseq	r6, r3, r4, ror r5
    13ac:	75517870 	ldrbvc	r7, [r1, #-2160]	; 0x870
    13b0:	00657565 	rsbeq	r7, r5, r5, ror #10
    13b4:	72576370 	subsvc	r6, r7, #112, 6	; 0xc0000001
    13b8:	54657469 	strbtpl	r7, [r5], #-1129	; 0x469
    13bc:	7875006f 	ldmdavc	r5!, {r0, r1, r2, r3, r5, r6}^
    13c0:	6d657449 	cfstrdvs	mvd7, [r5, #-292]!	; 0xfffffedc
    13c4:	657a6953 	ldrbvs	r6, [sl, #-2387]!	; 0x953
    13c8:	48787000 	ldmdami	r8!, {ip, sp, lr}^
    13cc:	6c646e61 	stclvs	14, cr6, [r4], #-388	; 0xfffffe7c
    13d0:	51760065 	cmnpl	r6, r5, rrx
    13d4:	65756575 	ldrbvs	r6, [r5, #-1397]!	; 0x575
    13d8:	74696157 	strbtvc	r6, [r9], #-343	; 0x157
    13dc:	4d726f46 	ldclmi	15, cr6, [r2, #-280]!	; 0xfffffee8
    13e0:	61737365 	cmnvs	r3, r5, ror #6
    13e4:	65526567 	ldrbvs	r6, [r2, #-1383]	; 0x567
    13e8:	69727473 	ldmdbvs	r2!, {r0, r1, r4, r5, r6, sl, ip, sp, lr}^
    13ec:	64657463 	strbtvs	r7, [r5], #-1123	; 0x463
    13f0:	76727000 	ldrbtvc	r7, [r2], -r0
    13f4:	74696e49 	strbtvc	r6, [r9], #-3657	; 0xe49
    13f8:	696c6169 	stmdbvs	ip!, {r0, r3, r5, r6, r8, sp, lr}^
    13fc:	43546573 	cmpmi	r4, #482344960	; 0x1cc00000
    1400:	72615642 	rsbvc	r5, r1, #69206016	; 0x4200000
    1404:	6c626169 	stfvse	f6, [r2], #-420	; 0xfffffe5c
    1408:	76007365 	strvc	r7, [r0], -r5, ror #6
    140c:	6b736154 	blvs	1cd9964 <load_address-0x9e32669c>
    1410:	70737553 	rsbsvc	r7, r3, r3, asr r5
    1414:	00646e65 	rsbeq	r6, r4, r5, ror #28
    1418:	75437875 	strbvc	r7, [r3, #-2165]	; 0x875
    141c:	6e657272 	mcrvs	2, 3, r7, cr5, cr2, {3}
    1420:	6d754e74 	ldclvs	14, cr4, [r5, #-464]!	; 0xfffffe30
    1424:	4f726562 	svcmi	0x00726562
    1428:	73615466 	cmnvc	r1, #1711276032	; 0x66000000
    142c:	7800736b 	stmdavc	r0, {r0, r1, r3, r5, r6, r8, r9, ip, sp, lr}
    1430:	6b736154 	blvs	1cd9988 <load_address-0x9e326678>
    1434:	43746547 	cmnmi	r4, #297795584	; 0x11c00000
    1438:	65727275 	ldrbvs	r7, [r2, #-629]!	; 0x275
    143c:	6154746e 	cmpvs	r4, lr, ror #8
    1440:	61486b73 	hvcvs	34483	; 0x86b3
    1444:	656c646e 	strbvs	r6, [ip, #-1134]!	; 0x46e
    1448:	61547600 	cmpvs	r4, r0, lsl #12
    144c:	74536b73 	ldrbvc	r6, [r3], #-2931	; 0xb73
    1450:	54747261 	ldrbtpl	r7, [r4], #-609	; 0x261
    1454:	65636172 	strbvs	r6, [r3, #-370]!	; 0x172
    1458:	75537800 	ldrbvc	r7, [r3, #-2048]	; 0x800
    145c:	6e657073 	mcrvs	0, 3, r7, cr5, cr3, {3}
    1460:	54646564 	strbtpl	r6, [r4], #-1380	; 0x564
    1464:	4c6b7361 	stclmi	3, cr7, [fp], #-388	; 0xfffffe7c
    1468:	00747369 	rsbseq	r7, r4, r9, ror #6
    146c:	73615478 	cmnvc	r1, #120, 8	; 0x78000000
    1470:	6e65476b 	cdpvs	7, 6, cr4, cr5, cr11, {3}
    1474:	63697265 	cmnvs	r9, #1342177286	; 0x50000006
    1478:	61657243 	cmnvs	r5, r3, asr #4
    147c:	78006574 	stmdavc	r0, {r2, r4, r5, r6, r8, sl, sp, lr}
    1480:	65726c41 	ldrbvs	r6, [r2, #-3137]!	; 0xc41
    1484:	59796461 	ldmdbpl	r9!, {r0, r5, r6, sl, sp, lr}^
    1488:	646c6569 	strbtvs	r6, [ip], #-1385	; 0x569
    148c:	70006465 	andvc	r6, r0, r5, ror #8
    1490:	6d695478 	cfstrdvs	mvd5, [r9, #-480]!	; 0xfffffe20
    1494:	74754f65 	ldrbtvc	r4, [r5], #-3941	; 0xf65
    1498:	61547600 	cmpvs	r4, r0, lsl #12
    149c:	72506b73 	subsvc	r6, r0, #117760	; 0x1cc00
    14a0:	69726f69 	ldmdbvs	r2!, {r0, r3, r5, r6, r8, r9, sl, fp, sp, lr}^
    14a4:	6e497974 	mcrvs	9, 2, r7, cr9, cr4, {3}
    14a8:	69726568 	ldmdbvs	r2!, {r3, r5, r6, r8, sl, sp, lr}^
    14ac:	78700074 	ldmdavc	r0!, {r2, r4, r5, r6}^
    14b0:	6b736154 	blvs	1cd9a08 <load_address-0x9e3265f8>
    14b4:	65526f54 	ldrbvs	r6, [r2, #-3924]	; 0xf54
    14b8:	656d7573 	strbvs	r7, [sp, #-1395]!	; 0x573
    14bc:	61547600 	cmpvs	r4, r0, lsl #12
    14c0:	65446b73 	strbvs	r6, [r4, #-2931]	; 0xb73
    14c4:	0079616c 	rsbseq	r6, r9, ip, ror #2
    14c8:	73615478 	cmnvc	r1, #120, 8	; 0x78000000
    14cc:	6e61486b 	cdpvs	8, 6, cr4, cr1, cr11, {3}
    14d0:	00656c64 	rsbeq	r6, r5, r4, ror #24
    14d4:	73615476 	cmnvc	r1, #1979711488	; 0x76000000
    14d8:	746e456b 	strbtvc	r4, [lr], #-1387	; 0x56b
    14dc:	72437265 	subvc	r7, r3, #1342177286	; 0x50000006
    14e0:	63697469 	cmnvs	r9, #1761607680	; 0x69000000
    14e4:	76006c61 	strvc	r6, [r0], -r1, ror #24
    14e8:	6b736154 	blvs	1cd9a40 <load_address-0x9e3265c0>
    14ec:	74697845 	strbtvc	r7, [r9], #-2117	; 0x845
    14f0:	74697243 	strbtvc	r7, [r9], #-579	; 0x243
    14f4:	6c616369 	stclvs	3, cr6, [r1], #-420	; 0xfffffe5c
    14f8:	6b737400 	blvs	1cde500 <load_address-0x9e321b00>
    14fc:	6b736154 	blvs	1cd9a54 <load_address-0x9e3265ac>
    1500:	746e6f43 	strbtvc	r6, [lr], #-3907	; 0xf43
    1504:	426c6f72 	rsbmi	r6, ip, #456	; 0x1c8
    1508:	6b636f6c 	blvs	18dd2c0 <load_address-0x9e722d40>
    150c:	4e787000 	cdpmi	0, 7, cr7, cr8, cr0, {0}
    1510:	43547765 	cmpmi	r4, #26476544	; 0x1940000
    1514:	54780042 	ldrbtpl	r0, [r8], #-66	; 0x42
    1518:	476b7361 	strbmi	r7, [fp, -r1, ror #6]!
    151c:	69547465 	ldmdbvs	r4, {r0, r2, r5, r6, sl, ip, sp, lr}^
    1520:	6f436b63 	svcvs	0x00436b63
    1524:	46746e75 			; <UNDEFINED> instruction: 0x46746e75
    1528:	496d6f72 	stmdbmi	sp!, {r1, r4, r5, r6, r8, r9, sl, fp, sp, lr}^
    152c:	70005253 	andvc	r5, r0, r3, asr r2
    1530:	6c417672 	mcrrvs	6, 7, r7, r1, cr2
    1534:	61636f6c 	cmnvs	r3, ip, ror #30
    1538:	43546574 	cmpmi	r4, #116, 10	; 0x1d000000
    153c:	646e4142 	strbtvs	r4, [lr], #-322	; 0x142
    1540:	63617453 	cmnvs	r1, #1392508928	; 0x53000000
    1544:	7870006b 	ldmdavc	r0!, {r0, r1, r3, r5, r6}^
    1548:	73726946 	cmnvc	r2, #1146880	; 0x118000
    154c:	42435474 	submi	r5, r3, #116, 8	; 0x74000000
    1550:	53737500 	cmnpl	r3, #0, 10
    1554:	6b636174 	blvs	18d9b2c <load_address-0x9e7264d4>
    1558:	74706544 	ldrbtvc	r6, [r0], #-1348	; 0x544
    155c:	75700068 	ldrbvc	r0, [r0, #-104]!	; 0x68
    1560:	61745378 	cmnvs	r4, r8, ror r3
    1564:	75426b63 	strbvc	r6, [r2, #-2915]	; 0xb63
    1568:	72656666 	rsbvc	r6, r5, #106954752	; 0x6600000
    156c:	61547600 	cmpvs	r4, r0, lsl #12
    1570:	72506b73 	subsvc	r6, r0, #117760	; 0x1cc00
    1574:	69726f69 	ldmdbvs	r2!, {r0, r3, r5, r6, r8, r9, sl, fp, sp, lr}^
    1578:	65537974 	ldrbvs	r7, [r3, #-2420]	; 0x974
    157c:	54760074 	ldrbtpl	r0, [r6], #-116	; 0x74
    1580:	536b7361 	cmnpl	fp, #-2080374783	; 0x84000001
    1584:	74726174 	ldrbtvc	r6, [r2], #-372	; 0x174
    1588:	65686353 	strbvs	r6, [r8, #-851]!	; 0x353
    158c:	656c7564 	strbvs	r7, [ip, #-1380]!	; 0x564
    1590:	54780072 	ldrbtpl	r0, [r8], #-114	; 0x72
    1594:	69636172 	stmdbvs	r3!, {r1, r4, r5, r6, r8, sp, lr}^
    1598:	7500676e 	strvc	r6, [r0, #-1902]	; 0x76e
    159c:	42435478 	submi	r5, r3, #120, 8	; 0x78000000
    15a0:	626d754e 	rsbvs	r7, sp, #327155712	; 0x13800000
    15a4:	75007265 	strvc	r7, [r0, #-613]	; 0x265
    15a8:	65725078 	ldrbvs	r5, [r2, #-120]!	; 0x78
    15ac:	756f6976 	strbvc	r6, [pc, #-2422]!	; c3e <load_address-0x9ffff3c2>
    15b0:	73615473 	cmnvc	r1, #1929379840	; 0x73000000
    15b4:	5476006b 	ldrbtpl	r0, [r6], #-107	; 0x6b
    15b8:	506b7361 	rsbpl	r7, fp, r1, ror #6
    15bc:	6563616c 	strbvs	r6, [r3, #-364]!	; 0x16c
    15c0:	76456e4f 	strbvc	r6, [r5], -pc, asr #28
    15c4:	4c746e65 	ldclmi	14, cr6, [r4], #-404	; 0xfffffe6c
    15c8:	00747369 	rsbseq	r7, r4, r9, ror #6
    15cc:	61547870 	cmpvs	r4, r0, ror r8
    15d0:	75006b73 	strvc	r6, [r0, #-2931]	; 0xb73
    15d4:	68635378 	stmdavs	r3!, {r3, r4, r5, r6, r8, r9, ip, lr}^
    15d8:	6c756465 	cfldrdvs	mvd6, [r5], #-404	; 0xfffffe6c
    15dc:	75537265 	ldrbvc	r7, [r3, #-613]	; 0x265
    15e0:	6e657073 	mcrvs	0, 3, r7, cr5, cr3, {3}
    15e4:	00646564 	rsbeq	r6, r4, r4, ror #10
    15e8:	72756f53 	rsbsvc	r6, r5, #332	; 0x14c
    15ec:	742f6563 	strtvc	r6, [pc], #-1379	; 15f4 <load_address-0x9fffea0c>
    15f0:	736b7361 	cmnvc	fp, #-2080374783	; 0x84000001
    15f4:	7600632e 	strvc	r6, [r0], -lr, lsr #6
    15f8:	6b736154 	blvs	1cd9b50 <load_address-0x9e3264b0>
    15fc:	7473694c 	ldrbtvc	r6, [r3], #-2380	; 0x94c
    1600:	43787000 	cmnmi	r8, #0
    1604:	74616572 	strbtvc	r6, [r1], #-1394	; 0x572
    1608:	61546465 	cmpvs	r4, r5, ror #8
    160c:	78006b73 	stmdavc	r0, {r0, r1, r4, r5, r6, r8, r9, fp, sp, lr}
    1610:	6b736154 	blvs	1cd9b68 <load_address-0x9e326498>
    1614:	61547349 	cmpvs	r4, r9, asr #6
    1618:	75536b73 	ldrbvc	r6, [r3, #-2931]	; 0xb73
    161c:	6e657073 	mcrvs	0, 3, r7, cr5, cr3, {3}
    1620:	00646564 	rsbeq	r6, r4, r4, ror #10
    1624:	63695478 	cmnvs	r9, #120, 8	; 0x78000000
    1628:	756f436b 	strbvc	r4, [pc, #-875]!	; 12c5 <load_address-0x9fffed3b>
    162c:	7400746e 	strvc	r7, [r0], #-1134	; 0x46e
    1630:	43546b73 	cmpmi	r4, #117760	; 0x1cc00
    1634:	78700042 	ldmdavc	r0!, {r1, r6}^
    1638:	00424354 	subeq	r4, r2, r4, asr r3
    163c:	65695978 	strbvs	r5, [r9, #-2424]!	; 0x978
    1640:	6552646c 	ldrbvs	r6, [r2, #-1132]	; 0x46c
    1644:	72697571 	rsbvc	r7, r9, #473956352	; 0x1c400000
    1648:	76006465 	strvc	r6, [r0], -r5, ror #8
    164c:	6b736154 	blvs	1cd9ba4 <load_address-0x9e32645c>
    1650:	75736552 	ldrbvc	r6, [r3, #-1362]!	; 0x552
    1654:	7000656d 	andvc	r6, r0, sp, ror #10
    1658:	61725463 	cmnvs	r2, r3, ror #8
    165c:	75426563 	strbvc	r6, [r2, #-1379]	; 0x563
    1660:	72656666 	rsbvc	r6, r5, #106954752	; 0x6600000
    1664:	00646e45 	rsbeq	r6, r4, r5, asr #28
    1668:	61547375 	cmpvs	r4, r5, ror r3
    166c:	68436b73 	stmdavs	r3, {r0, r1, r4, r5, r6, r8, r9, fp, sp, lr}^
    1670:	466b6365 	strbtmi	r6, [fp], -r5, ror #6
    1674:	53656572 	cmnpl	r5, #478150656	; 0x1c800000
    1678:	6b636174 	blvs	18d9c50 <load_address-0x9e7263b0>
    167c:	63617053 	cmnvs	r1, #83	; 0x53
    1680:	4d780065 	ldclmi	0, cr0, [r8, #-404]!	; 0xfffffe6c
    1684:	524f4d45 	subpl	r4, pc, #4416	; 0x1140
    1688:	45525f59 	ldrbmi	r5, [r2, #-3929]	; 0xf59
    168c:	4e4f4947 	cdpmi	9, 4, cr4, cr15, cr7, {2}
    1690:	74536300 	ldrbvc	r6, [r3], #-768	; 0x300
    1694:	73757461 	cmnvc	r5, #1627389952	; 0x61000000
    1698:	63757000 	cmnvs	r5, #0
    169c:	63617453 	cmnvs	r1, #1392508928	; 0x53000000
    16a0:	7479426b 	ldrbtvc	r4, [r9], #-619	; 0x26b
    16a4:	72700065 	rsbsvc	r0, r0, #101	; 0x65
    16a8:	6c644976 	stclvs	9, cr4, [r4], #-472	; 0xfffffe28
    16ac:	73615465 	cmnvc	r1, #1694498816	; 0x65000000
    16b0:	4d78006b 	ldclmi	0, cr0, [r8, #-428]!	; 0xfffffe54
    16b4:	65737369 	ldrbvs	r7, [r3, #-873]!	; 0x369
    16b8:	65695964 	strbvs	r5, [r9, #-2404]!	; 0x964
    16bc:	7000646c 	andvc	r6, r0, ip, ror #8
    16c0:	61725463 	cmnvs	r2, r3, ror #8
    16c4:	75426563 	strbvc	r6, [r2, #-1379]	; 0x563
    16c8:	72656666 	rsbvc	r6, r5, #106954752	; 0x6600000
    16cc:	43787000 	cmnmi	r8, #0
    16d0:	65727275 	ldrbvs	r7, [r2, #-629]!	; 0x275
    16d4:	4354746e 	cmpmi	r4, #1845493760	; 0x6e000000
    16d8:	78750042 	ldmdavc	r5!, {r1, r6}^
    16dc:	74697243 	strbtvc	r7, [r9], #-579	; 0x243
    16e0:	6c616369 	stclvs	3, cr6, [r1], #-420	; 0xfffffe5c
    16e4:	7473654e 	ldrbtvc	r6, [r3], #-1358	; 0x54e
    16e8:	00676e69 	rsbeq	r6, r7, r9, ror #28
    16ec:	73615476 	cmnvc	r1, #1979711488	; 0x76000000
    16f0:	6977536b 	ldmdbvs	r7!, {r0, r1, r3, r5, r6, r8, r9, ip, lr}^
    16f4:	43686374 	cmnmi	r8, #116, 6	; 0xd0000001
    16f8:	65746e6f 	ldrbvs	r6, [r4, #-3695]!	; 0xe6f
    16fc:	75007478 	strvc	r7, [r0, #-1144]	; 0x478
    1700:	6675426c 	ldrbtvs	r4, [r5], -ip, ror #4
    1704:	4c726566 	cfldr64mi	mvdx6, [r2], #-408	; 0xfffffe68
    1708:	74676e65 	strbtvc	r6, [r7], #-3685	; 0xe65
    170c:	78700068 	ldmdavc	r0!, {r3, r5, r6}^
    1710:	6574754d 	ldrbvs	r7, [r4, #-1357]!	; 0x54d
    1714:	6c6f4878 	stclvs	8, cr4, [pc], #-480	; 153c <load_address-0x9fffeac4>
    1718:	00726564 	rsbseq	r6, r2, r4, ror #10
    171c:	74537870 	ldrbvc	r7, [r3], #-2160	; 0x870
    1720:	006b6361 	rsbeq	r6, fp, r1, ror #6
    1724:	6f437375 	svcvs	0x00437375
    1728:	00746e75 	rsbseq	r6, r4, r5, ror lr
    172c:	764f7870 			; <UNDEFINED> instruction: 0x764f7870
    1730:	6c667265 	sfmvs	f7, 2, [r6], #-404	; 0xfffffe6c
    1734:	6544776f 	strbvs	r7, [r4, #-1903]	; 0x76f
    1738:	6579616c 	ldrbvs	r6, [r9, #-364]!	; 0x16c
    173c:	73615464 	cmnvc	r1, #100, 8	; 0x64000000
    1740:	73694c6b 	cmnvc	r9, #27392	; 0x6b00
    1744:	52780074 	rsbspl	r0, r8, #116	; 0x74
    1748:	6f696765 	svcvs	0x00696765
    174c:	7600736e 	strvc	r7, [r0], -lr, ror #6
    1750:	6b736154 	blvs	1cd9ca8 <load_address-0x9e326358>
    1754:	6f697250 	svcvs	0x00697250
    1758:	79746972 	ldmdbvc	r4!, {r1, r4, r5, r6, r8, fp, sp, lr}^
    175c:	69736944 	ldmdbvs	r3!, {r2, r6, r8, fp, sp, lr}^
    1760:	7265686e 	rsbvc	r6, r5, #7208960	; 0x6e0000
    1764:	78007469 	stmdavc	r0, {r0, r3, r5, r6, sl, ip, sp, lr}
    1768:	646e6550 	strbtvs	r6, [lr], #-1360	; 0x550
    176c:	52676e69 	rsbpl	r6, r7, #1680	; 0x690
    1770:	79646165 	stmdbvc	r4!, {r0, r2, r5, r6, r8, sp, lr}^
    1774:	7473694c 	ldrbtvc	r6, [r3], #-2380	; 0x94c
    1778:	4e787500 	cdpmi	5, 7, cr7, cr8, cr0, {0}
    177c:	72507765 	subsvc	r7, r0, #26476544	; 0x1940000
    1780:	69726f69 	ldmdbvs	r2!, {r0, r3, r5, r6, r8, r9, sl, fp, sp, lr}^
    1784:	70007974 	andvc	r7, r0, r4, ror r9
    1788:	73615478 	cmnvc	r1, #120, 8	; 0x78000000
    178c:	646f436b 	strbtvs	r4, [pc], #-875	; 1794 <load_address-0x9fffe86c>
    1790:	4e780065 	cdpmi	0, 7, cr0, cr8, cr5, {3}
    1794:	54747865 	ldrbtpl	r7, [r4], #-2149	; 0x865
    1798:	556b7361 	strbpl	r7, [fp, #-865]!	; 0x361
    179c:	6f6c626e 	svcvs	0x006c626e
    17a0:	69546b63 	ldmdbvs	r4, {r0, r1, r5, r6, r8, r9, fp, sp, lr}^
    17a4:	7000656d 	andvc	r6, r0, sp, ror #10
    17a8:	61725463 	cmnvs	r2, r3, ror #8
    17ac:	75426563 	strbvc	r6, [r2, #-1379]	; 0x563
    17b0:	72656666 	rsbvc	r6, r5, #106954752	; 0x6600000
    17b4:	72617453 	rsbvc	r7, r1, #1392508928	; 0x53000000
    17b8:	63700074 	cmnvs	r0, #116	; 0x74
    17bc:	66667542 	strbtvs	r7, [r6], -r2, asr #10
    17c0:	70007265 	andvc	r7, r0, r5, ror #4
    17c4:	65725078 	ldrbvs	r5, [r2, #-120]!	; 0x78
    17c8:	756f6976 	strbvc	r6, [pc, #-2422]!	; e5a <load_address-0x9ffff1a6>
    17cc:	6b615773 	blvs	18575a0 <load_address-0x9e7a8a60>
    17d0:	6d695465 	cfstrdvs	mvd5, [r9, #-404]!	; 0xfffffe6c
    17d4:	6c750065 	ldclvs	0, cr0, [r5], #-404	; 0xfffffe6c
    17d8:	676e654c 	strbvs	r6, [lr, -ip, asr #10]!
    17dc:	6e496874 	mcrvs	8, 2, r6, cr9, cr4, {3}
    17e0:	65747942 	ldrbvs	r7, [r4, #-2370]!	; 0x942
    17e4:	78700073 	ldmdavc	r0!, {r0, r1, r4, r5, r6}^
    17e8:	4f706f54 	svcmi	0x00706f54
    17ec:	61745366 	cmnvs	r4, r6, ror #6
    17f0:	70006b63 	andvc	r6, r0, r3, ror #22
    17f4:	78654e78 	stmdavc	r5!, {r3, r4, r5, r6, r9, sl, fp, lr}^
    17f8:	42435474 	submi	r5, r3, #116, 8	; 0x74000000
    17fc:	53637000 	cmnpl	r3, #0
    1800:	75746174 	ldrbvc	r6, [r4, #-372]!	; 0x174
    1804:	72745373 	rsbsvc	r5, r4, #-872415231	; 0xcc000001
    1808:	00676e69 	rsbeq	r6, r7, r9, ror #28
    180c:	6e557870 	mrcvs	8, 2, r7, cr5, cr0, {3}
    1810:	636f6c62 	cmnvs	pc, #25088	; 0x6200
    1814:	5464656b 	strbtpl	r6, [r4], #-1387	; 0x56b
    1818:	75004243 	strvc	r4, [r0, #-579]	; 0x243
    181c:	61745373 	cmnvs	r4, r3, ror r3
    1820:	65526b63 	ldrbvs	r6, [r2, #-2915]	; 0xb63
    1824:	6e69616d 	powvsez	f6, f1, #5.0
    1828:	00676e69 	rsbeq	r6, r7, r9, ror #28
    182c:	73615476 	cmnvc	r1, #1979711488	; 0x76000000
    1830:	6c65446b 	cfstrdvs	mvd4, [r5], #-428	; 0xfffffe54
    1834:	6e557961 	cdpvs	9, 5, cr7, cr5, cr1, {3}
    1838:	006c6974 	rsbeq	r6, ip, r4, ror r9
    183c:	75517875 	ldrbvc	r7, [r1, #-2165]	; 0x875
    1840:	00657565 	rsbeq	r7, r5, r5, ror #10
    1844:	73615476 	cmnvc	r1, #1979711488	; 0x76000000
    1848:	636e496b 	cmnvs	lr, #1753088	; 0x1ac000
    184c:	656d6572 	strbvs	r6, [sp, #-1394]!	; 0x572
    1850:	6954746e 	ldmdbvs	r4, {r1, r2, r3, r5, r6, sl, ip, sp, lr}^
    1854:	78006b63 	stmdavc	r0, {r0, r1, r5, r6, r8, r9, fp, sp, lr}
    1858:	65686353 	strbvs	r6, [r8, #-851]!	; 0x353
    185c:	656c7564 	strbvs	r7, [ip, #-1380]!	; 0x564
    1860:	6e755272 	mrcvs	2, 3, r5, cr5, cr2, {3}
    1864:	676e696e 	strbvs	r6, [lr, -lr, ror #18]!
    1868:	61547600 	cmpvs	r4, r0, lsl #12
    186c:	6e456b73 	vmovvs.8	d5[3], r6
    1870:	68635364 	stmdavs	r3!, {r2, r5, r6, r8, r9, ip, lr}^
    1874:	6c756465 	cfldrdvs	mvd6, [r5], #-404	; 0xfffffe6c
    1878:	78007265 	stmdavc	r0, {r0, r2, r5, r6, r9, ip, sp, lr}
    187c:	6b736154 	blvs	1cd9dd4 <load_address-0x9e32622c>
    1880:	75736552 	ldrbvc	r6, [r3, #-1362]!	; 0x552
    1884:	6c41656d 	cfstr64vs	mvdx6, [r1], {109}	; 0x6d
    1888:	5476006c 	ldrbtpl	r0, [r6], #-108	; 0x6c
    188c:	4d6b7361 	stclmi	3, cr7, [fp, #-388]!	; 0xfffffe7c
    1890:	65737369 	ldrbvs	r7, [r3, #-873]!	; 0x369
    1894:	65695964 	strbvs	r5, [r9, #-2404]!	; 0x964
    1898:	7500646c 	strvc	r6, [r0, #-1132]	; 0x46c
    189c:	73614278 	cmnvc	r1, #120, 4	; 0x80000007
    18a0:	69725065 	ldmdbvs	r2!, {r0, r2, r5, r6, ip, lr}^
    18a4:	7469726f 	strbtvc	r7, [r9], #-623	; 0x26f
    18a8:	54780079 	ldrbtpl	r0, [r8], #-121	; 0x79
    18ac:	526b7361 	rsbpl	r7, fp, #-2080374783	; 0x84000001
    18b0:	6d757365 	ldclvs	3, cr7, [r5, #-404]!	; 0xfffffe6c
    18b4:	6f724665 	svcvs	0x00724665
    18b8:	5253496d 	subspl	r4, r3, #1785856	; 0x1b4000
    18bc:	61547800 	cmpvs	r4, r0, lsl #16
    18c0:	65476b73 	strbvs	r6, [r7, #-2931]	; 0xb73
    18c4:	68635374 	stmdavs	r3!, {r2, r4, r5, r6, r8, r9, ip, lr}^
    18c8:	6c756465 	cfldrdvs	mvd6, [r5], #-404	; 0xfffffe6c
    18cc:	74537265 	ldrbvc	r7, [r3], #-613	; 0x265
    18d0:	00657461 	rsbeq	r7, r5, r1, ror #8
    18d4:	6f685378 	svcvs	0x00685378
    18d8:	44646c75 	strbtmi	r6, [r4], #-3189	; 0xc75
    18dc:	79616c65 	stmdbvc	r1!, {r0, r2, r5, r6, sl, fp, sp, lr}^
    18e0:	76727000 	ldrbtvc	r7, [r2], -r0
    18e4:	7473694c 	ldrbtvc	r6, [r3], #-2380	; 0x94c
    18e8:	6b736154 	blvs	1cd9e40 <load_address-0x9e3261c0>
    18ec:	68746957 	ldmdavs	r4!, {r0, r1, r2, r4, r6, r8, fp, sp, lr}^
    18f0:	69536e69 	ldmdbvs	r3, {r0, r3, r5, r6, r9, sl, fp, sp, lr}^
    18f4:	656c676e 	strbvs	r6, [ip, #-1902]!	; 0x76e
    18f8:	7473694c 	ldrbtvc	r6, [r3], #-2380	; 0x94c
    18fc:	76727000 	ldrbtvc	r7, [r2], -r0
    1900:	63656843 	cmnvs	r5, #4390912	; 0x430000
    1904:	7361546b 	cmnvc	r1, #1795162112	; 0x6b000000
    1908:	6157736b 	cmpvs	r7, fp, ror #6
    190c:	6e697469 	cdpvs	4, 6, cr7, cr9, cr9, {3}
    1910:	72655467 	rsbvc	r5, r5, #1728053248	; 0x67000000
    1914:	616e696d 	cmnvs	lr, sp, ror #18
    1918:	6e6f6974 	mcrvs	9, 3, r6, cr15, cr4, {3}
    191c:	506c7500 	rsbpl	r7, ip, r0, lsl #10
    1920:	6d617261 	sfmvs	f7, 2, [r1, #-388]!	; 0xfffffe7c
    1924:	72657465 	rsbvc	r7, r5, #1694498816	; 0x65000000
    1928:	4d780073 	ldclmi	0, cr0, [r8, #-460]!	; 0xfffffe34
    192c:	726f6d65 	rsbvc	r6, pc, #6464	; 0x1940
    1930:	67655279 			; <UNDEFINED> instruction: 0x67655279
    1934:	006e6f69 	rsbeq	r6, lr, r9, ror #30
    1938:	41767270 	cmnmi	r6, r0, ror r2
    193c:	75436464 	strbvc	r6, [r3, #-1124]	; 0x464
    1940:	6e657272 	mcrvs	2, 3, r7, cr5, cr2, {3}
    1944:	73615474 	cmnvc	r1, #116, 8	; 0x74000000
    1948:	446f546b 	strbtmi	r5, [pc], #-1131	; 1950 <load_address-0x9fffe6b0>
    194c:	79616c65 	stmdbvc	r1!, {r0, r2, r5, r6, sl, fp, sp, lr}^
    1950:	694c6465 	stmdbvs	ip, {r0, r2, r5, r6, sl, sp, lr}^
    1954:	78007473 	stmdavc	r0, {r0, r1, r4, r5, r6, sl, ip, sp, lr}
    1958:	6b736154 	blvs	1cd9eb0 <load_address-0x9e326150>
    195c:	6f6d6552 	svcvs	0x006d6552
    1960:	72466576 	subvc	r6, r6, #494927872	; 0x1d800000
    1964:	76456d6f 	strbvc	r6, [r5], -pc, ror #26
    1968:	4c746e65 	ldclmi	14, cr6, [r4], #-404	; 0xfffffe6c
    196c:	00747369 	rsbseq	r7, r4, r9, ror #6
    1970:	41546470 	cmpmi	r4, r0, ror r4
    1974:	435f4b53 	cmpmi	pc, #84992	; 0x14c00
    1978:	0045444f 	subeq	r4, r5, pc, asr #8
    197c:	72576370 	subsvc	r6, r7, #112, 6	; 0xc0000001
    1980:	42657469 	rsbmi	r7, r5, #1761607680	; 0x69000000
    1984:	65666675 	strbvs	r6, [r6, #-1653]!	; 0x675
    1988:	54780072 	ldrbtpl	r0, [r8], #-114	; 0x72
    198c:	476b7361 	strbmi	r7, [fp, -r1, ror #6]!
    1990:	69547465 	ldmdbvs	r4, {r0, r2, r5, r6, sl, ip, sp, lr}^
    1994:	6f436b63 	svcvs	0x00436b63
    1998:	00746e75 	rsbseq	r6, r4, r5, ror lr
    199c:	73615478 	cmnvc	r1, #120, 8	; 0x78000000
    19a0:	6568436b 	strbvs	r4, [r8, #-875]!	; 0x36b
    19a4:	6f466b63 	svcvs	0x00466b63
    19a8:	6d695472 	cfstrdvs	mvd5, [r9, #-456]!	; 0xfffffe38
    19ac:	74754f65 	ldrbtvc	r4, [r5], #-3941	; 0xf65
    19b0:	54787500 	ldrbtpl	r7, [r8], #-1280	; 0x500
    19b4:	4e6b7361 	cdpmi	3, 6, cr7, cr11, cr1, {3}
    19b8:	65626d75 	strbvs	r6, [r2, #-3445]!	; 0xd75
    19bc:	78700072 	ldmdavc	r0!, {r1, r4, r5, r6}^
    19c0:	64616552 	strbtvs	r6, [r1], #-1362	; 0x552
    19c4:	73615479 	cmnvc	r1, #2030043136	; 0x79000000
    19c8:	694c736b 	stmdbvs	ip, {r0, r1, r3, r5, r6, r8, r9, ip, sp, lr}^
    19cc:	00737473 	rsbseq	r7, r3, r3, ror r4
    19d0:	61547875 	cmpvs	r4, r5, ror r8
    19d4:	65476b73 	strbvs	r6, [r7, #-2931]	; 0xb73
    19d8:	6d754e74 	ldclvs	14, cr4, [r5, #-464]!	; 0xfffffe30
    19dc:	4f726562 	svcmi	0x00726562
    19e0:	73615466 	cmnvc	r1, #1711276032	; 0x66000000
    19e4:	7800736b 	stmdavc	r0, {r0, r1, r3, r5, r6, r8, r9, ip, sp, lr}
    19e8:	616c6544 	cmnvs	ip, r4, asr #10
    19ec:	54646579 	strbtpl	r6, [r4], #-1401	; 0x579
    19f0:	4c6b7361 	stclmi	3, cr7, [fp], #-388	; 0xfffffe7c
    19f4:	31747369 	cmncc	r4, r9, ror #6
    19f8:	65447800 	strbvs	r7, [r4, #-2048]	; 0x800
    19fc:	6579616c 	ldrbvs	r6, [r9, #-364]!	; 0x16c
    1a00:	73615464 	cmnvc	r1, #100, 8	; 0x64000000
    1a04:	73694c6b 	cmnvc	r9, #27392	; 0x6b00
    1a08:	78003274 	stmdavc	r0, {r2, r4, r5, r6, r9, ip, sp}
    1a0c:	4f6d754e 	svcmi	0x006d754e
    1a10:	65764f66 	ldrbvs	r4, [r6, #-3942]!	; 0xf66
    1a14:	6f6c6672 	svcvs	0x006c6672
    1a18:	78007377 	stmdavc	r0, {r0, r1, r2, r4, r5, r6, r8, r9, ip, sp, lr}
    1a1c:	6b636954 	blvs	18dbf74 <load_address-0x9e72408c>
    1a20:	54760073 	ldrbtpl	r0, [r6], #-115	; 0x73
    1a24:	536b7361 	cmnpl	fp, #-2080374783	; 0x84000001
    1a28:	65707375 	ldrbvs	r7, [r0, #-885]!	; 0x375
    1a2c:	6c41646e 	cfstrdvs	mvd6, [r1], {110}	; 0x6e
    1a30:	6c75006c 	ldclvs	0, cr0, [r5], #-432	; 0xfffffe50
    1a34:	66667542 	strbtvs	r7, [r6], -r2, asr #10
    1a38:	69537265 	ldmdbvs	r3, {r0, r2, r5, r6, r9, ip, sp, lr}^
    1a3c:	7500657a 	strvc	r6, [r0, #-1402]	; 0x57a
    1a40:	73694d78 	cmnvc	r9, #120, 26	; 0x1e00
    1a44:	54646573 	strbtpl	r6, [r4], #-1395	; 0x573
    1a48:	736b6369 	cmnvc	fp, #-1543503871	; 0xa4000001
    1a4c:	69547800 	ldmdbvs	r4, {fp, ip, sp, lr}^
    1a50:	6e49656d 	cdpvs	5, 4, cr6, cr9, cr13, {3}
    1a54:	6d657263 	sfmvs	f7, 2, [r5, #-396]!	; 0xfffffe74
    1a58:	00746e65 	rsbseq	r6, r4, r5, ror #28
    1a5c:	61546370 	cmpvs	r4, r0, ror r3
    1a60:	614e6b73 	hvcvs	59059	; 0xe6b3
    1a64:	7000656d 	andvc	r6, r0, sp, ror #10
    1a68:	63695478 	cmnvs	r9, #120, 8	; 0x78000000
    1a6c:	6f54736b 	svcvs	0x0054736b
    1a70:	74696157 	strbtvc	r6, [r9], #-343	; 0x157
    1a74:	546c7500 	strbtpl	r7, [ip], #-1280	; 0x500
    1a78:	456b7361 	strbmi	r7, [fp, #-865]!	; 0x361
    1a7c:	7254646e 	subsvc	r6, r4, #1845493760	; 0x6e000000
    1a80:	00656361 	rsbeq	r6, r5, r1, ror #6
    1a84:	75437875 	strbvc	r7, [r3, #-2165]	; 0x875
    1a88:	6e657272 	mcrvs	2, 3, r7, cr5, cr2, {3}
    1a8c:	69725074 	ldmdbvs	r2!, {r2, r4, r5, r6, ip, lr}^
    1a90:	7469726f 	strbtvc	r7, [r9], #-623	; 0x26f
    1a94:	54760079 	ldrbtpl	r0, [r6], #-121	; 0x79
    1a98:	506b7361 	rsbpl	r7, fp, r1, ror #6
    1a9c:	6563616c 	strbvs	r6, [r3, #-364]!	; 0x16c
    1aa0:	76456e4f 	strbvc	r6, [r5], -pc, asr #28
    1aa4:	4c746e65 	ldclmi	14, cr6, [r4], #-404	; 0xfffffe6c
    1aa8:	52747369 	rsbspl	r7, r4, #-1543503871	; 0xa4000001
    1aac:	72747365 	rsbsvc	r7, r4, #-1811939327	; 0x94000001
    1ab0:	65746369 	ldrbvs	r6, [r4, #-873]!	; 0x369
    1ab4:	78750064 	ldmdavc	r5!, {r2, r5, r6}^
    1ab8:	55706f54 	ldrbpl	r6, [r0, #-3924]!	; 0xf54
    1abc:	50646573 	rsbpl	r6, r4, r3, ror r5
    1ac0:	726f6972 	rsbvc	r6, pc, #1867776	; 0x1c8000
    1ac4:	00797469 	rsbseq	r7, r9, r9, ror #8
    1ac8:	6f547875 	svcvs	0x00547875
    1acc:	61655270 	smcvs	21792	; 0x5520
    1ad0:	72507964 	subsvc	r7, r0, #100, 18	; 0x190000
    1ad4:	69726f69 	ldmdbvs	r2!, {r0, r3, r5, r6, r8, r9, sl, fp, sp, lr}^
    1ad8:	70007974 	andvc	r7, r0, r4, ror r9
    1adc:	6c654478 	cfstrdvs	mvd4, [r5], #-480	; 0xfffffe20
    1ae0:	64657961 	strbtvs	r7, [r5], #-2401	; 0x961
    1ae4:	6b736154 	blvs	1cda03c <load_address-0x9e325fc4>
    1ae8:	7473694c 	ldrbtvc	r6, [r3], #-2380	; 0x94c
    1aec:	4e637000 	cdpmi	0, 6, cr7, cr3, cr0, {0}
    1af0:	00656d61 	rsbeq	r6, r5, r1, ror #26
    1af4:	61547875 	cmpvs	r4, r5, ror r8
    1af8:	72506b73 	subsvc	r6, r0, #117760	; 0x1cc00
    1afc:	69726f69 	ldmdbvs	r2!, {r0, r3, r5, r6, r8, r9, sl, fp, sp, lr}^
    1b00:	65477974 	strbvs	r7, [r7, #-2420]	; 0x974
    1b04:	54760074 	ldrbtpl	r0, [r6], #-116	; 0x74
    1b08:	536b7361 	cmnpl	fp, #-2080374783	; 0x84000001
    1b0c:	69547465 	ldmdbvs	r4, {r0, r2, r5, r6, sl, ip, sp, lr}^
    1b10:	754f656d 	strbvc	r6, [pc, #-1389]	; 15ab <load_address-0x9fffea55>
    1b14:	61745374 	cmnvs	r4, r4, ror r3
    1b18:	70006574 	andvc	r6, r0, r4, ror r5
    1b1c:	73615478 	cmnvc	r1, #120, 8	; 0x78000000
    1b20:	536f546b 	cmnpl	pc, #1795162112	; 0x6b000000
    1b24:	65707375 	ldrbvs	r7, [r0, #-885]!	; 0x375
    1b28:	7000646e 	andvc	r6, r0, lr, ror #8
    1b2c:	73614276 	cmnvc	r1, #1610612743	; 0x60000007
    1b30:	64644165 	strbtvs	r4, [r4], #-357	; 0x165
    1b34:	73736572 	cmnvc	r3, #478150656	; 0x1c800000
    1b38:	76727000 	ldrbtvc	r7, [r2], -r0
    1b3c:	74696e49 	strbtvc	r6, [r9], #-3657	; 0xe49
    1b40:	696c6169 	stmdbvs	ip!, {r0, r3, r5, r6, r8, sp, lr}^
    1b44:	61546573 	cmpvs	r4, r3, ror r5
    1b48:	694c6b73 	stmdbvs	ip, {r0, r1, r4, r5, r6, r8, r9, fp, sp, lr}^
    1b4c:	00737473 	rsbseq	r7, r3, r3, ror r4
    1b50:	6d695478 	cfstrdvs	mvd5, [r9, #-480]!	; 0xfffffe20
    1b54:	73497265 	movtvc	r7, #37477	; 0x9265
    1b58:	63416e49 	movtvs	r6, #7753	; 0x1e49
    1b5c:	65766974 	ldrbvs	r6, [r6, #-2420]!	; 0x974
    1b60:	7473694c 	ldrbtvc	r6, [r3], #-2380	; 0x94c
    1b64:	65527800 	ldrbvs	r7, [r2, #-2048]	; 0x800
    1b68:	746c7573 	strbtvc	r7, [ip], #-1395	; 0x573
    1b6c:	49547800 	ldmdbmi	r4, {fp, ip, sp, lr}^
    1b70:	5f52454d 	svcpl	0x0052454d
    1b74:	5353454d 	cmppl	r3, #322961408	; 0x13400000
    1b78:	00454741 	subeq	r4, r5, r1, asr #14
    1b7c:	6d6f4378 	stclvs	3, cr4, [pc, #-480]!	; 19a4 <load_address-0x9fffe65c>
    1b80:	646e616d 	strbtvs	r6, [lr], #-365	; 0x16d
    1b84:	78004449 	stmdavc	r0, {r0, r3, r6, sl, lr}
    1b88:	656d6954 	strbvs	r6, [sp, #-2388]!	; 0x954
    1b8c:	6e614872 	mcrvs	8, 3, r4, cr1, cr2, {3}
    1b90:	00656c64 	rsbeq	r6, r5, r4, ror #24
    1b94:	78654e78 	stmdavc	r5!, {r3, r4, r5, r6, r9, sl, fp, lr}^
    1b98:	70784574 	rsbsvc	r4, r8, r4, ror r5
    1b9c:	54657269 	strbtpl	r7, [r5], #-617	; 0x269
    1ba0:	00656d69 	rsbeq	r6, r5, r9, ror #26
    1ba4:	69546370 	ldmdbvs	r4, {r4, r5, r6, r8, r9, sp, lr}^
    1ba8:	4e72656d 	cdpmi	5, 7, cr6, cr2, cr13, {3}
    1bac:	00656d61 	rsbeq	r6, r5, r1, ror #26
    1bb0:	78654e78 	stmdavc	r5!, {r3, r4, r5, r6, r9, sl, fp, lr}^
    1bb4:	70784574 	rsbsvc	r4, r8, r4, ror r5
    1bb8:	54797269 	ldrbtpl	r7, [r9], #-617	; 0x269
    1bbc:	00656d69 	rsbeq	r6, r5, r9, ror #26
    1bc0:	6d695478 	cfstrdvs	mvd5, [r9, #-480]!	; 0xfffffe20
    1bc4:	694c7265 	stmdbvs	ip, {r0, r2, r5, r6, r9, ip, sp, lr}^
    1bc8:	74497473 	strbvc	r7, [r9], #-1139	; 0x473
    1bcc:	70006d65 	andvc	r6, r0, r5, ror #26
    1bd0:	6d695476 	cfstrdvs	mvd5, [r9, #-472]!	; 0xfffffe28
    1bd4:	65477265 	strbvs	r7, [r7, #-613]	; 0x265
    1bd8:	6d695474 	cfstrdvs	mvd5, [r9, #-464]!	; 0xfffffe30
    1bdc:	44497265 	strbmi	r7, [r9], #-613	; 0x265
    1be0:	76727000 	ldrbtvc	r7, [r2], -r0
    1be4:	636f7250 	cmnvs	pc, #80, 4
    1be8:	45737365 	ldrbmi	r7, [r3, #-869]!	; 0x365
    1bec:	72697078 	rsbvc	r7, r9, #120	; 0x78
    1bf0:	69546465 	ldmdbvs	r4, {r0, r2, r5, r6, sl, sp, lr}^
    1bf4:	0072656d 	rsbseq	r6, r2, sp, ror #10
    1bf8:	4d495478 	cfstrdmi	mvd5, [r9, #-480]	; 0xfffffe20
    1bfc:	70005245 	andvc	r5, r0, r5, asr #4
    1c00:	6c614378 	stclvs	3, cr4, [r1], #-480	; 0xfffffe20
    1c04:	6361626c 	cmnvs	r1, #108, 4	; 0xc0000006
    1c08:	6e75466b 	cdpvs	6, 7, cr4, cr5, cr11, {3}
    1c0c:	6f697463 	svcvs	0x00697463
    1c10:	5478006e 	ldrbtpl	r0, [r8], #-110	; 0x6e
    1c14:	72656d69 	rsbvc	r6, r5, #6720	; 0x1a40
    1c18:	61657243 	cmnvs	r5, r3, asr #4
    1c1c:	70006574 	andvc	r6, r0, r4, ror r5
    1c20:	77537672 			; <UNDEFINED> instruction: 0x77537672
    1c24:	68637469 	stmdavs	r3!, {r0, r3, r5, r6, sl, ip, sp, lr}^
    1c28:	656d6954 	strbvs	r6, [sp, #-2388]!	; 0x954
    1c2c:	73694c72 	cmnvc	r9, #29184	; 0x7200
    1c30:	70007374 	andvc	r7, r0, r4, ror r3
    1c34:	77654e78 			; <UNDEFINED> instruction: 0x77654e78
    1c38:	656d6954 	strbvs	r6, [sp, #-2388]!	; 0x954
    1c3c:	78700072 	ldmdavc	r0!, {r1, r4, r5, r6}^
    1c40:	72727543 	rsbsvc	r7, r2, #281018368	; 0x10c00000
    1c44:	54746e65 	ldrbtpl	r6, [r4], #-3685	; 0xe65
    1c48:	72656d69 	rsbvc	r6, r5, #6720	; 0x1a40
    1c4c:	7473694c 	ldrbtvc	r6, [r3], #-2380	; 0x94c
    1c50:	654d7800 	strbvs	r7, [sp, #-2048]	; 0x800
    1c54:	67617373 			; <UNDEFINED> instruction: 0x67617373
    1c58:	72700065 	rsbsvc	r0, r0, #101	; 0x65
    1c5c:	6f725076 	svcvs	0x00725076
    1c60:	73736563 	cmnvc	r3, #415236096	; 0x18c00000
    1c64:	65636552 	strbvs	r6, [r3, #-1362]!	; 0x552
    1c68:	64657669 	strbtvs	r7, [r5], #-1641	; 0x669
    1c6c:	6d6d6f43 	stclvs	15, cr6, [sp, #-268]!	; 0xfffffef4
    1c70:	73646e61 	cmnvc	r4, #1552	; 0x610
    1c74:	654d7800 	strbvs	r7, [sp, #-2048]	; 0x800
    1c78:	67617373 			; <UNDEFINED> instruction: 0x67617373
    1c7c:	6c615665 	stclvs	6, cr5, [r1], #-404	; 0xfffffe6c
    1c80:	78006575 	stmdavc	r0, {r0, r2, r4, r5, r6, r8, sl, sp, lr}
    1c84:	656d6954 	strbvs	r6, [sp, #-2388]!	; 0x954
    1c88:	65724372 	ldrbvs	r4, [r2, #-882]!	; 0x372
    1c8c:	54657461 	strbtpl	r7, [r5], #-1121	; 0x461
    1c90:	72656d69 	rsbvc	r6, r5, #6720	; 0x1a40
    1c94:	6b736154 	blvs	1cda1ec <load_address-0x9e325e14>
    1c98:	76727000 	ldrbtvc	r7, [r2], -r0
    1c9c:	63656843 	cmnvs	r5, #4390912	; 0x430000
    1ca0:	726f466b 	rsbvc	r4, pc, #112197632	; 0x6b00000
    1ca4:	696c6156 	stmdbvs	ip!, {r1, r2, r4, r6, r8, sp, lr}^
    1ca8:	73694c64 	cmnvc	r9, #100, 24	; 0x6400
    1cac:	646e4174 	strbtvs	r4, [lr], #-372	; 0x174
    1cb0:	75657551 	strbvc	r7, [r5, #-1361]!	; 0x551
    1cb4:	78700065 	ldmdavc	r0!, {r0, r2, r5, r6}^
    1cb8:	656d6954 	strbvs	r6, [sp, #-2388]!	; 0x954
    1cbc:	73694c72 	cmnvc	r9, #29184	; 0x7200
    1cc0:	65577374 	ldrbvs	r7, [r7, #-884]	; 0x374
    1cc4:	77536572 			; <UNDEFINED> instruction: 0x77536572
    1cc8:	68637469 	stmdavs	r3!, {r0, r3, r5, r6, sl, ip, sp, lr}^
    1ccc:	70006465 	andvc	r6, r0, r5, ror #8
    1cd0:	61537672 	cmpvs	r3, r2, ror r6
    1cd4:	656c706d 	strbvs	r7, [ip, #-109]!	; 0x6d
    1cd8:	656d6954 	strbvs	r6, [sp, #-2388]!	; 0x954
    1cdc:	00776f4e 	rsbseq	r6, r7, lr, asr #30
    1ce0:	50767270 	rsbspl	r7, r6, r0, ror r2
    1ce4:	65636f72 	strbvs	r6, [r3, #-3954]!	; 0xf72
    1ce8:	69547373 	ldmdbvs	r4, {r0, r1, r4, r5, r6, r8, r9, ip, sp, lr}^
    1cec:	4f72656d 	svcmi	0x0072656d
    1cf0:	6f6c4272 	svcvs	0x006c4272
    1cf4:	61546b63 	cmpvs	r4, r3, ror #22
    1cf8:	53006b73 	movwpl	r6, #2931	; 0xb73
    1cfc:	6372756f 	cmnvs	r2, #465567744	; 0x1bc00000
    1d00:	69742f65 	ldmdbvs	r4!, {r0, r2, r5, r6, r8, r9, sl, fp, sp}^
    1d04:	7372656d 	cmnvc	r2, #457179136	; 0x1b400000
    1d08:	7800632e 	stmdavc	r0, {r1, r2, r3, r5, r8, r9, sp, lr}
    1d0c:	656d6954 	strbvs	r6, [sp, #-2388]!	; 0x954
    1d10:	6e654772 	mcrvs	7, 3, r4, cr5, cr2, {3}
    1d14:	63697265 	cmnvs	r9, #1342177286	; 0x50000006
    1d18:	6d6d6f43 	stclvs	15, cr6, [sp, #-268]!	; 0xfffffef4
    1d1c:	00646e61 	rsbeq	r6, r4, r1, ror #28
    1d20:	47767270 			; <UNDEFINED> instruction: 0x47767270
    1d24:	654e7465 	strbvs	r7, [lr, #-1125]	; 0x465
    1d28:	78457478 	stmdavc	r5, {r3, r4, r5, r6, sl, ip, sp, lr}^
    1d2c:	65726970 	ldrbvs	r6, [r2, #-2416]!	; 0x970
    1d30:	656d6954 	strbvs	r6, [sp, #-2388]!	; 0x954
    1d34:	704f7800 	subvc	r7, pc, r0, lsl #16
    1d38:	6e6f6974 	mcrvs	9, 3, r6, cr15, cr4, {3}
    1d3c:	61566c61 	cmpvs	r6, r1, ror #24
    1d40:	0065756c 	rsbeq	r7, r5, ip, ror #10
    1d44:	764f7870 			; <UNDEFINED> instruction: 0x764f7870
    1d48:	6c667265 	sfmvs	f7, 2, [r6], #-404	; 0xfffffe6c
    1d4c:	6954776f 	ldmdbvs	r4, {r0, r1, r2, r3, r5, r6, r8, r9, sl, ip, sp, lr}^
    1d50:	4c72656d 	cfldr64mi	mvdx6, [r2], #-436	; 0xfffffe4c
    1d54:	00747369 	rsbseq	r7, r4, r9, ror #6
    1d58:	73614c78 	cmnvc	r1, #120, 24	; 0x7800
    1d5c:	6d695474 	cfstrdvs	mvd5, [r9, #-464]!	; 0xfffffe30
    1d60:	72700065 	rsbsvc	r0, r0, #101	; 0x65
    1d64:	6d695476 	cfstrdvs	mvd5, [r9, #-472]!	; 0xfffffe28
    1d68:	61547265 	cmpvs	r4, r5, ror #4
    1d6c:	70006b73 	andvc	r6, r0, r3, ror fp
    1d70:	6e497672 	mcrvs	6, 2, r7, cr9, cr2, {3}
    1d74:	74726573 	ldrbtvc	r6, [r2], #-1395	; 0x573
    1d78:	656d6954 	strbvs	r6, [sp, #-2388]!	; 0x954
    1d7c:	416e4972 	smcmi	58514	; 0xe492
    1d80:	76697463 	strbtvc	r7, [r9], -r3, ror #8
    1d84:	73694c65 	cmnvc	r9, #25856	; 0x6500
    1d88:	54780074 	ldrbtpl	r0, [r8], #-116	; 0x74
    1d8c:	72656d69 	rsbvc	r6, r5, #6720	; 0x1a40
    1d90:	69547349 	ldmdbvs	r4, {r0, r3, r6, r8, r9, ip, sp, lr}^
    1d94:	4172656d 	cmnmi	r2, sp, ror #10
    1d98:	76697463 	strbtvc	r7, [r9], -r3, ror #8
    1d9c:	54780065 	ldrbtpl	r0, [r8], #-101	; 0x65
    1da0:	72656d69 	rsbvc	r6, r5, #6720	; 0x1a40
    1da4:	75657551 	strbvc	r7, [r5, #-1361]!	; 0x551
    1da8:	41780065 	cmnmi	r8, r5, rrx
    1dac:	76697463 	strbtvc	r7, [r9], -r3, ror #8
    1db0:	6d695465 	cfstrdvs	mvd5, [r9, #-404]!	; 0xfffffe6c
    1db4:	694c7265 	stmdbvs	ip, {r0, r2, r5, r6, r9, ip, sp, lr}^
    1db8:	00317473 	eorseq	r7, r1, r3, ror r4
    1dbc:	74634178 	strbtvc	r4, [r3], #-376	; 0x178
    1dc0:	54657669 	strbtpl	r7, [r5], #-1641	; 0x669
    1dc4:	72656d69 	rsbvc	r6, r5, #6720	; 0x1a40
    1dc8:	7473694c 	ldrbtvc	r6, [r3], #-2380	; 0x94c
    1dcc:	54780032 	ldrbtpl	r0, [r8], #-50	; 0x32
    1dd0:	4e656d69 	cdpmi	13, 6, cr6, cr5, cr9, {3}
    1dd4:	7000776f 	andvc	r7, r0, pc, ror #14
    1dd8:	73694c78 	cmnvc	r9, #120, 24	; 0x7800
    1ddc:	73615774 	cmnvc	r1, #116, 14	; 0x1d00000
    1de0:	74706d45 	ldrbtvc	r6, [r0], #-3397	; 0xd45
    1de4:	4d780079 	ldclmi	0, cr0, [r8, #-484]!	; 0xfffffe1c
    1de8:	61737365 	cmnvs	r3, r5, ror #6
    1dec:	44496567 	strbmi	r6, [r9], #-1383	; 0x567
    1df0:	726d7400 	rsbvc	r7, sp, #0, 8
    1df4:	656d6954 	strbvs	r6, [sp, #-2388]!	; 0x954
    1df8:	6e6f4372 	mcrvs	3, 3, r4, cr15, cr2, {3}
    1dfc:	6c6f7274 	sfmvs	f7, 2, [pc], #-464	; 1c34 <load_address-0x9fffe3cc>
    1e00:	41787500 	cmnmi	r8, r0, lsl #10
    1e04:	526f7475 	rsbpl	r7, pc, #1962934272	; 0x75000000
    1e08:	616f6c65 	cmnvs	pc, r5, ror #24
    1e0c:	6d740064 	ldclvs	0, cr0, [r4, #-400]!	; 0xfffffe70
    1e10:	4d495472 	cfstrdmi	mvd5, [r9, #-456]	; 0xfffffe38
    1e14:	435f5245 	cmpmi	pc, #1342177284	; 0x50000004
    1e18:	424c4c41 	submi	r4, ip, #16640	; 0x4100
    1e1c:	004b4341 	subeq	r4, fp, r1, asr #6
    1e20:	6f725078 	svcvs	0x00725078
    1e24:	73736563 	cmnvc	r3, #415236096	; 0x18c00000
    1e28:	656d6954 	strbvs	r6, [sp, #-2388]!	; 0x954
    1e2c:	776f4e72 			; <UNDEFINED> instruction: 0x776f4e72
    1e30:	726d7400 	rsbvc	r7, sp, #0, 8
    1e34:	656d6954 	strbvs	r6, [sp, #-2388]!	; 0x954
    1e38:	65755172 	ldrbvs	r5, [r5, #-370]!	; 0x172
    1e3c:	654d6575 	strbvs	r6, [sp, #-1397]	; 0x575
    1e40:	67617373 			; <UNDEFINED> instruction: 0x67617373
    1e44:	78700065 	ldmdavc	r0!, {r0, r2, r5, r6}^
    1e48:	656d6954 	strbvs	r6, [sp, #-2388]!	; 0x954
    1e4c:	43780072 	cmnmi	r8, #114	; 0x72
    1e50:	616d6d6f 	cmnvs	sp, pc, ror #26
    1e54:	6954646e 	ldmdbvs	r4, {r1, r2, r3, r5, r6, sl, sp, lr}^
    1e58:	7800656d 	stmdavc	r0, {r0, r2, r3, r5, r6, r8, sl, sp, lr}
    1e5c:	656d6954 	strbvs	r6, [sp, #-2388]!	; 0x954
    1e60:	72655072 	rsbvc	r5, r5, #114	; 0x72
    1e64:	49646f69 	stmdbmi	r4!, {r0, r3, r5, r6, r8, r9, sl, fp, sp, lr}^
    1e68:	6369546e 	cmnvs	r9, #1845493760	; 0x6e000000
    1e6c:	7000736b 	andvc	r7, r0, fp, ror #6
    1e70:	6d695476 	cfstrdvs	mvd5, [r9, #-472]!	; 0xfffffe28
    1e74:	44497265 	strbmi	r7, [r9], #-613	; 0x265
    1e78:	65527800 	ldrbvs	r7, [r2, #-2048]	; 0x800
    1e7c:	64616f6c 	strbtvs	r6, [r1], #-3948	; 0xf6c
    1e80:	656d6954 	strbvs	r6, [sp, #-2388]!	; 0x954
    1e84:	50767000 	rsbspl	r7, r6, r0
    1e88:	6d617261 	sfmvs	f7, 2, [r1, #-388]!	; 0xfffffe7c
    1e8c:	72657465 	rsbvc	r7, r5, #1694498816	; 0x65000000
    1e90:	61487600 	cmpvs	r8, r0, lsl #12
    1e94:	656c646e 	strbvs	r6, [ip, #-1134]!	; 0x46e
    1e98:	75700072 	ldrbvc	r0, [r0, #-114]!	; 0x72
    1e9c:	51494678 	hvcpl	37992	; 0x9468
    1ea0:	63617453 	cmnvs	r1, #1392508928	; 0x53000000
    1ea4:	6c75006b 	ldclvs	0, cr0, [r5], #-428	; 0xfffffe54
    1ea8:	4c544353 	mrrcmi	3, 5, r4, r4, cr3	; <UNPREDICTABLE>
    1eac:	6d740052 	ldclvs	0, cr0, [r4, #-328]!	; 0xfffffeb8
    1eb0:	6e695f70 	mcrvs	15, 3, r5, cr9, cr0, {3}
    1eb4:	675f7469 	ldrbvs	r7, [pc, -r9, ror #8]
    1eb8:	00636369 	rsbeq	r6, r3, r9, ror #6
    1ebc:	5f706d74 	svcpl	0x00706d74
    1ec0:	74696e69 	strbtvc	r6, [r9], #-3689	; 0xe69
    1ec4:	6369675f 	cmnvs	r9, #24903680	; 0x17c0000
    1ec8:	5f5f0064 	svcpl	0x005f0064
    1ecc:	5f727369 	svcpl	0x00727369
    1ed0:	74636576 	strbtvc	r6, [r3], #-1398	; 0x576
    1ed4:	735f726f 	cmpvc	pc, #-268435450	; 0xf0000006
    1ed8:	74726174 	ldrbtvc	r6, [r2], #-372	; 0x174
    1edc:	64655f00 	strbtvs	r5, [r5], #-3840	; 0xf00
    1ee0:	00617461 	rsbeq	r7, r1, r1, ror #8
    1ee4:	726f5078 	rsbvc	r5, pc, #120	; 0x78
    1ee8:	61745374 	cmnvs	r4, r4, ror r3
    1eec:	63537472 	cmpvs	r3, #1912602624	; 0x72000000
    1ef0:	75646568 	strbvc	r6, [r4, #-1384]!	; 0x568
    1ef4:	0072656c 	rsbseq	r6, r2, ip, ror #10
    1ef8:	664f6c75 			; <UNDEFINED> instruction: 0x664f6c75
    1efc:	74657366 	strbtvc	r7, [r5], #-870	; 0x366
    1f00:	72700034 	rsbsvc	r0, r0, #52	; 0x34
    1f04:	74655376 	strbtvc	r5, [r5], #-886	; 0x376
    1f08:	69547075 	ldmdbvs	r4, {r0, r2, r4, r5, r6, ip, sp, lr}^
    1f0c:	4972656d 	ldmdbmi	r2!, {r0, r2, r3, r5, r6, r8, sl, sp, lr}^
    1f10:	7265746e 	rsbvc	r7, r5, #1845493760	; 0x6e000000
    1f14:	74707572 	ldrbtvc	r7, [r0], #-1394	; 0x572
    1f18:	426c7500 	rsbmi	r7, ip, #0, 10
    1f1c:	346b6e61 	strbtcc	r6, [fp], #-3681	; 0xe61
    1f20:	78757000 	ldmdavc	r5!, {ip, sp, lr}^
    1f24:	53435653 	movtpl	r5, #13907	; 0x3653
    1f28:	6b636174 	blvs	18da500 <load_address-0x9e725b00>
    1f2c:	49787000 	ldmdbmi	r8!, {ip, sp, lr}^
    1f30:	7265746e 	rsbvc	r7, r5, #1845493760	; 0x6e000000
    1f34:	74707572 	ldrbtvc	r7, [r0], #-1394	; 0x572
    1f38:	646e6148 	strbtvs	r6, [lr], #-328	; 0x148
    1f3c:	7372656c 	cmnvc	r2, #108, 10	; 0x1b000000
    1f40:	6c757000 	ldclvs	0, cr7, [r5], #-0
    1f44:	00637253 	rsbeq	r7, r3, r3, asr r2
    1f48:	614d6c75 	hvcvs	54981	; 0xd6c5
    1f4c:	63655678 	cmnvs	r5, #120, 12	; 0x7800000
    1f50:	49726f74 	ldmdbmi	r2!, {r2, r4, r5, r6, r8, r9, sl, fp, sp, lr}^
    1f54:	74690064 	strbtvc	r0, [r9], #-100	; 0x64
    1f58:	745f616f 	ldrbvc	r6, [pc], #-367	; 1f60 <load_address-0x9fffe0a0>
    1f5c:	7800706d 	stmdavc	r0, {r0, r2, r3, r5, r6, ip, sp, lr}
    1f60:	74726f50 	ldrbtvc	r6, [r2], #-3920	; 0xf50
    1f64:	49746553 	ldmdbmi	r4!, {r0, r1, r4, r6, r8, sl, sp, lr}^
    1f68:	7265746e 	rsbvc	r7, r5, #1845493760	; 0x6e000000
    1f6c:	74707572 	ldrbtvc	r7, [r0], #-1394	; 0x572
    1f70:	6b73614d 	blvs	1cda4ac <load_address-0x9e325b54>
    1f74:	756f5300 	strbvc	r5, [pc, #-768]!	; 1c7c <load_address-0x9fffe384>
    1f78:	2f656372 	svccs	0x00656372
    1f7c:	74726f70 	ldrbtvc	r6, [r2], #-3952	; 0xf70
    1f80:	656c6261 	strbvs	r6, [ip, #-609]!	; 0x261
    1f84:	4343472f 	movtmi	r4, #14127	; 0x372f
    1f88:	4d52412f 	ldfmie	f4, [r2, #-188]	; 0xffffff44
    1f8c:	726f435f 	rsbvc	r4, pc, #2080374785	; 0x7c000001
    1f90:	2d786574 	cfldr64cs	mvdx6, [r8, #-464]!	; 0xfffffe30
    1f94:	2f353141 	svccs	0x00353141
    1f98:	74726f70 	ldrbtvc	r6, [r2], #-3952	; 0xf70
    1f9c:	4100632e 	tstmi	r0, lr, lsr #6
    1fa0:	74726f62 	ldrbtvc	r6, [r2], #-3938	; 0xf62
    1fa4:	6e61485f 	mcrvs	8, 3, r4, cr1, cr15, {2}
    1fa8:	72656c64 	rsbvc	r6, r5, #100, 24	; 0x6400
    1fac:	6e61505f 	mcrvs	0, 3, r5, cr1, cr15, {2}
    1fb0:	70006369 	andvc	r6, r0, r9, ror #6
    1fb4:	646f4378 	strbtvs	r4, [pc], #-888	; 1fbc <load_address-0x9fffe044>
    1fb8:	75700065 	ldrbvc	r0, [r0, #-101]!	; 0x65
    1fbc:	43494778 	movtmi	r4, #38776	; 0x9778
    1fc0:	72646441 	rsbvc	r6, r4, #1090519040	; 0x41000000
    1fc4:	00737365 	rsbseq	r7, r3, r5, ror #6
    1fc8:	726f5076 	rsbvc	r5, pc, #118	; 0x76
    1fcc:	43565374 	cmpmi	r6, #116, 6	; 0xd0000001
    1fd0:	646e6148 	strbtvs	r6, [lr], #-328	; 0x148
    1fd4:	0072656c 	rsbseq	r6, r2, ip, ror #10
    1fd8:	664f6c75 			; <UNDEFINED> instruction: 0x664f6c75
    1fdc:	74657366 	strbtvc	r7, [r5], #-870	; 0x366
    1fe0:	76003233 			; <UNDEFINED> instruction: 0x76003233
    1fe4:	74726f50 	ldrbtvc	r6, [r2], #-3920	; 0xf50
    1fe8:	6c656959 	stclvs	9, cr6, [r5], #-356	; 0xfffffe9c
    1fec:	6f724664 	svcvs	0x00724664
    1ff0:	5253496d 	subspl	r4, r3, #1785856	; 0x1b4000
    1ff4:	4b6c7500 	blmi	1b1f3fc <load_address-0x9e4e0c04>
    1ff8:	656e7265 	strbvs	r7, [lr, #-613]!	; 0x265
    1ffc:	6972506c 	ldmdbvs	r2!, {r2, r3, r5, r6, ip, lr}^
    2000:	7469726f 	strbtvc	r7, [r9], #-623	; 0x26f
    2004:	44690079 	strbtmi	r0, [r9], #-121	; 0x79
    2008:	73697669 	cmnvc	r9, #110100480	; 0x6900000
    200c:	5500726f 	strpl	r7, [r0, #-623]	; 0x26f
    2010:	6665646e 	strbtvs	r6, [r5], -lr, ror #8
    2014:	64656e69 	strbtvs	r6, [r5], #-3689	; 0xe69
    2018:	6e61485f 	mcrvs	8, 3, r4, cr1, cr15, {2}
    201c:	72656c64 	rsbvc	r6, r5, #100, 24	; 0x6400
    2020:	6e61505f 	mcrvs	0, 3, r5, cr1, cr15, {2}
    2024:	76006369 	strvc	r6, [r0], -r9, ror #6
    2028:	74726f50 	ldrbtvc	r6, [r2], #-3920	; 0xf50
    202c:	53646e45 	cmnpl	r4, #1104	; 0x450
    2030:	64656863 	strbtvs	r6, [r5], #-2147	; 0x863
    2034:	72656c75 	rsbvc	r6, r5, #29952	; 0x7500
    2038:	6e656700 	cdpvs	7, 6, cr6, cr5, cr0, {0}
    203c:	63697265 	cmnvs	r9, #1342177286	; 0x50000006
    2040:	6d69745f 	cfstrdvs	mvd7, [r9, #-380]!	; 0xfffffe84
    2044:	645f7265 	ldrbvs	r7, [pc], #-613	; 204c <load_address-0x9fffdfb4>
    2048:	62617369 	rsbvs	r7, r1, #-1543503871	; 0xa4000001
    204c:	5f00656c 	svcpl	0x0000656c
    2050:	73736265 	cmnvc	r3, #1342177286	; 0x50000006
    2054:	65526900 	ldrbvs	r6, [r2, #-2304]	; 0x900
    2058:	746c7573 	strbtvc	r7, [ip], #-1395	; 0x573
    205c:	61645f00 	cmnvs	r4, r0, lsl #30
    2060:	76006174 			; <UNDEFINED> instruction: 0x76006174
    2064:	74726f50 	ldrbtvc	r6, [r2], #-3920	; 0xf50
    2068:	61656c43 	cmnvs	r5, r3, asr #24
    206c:	746e4972 	strbtvc	r4, [lr], #-2418	; 0x972
    2070:	75727265 	ldrbvc	r7, [r2, #-613]!	; 0x265
    2074:	614d7470 	hvcvs	55104	; 0xd740
    2078:	70006b73 	andvc	r6, r0, r3, ror fp
    207c:	65446c75 	strbvs	r6, [r4, #-3189]	; 0xc75
    2080:	70007473 	andvc	r7, r0, r3, ror r4
    2084:	62417875 	subvs	r7, r1, #7667712	; 0x750000
    2088:	5374726f 	cmnpl	r4, #-268435450	; 0xf0000006
    208c:	6b636174 	blvs	18da664 <load_address-0x9e72599c>
    2090:	6e696f50 	mcrvs	15, 3, r6, cr9, cr0, {2}
    2094:	00726574 	rsbseq	r6, r2, r4, ror r5
    2098:	69725078 	ldmdbvs	r2!, {r3, r4, r5, r6, ip, lr}^
    209c:	7469726f 	strbtvc	r7, [r9], #-623	; 0x26f
    20a0:	73614d79 	cmnvc	r1, #7744	; 0x1e40
    20a4:	7570006b 	ldrbvc	r0, [r0, #-107]!	; 0x6b
    20a8:	6f624178 	svcvs	0x00624178
    20ac:	74537472 	ldrbvc	r7, [r3], #-1138	; 0x472
    20b0:	006b6361 	rsbeq	r6, fp, r1, ror #6
    20b4:	47787570 			; <UNDEFINED> instruction: 0x47787570
    20b8:	69444349 	stmdbvs	r4, {r0, r3, r6, r8, r9, lr}^
    20bc:	69727473 	ldmdbvs	r2!, {r0, r1, r4, r5, r6, sl, ip, sp, lr}^
    20c0:	6f747562 	svcvs	0x00747562
    20c4:	64644172 	strbtvs	r4, [r4], #-370	; 0x172
    20c8:	73736572 	cmnvc	r3, #478150656	; 0x1c800000
    20cc:	78757000 	ldmdavc	r5!, {ip, sp, lr}^
    20d0:	53435653 	movtpl	r5, #13907	; 0x3653
    20d4:	6b636174 	blvs	18da6ac <load_address-0x9e725954>
    20d8:	6e696f50 	mcrvs	15, 3, r6, cr9, cr0, {2}
    20dc:	00726574 	rsbseq	r6, r2, r4, ror r5
    20e0:	73695f5f 	cmnvc	r9, #380	; 0x17c
    20e4:	65765f72 	ldrbvs	r5, [r6, #-3954]!	; 0xf72
    20e8:	726f7463 	rsbvc	r7, pc, #1660944384	; 0x63000000
    20ec:	646e655f 	strbtvs	r6, [lr], #-1375	; 0x55f
    20f0:	6f507600 	svcvs	0x00507600
    20f4:	49477472 	stmdbmi	r7, {r1, r4, r5, r6, sl, ip, sp, lr}^
    20f8:	746e4943 	strbtvc	r4, [lr], #-2371	; 0x943
    20fc:	75727265 	ldrbvc	r7, [r2, #-613]!	; 0x265
    2100:	61487470 	hvcvs	34624	; 0x8740
    2104:	656c646e 	strbvs	r6, [ip, #-1134]!	; 0x46e
    2108:	6c750072 	ldclvs	0, cr0, [r5], #-456	; 0xfffffe38
    210c:	6b6e6142 	blvs	1b9a61c <load_address-0x9e4659e4>
    2110:	70003233 	andvc	r3, r0, r3, lsr r2
    2114:	74655263 	strbtvc	r5, [r5], #-611	; 0x263
    2118:	006e7275 	rsbeq	r7, lr, r5, ror r2
    211c:	535f6d65 	cmppl	pc, #6464	; 0x1940
    2120:	63746977 	cmnvs	r4, #1949696	; 0x1dc000
    2124:	6e6f4368 	cdpvs	3, 6, cr4, cr15, cr8, {3}
    2128:	74786574 	ldrbtvc	r6, [r8], #-1396	; 0x574
    212c:	50637500 	rsbpl	r7, r3, r0, lsl #10
    2130:	726f6972 	rsbvc	r6, pc, #1867776	; 0x1c8000
    2134:	00797469 	rsbseq	r7, r9, r9, ror #8
    2138:	61566c75 	cmpvs	r6, r5, ror ip
    213c:	0065756c 	rsbeq	r7, r5, ip, ror #10
    2140:	726f5076 	rsbvc	r5, pc, #118	; 0x76
    2144:	746e4974 	strbtvc	r4, [lr], #-2420	; 0x974
    2148:	75727265 	ldrbvc	r7, [r2, #-613]!	; 0x265
    214c:	6f437470 	svcvs	0x00437470
    2150:	7865746e 	stmdavc	r5!, {r1, r2, r3, r5, r6, sl, ip, sp, lr}^
    2154:	6c750074 	ldclvs	0, cr0, [r5], #-464	; 0xfffffe30
    2158:	42434947 	submi	r4, r3, #1163264	; 0x11c000
    215c:	41657361 	cmnmi	r5, r1, ror #6
    2160:	65726464 	ldrbvs	r6, [r2, #-1124]!	; 0x464
    2164:	63007373 	movwvs	r7, #883	; 0x373
    2168:	006c7274 	rsbeq	r7, ip, r4, ror r2
    216c:	664f6c75 			; <UNDEFINED> instruction: 0x664f6c75
    2170:	74657366 	strbtvc	r7, [r5], #-870	; 0x366
    2174:	4e003631 	mcrmi	6, 0, r3, cr0, cr1, {1}
    2178:	53515249 	cmppl	r1, #-1879048188	; 0x90000004
    217c:	61767200 	cmnvs	r6, r0, lsl #4
    2180:	6375006c 	cmnvs	r5, #108	; 0x6c
    2184:	65676445 	strbvs	r6, [r7, #-1093]!	; 0x445
    2188:	67697254 			; <UNDEFINED> instruction: 0x67697254
    218c:	65726567 	ldrbvs	r6, [r2, #-1383]!	; 0x567
    2190:	49780064 	ldmdbmi	r8!, {r2, r5, r6}^
    2194:	7265746e 	rsbvc	r7, r5, #1845493760	; 0x6e000000
    2198:	74707572 	ldrbtvc	r7, [r0], #-1394	; 0x572
    219c:	646e6148 	strbtvs	r6, [lr], #-328	; 0x148
    21a0:	4472656c 	ldrbtmi	r6, [r2], #-1388	; 0x56c
    21a4:	6e696665 	cdpvs	6, 6, cr6, cr9, cr5, {3}
    21a8:	6f697469 	svcvs	0x00697469
    21ac:	7570006e 	ldrbvc	r0, [r0, #-110]!	; 0x6e
    21b0:	51524978 	cmppl	r2, r8, ror r9
    21b4:	63617453 	cmnvs	r1, #1392508928	; 0x53000000
    21b8:	696f506b 	stmdbvs	pc!, {r0, r1, r3, r5, r6, ip, lr}^	; <UNPREDICTABLE>
    21bc:	7265746e 	rsbvc	r7, r5, #1845493760	; 0x6e000000
    21c0:	706d7400 	rsbvc	r7, sp, r0, lsl #8
    21c4:	696e695f 	stmdbvs	lr!, {r0, r1, r2, r3, r4, r6, r8, fp, sp, lr}^
    21c8:	74675f74 	strbtvc	r5, [r7], #-3956	; 0xf74
    21cc:	72656d69 	rsbvc	r6, r5, #6720	; 0x1a40
    21d0:	65725000 	ldrbvs	r5, [r2, #-0]!
    21d4:	63746566 	cmnvs	r4, #427819008	; 0x19800000
    21d8:	61485f68 	cmpvs	r8, r8, ror #30
    21dc:	656c646e 	strbvs	r6, [ip, #-1134]!	; 0x46e
    21e0:	61505f72 	cmpvs	r0, r2, ror pc
    21e4:	0063696e 	rsbeq	r6, r3, lr, ror #18
    21e8:	724f7870 	subvc	r7, pc, #112, 16	; 0x700000
    21ec:	6e696769 	cdpvs	7, 6, cr6, cr9, cr9, {3}
    21f0:	74536c61 	ldrbvc	r6, [r3], #-3169	; 0xc61
    21f4:	006b6361 	rsbeq	r6, fp, r1, ror #6
    21f8:	726f5076 	rsbvc	r5, pc, #118	; 0x76
    21fc:	61745374 	cmnvs	r4, r4, ror r3
    2200:	69467472 	stmdbvs	r6, {r1, r4, r5, r6, sl, ip, sp, lr}^
    2204:	54747372 	ldrbtpl	r7, [r4], #-882	; 0x372
    2208:	006b7361 	rsbeq	r7, fp, r1, ror #6
    220c:	64644163 	strbtvs	r4, [r4], #-355	; 0x163
    2210:	73736572 	cmnvc	r3, #478150656	; 0x1c800000
    2214:	78757000 	ldmdavc	r5!, {ip, sp, lr}^
    2218:	53514946 	cmppl	r1, #1146880	; 0x118000
    221c:	6b636174 	blvs	18da7f4 <load_address-0x9e72580c>
    2220:	6e696f50 	mcrvs	15, 3, r6, cr9, cr0, {2}
    2224:	00726574 	rsbseq	r6, r2, r4, ror r5
    2228:	72506375 	subsvc	r6, r0, #-738197503	; 0xd4000001
    222c:	7365636f 	cmnvc	r5, #-1140850687	; 0xbc000001
    2230:	54726f73 	ldrbtpl	r6, [r2], #-3955	; 0xf73
    2234:	65677261 	strbvs	r7, [r7, #-609]!	; 0x261
    2238:	76007374 			; <UNDEFINED> instruction: 0x76007374
    223c:	74726f50 	ldrbtvc	r6, [r2], #-3920	; 0xf50
    2240:	54737953 	ldrbtpl	r7, [r3], #-2387	; 0x953
    2244:	486b6369 	stmdami	fp!, {r0, r3, r5, r6, r8, r9, sp, lr}^
    2248:	6c646e61 	stclvs	14, cr6, [r4], #-388	; 0xfffffe7c
    224c:	70007265 	andvc	r7, r0, r5, ror #4
    2250:	726f5078 	rsbvc	r5, pc, #120	; 0x78
    2254:	696e4974 	stmdbvs	lr!, {r2, r4, r5, r6, r8, fp, lr}^
    2258:	6c616974 	stclvs	9, cr6, [r1], #-464	; 0xfffffe30
    225c:	53657369 	cmnpl	r5, #-1543503871	; 0xa4000001
    2260:	6b636174 	blvs	18da838 <load_address-0x9e7257c8>
    2264:	61767400 	cmnvs	r6, r0, lsl #8
    2268:	7570006c 	ldrbvc	r0, [r0, #-108]!	; 0x6c
    226c:	51524978 	cmppl	r2, r8, ror r9
    2270:	63617453 	cmnvs	r1, #1392508928	; 0x53000000
    2274:	655f006b 	ldrbvs	r0, [pc, #-107]	; 2211 <load_address-0x9fffddef>
    2278:	74786574 	ldrbtvc	r6, [r8], #-1396	; 0x574
    227c:	6f507600 	svcvs	0x00507600
    2280:	4d537472 	cfldrdmi	mvd7, [r3, #-456]	; 0xfffffe38
    2284:	6e614843 	cdpvs	8, 6, cr4, cr1, cr3, {2}
    2288:	72656c64 	rsbvc	r6, r5, #100, 24	; 0x6400
    228c:	73625f00 	cmnvc	r2, #0, 30
    2290:	6c750073 	ldclvs	0, cr0, [r5], #-460	; 0xfffffe34
    2294:	6b6e6142 	blvs	1b9a7a4 <load_address-0x9e46585c>
    2298:	67003631 	smladxvs	r0, r1, r6, r3
    229c:	72656e65 	rsbvc	r6, r5, #1616	; 0x650
    22a0:	745f6369 	ldrbvc	r6, [pc], #-873	; 22a8 <load_address-0x9fffdd58>
    22a4:	72656d69 	rsbvc	r6, r5, #6720	; 0x1a40
    22a8:	616e655f 	cmnvs	lr, pc, asr r5
    22ac:	00656c62 	rsbeq	r6, r5, r2, ror #24
    22b0:	55525453 	ldrbpl	r5, [r2, #-1107]	; 0x453
    22b4:	485f5443 	ldmdami	pc, {r0, r1, r6, sl, ip, lr}^	; <UNPREDICTABLE>
    22b8:	4c444e41 	mcrrmi	14, 4, r4, r4, cr1
    22bc:	505f5245 	subspl	r5, pc, r5, asr #4
    22c0:	4d415241 	sfmmi	f5, 2, [r1, #-260]	; 0xfffffefc
    22c4:	52455445 	subpl	r5, r5, #1157627904	; 0x45000000
    22c8:	6f507600 	svcvs	0x00507600
    22cc:	6e497472 	mcrvs	4, 2, r7, cr9, cr2, {3}
    22d0:	61697469 	cmnvs	r9, r9, ror #8
    22d4:	6573696c 	ldrbvs	r6, [r3, #-2412]!	; 0x96c
    22d8:	636f6c42 	cmnvs	pc, #16896	; 0x4200
    22dc:	7800736b 	stmdavc	r0, {r0, r1, r3, r5, r6, r8, r9, ip, sp, lr}
    22e0:	74726f50 	ldrbtvc	r6, [r2], #-3920	; 0xf50
    22e4:	46746547 	ldrbtmi	r6, [r4], -r7, asr #10
    22e8:	48656572 	stmdami	r5!, {r1, r4, r5, r6, r8, sl, sp, lr}^
    22ec:	53706165 	cmnpl	r0, #1073741849	; 0x40000019
    22f0:	00657a69 	rsbeq	r7, r5, r9, ror #20
    22f4:	726f5076 	rsbvc	r5, pc, #118	; 0x76
    22f8:	65724674 	ldrbvs	r4, [r2, #-1652]!	; 0x674
    22fc:	76700065 	ldrbtvc	r0, [r0], -r5, rrx
    2300:	75746552 	ldrbvc	r6, [r4, #-1362]!	; 0x552
    2304:	53006e72 	movwpl	r6, #3698	; 0xe72
    2308:	6372756f 	cmnvs	r2, #465567744	; 0x1bc00000
    230c:	6f702f65 	svcvs	0x00702f65
    2310:	62617472 	rsbvs	r7, r1, #1912602624	; 0x72000000
    2314:	4d2f656c 	cfstr32mi	mvfx6, [pc, #-432]!	; 216c <load_address-0x9fffde94>
    2318:	614d6d65 	cmpvs	sp, r5, ror #26
    231c:	682f676e 	stmdavs	pc!, {r1, r2, r3, r5, r6, r8, r9, sl, sp, lr}	; <UNPREDICTABLE>
    2320:	5f706165 	svcpl	0x00706165
    2324:	00632e31 	rsbeq	r2, r3, r1, lsr lr
    2328:	78654e78 	stmdavc	r5!, {r3, r4, r5, r6, r9, sl, fp, lr}^
    232c:	65724674 	ldrbvs	r4, [r2, #-1652]!	; 0x674
    2330:	74794265 	ldrbtvc	r4, [r9], #-613	; 0x265
    2334:	52780065 	rsbspl	r0, r8, #101	; 0x65
    2338:	5f534f54 	svcpl	0x00534f54
    233c:	50414548 	subpl	r4, r1, r8, asr #10
    2340:	756f6400 	strbvc	r6, [pc, #-1024]!	; 1f48 <load_address-0x9fffe0b8>
    2344:	00656c62 	rsbeq	r6, r5, r2, ror #24
    2348:	6f507670 	svcvs	0x00507670
    234c:	614d7472 	hvcvs	55106	; 0xd742
    2350:	636f6c6c 	cmnvs	pc, #108, 24	; 0x6c00
    2354:	48637500 	stmdami	r3!, {r8, sl, ip, sp, lr}^
    2358:	00706165 	rsbseq	r6, r0, r5, ror #2
    235c:	6e615778 	mcrvs	7, 3, r5, cr1, cr8, {3}
    2360:	53646574 	cmnpl	r4, #116, 10	; 0x1d000000
    2364:	00657a69 	rsbeq	r7, r5, r9, ror #20
    2368:	61654878 	smcvs	21640	; 0x5488
    236c:	44640070 	strbtmi	r0, [r4], #-112	; 0x70
    2370:	796d6d75 	stmdbvc	sp!, {r0, r2, r4, r5, r6, r8, sl, fp, sp, lr}^
	...

Disassembly of section .debug_frame:

00000000 <.debug_frame>:
       0:	0000000c 	andeq	r0, r0, ip
       4:	ffffffff 			; <UNDEFINED> instruction: 0xffffffff
       8:	7c020001 	stcvc	0, cr0, [r2], {1}
       c:	000d0c0e 	andeq	r0, sp, lr, lsl #24
      10:	00000014 	andeq	r0, r0, r4, lsl r0
      14:	00000000 	andeq	r0, r0, r0
      18:	a0000080 	andge	r0, r0, r0, lsl #1
      1c:	0000013c 	andeq	r0, r0, ip, lsr r1
      20:	8e040e42 	cdphi	14, 0, cr0, cr4, cr2, {2}
      24:	100e4201 	andne	r4, lr, r1, lsl #4
      28:	00000014 	andeq	r0, r0, r4, lsl r0
      2c:	00000000 	andeq	r0, r0, r0
      30:	a00001bc 			; <UNDEFINED> instruction: 0xa00001bc
      34:	00000250 	andeq	r0, r0, r0, asr r2
      38:	8e040e42 	cdphi	14, 0, cr0, cr4, cr2, {2}
      3c:	780e4201 	stmdavc	lr, {r0, r9, lr}
      40:	0000000c 	andeq	r0, r0, ip
      44:	00000000 	andeq	r0, r0, r0
      48:	a000040c 	andge	r0, r0, ip, lsl #8
      4c:	00000004 	andeq	r0, r0, r4
      50:	0000000c 	andeq	r0, r0, ip
      54:	00000000 	andeq	r0, r0, r0
      58:	a0000410 	andge	r0, r0, r0, lsl r4
      5c:	00000004 	andeq	r0, r0, r4
      60:	00000014 	andeq	r0, r0, r4, lsl r0
      64:	00000000 	andeq	r0, r0, r0
      68:	a0000414 	andge	r0, r0, r4, lsl r4
      6c:	00000034 	andeq	r0, r0, r4, lsr r0
      70:	8e040e42 	cdphi	14, 0, cr0, cr4, cr2, {2}
      74:	180e4201 	stmdane	lr, {r0, r9, lr}
      78:	00000014 	andeq	r0, r0, r4, lsl r0
      7c:	00000000 	andeq	r0, r0, r0
      80:	a0000448 	andge	r0, r0, r8, asr #8
      84:	00000070 	andeq	r0, r0, r0, ror r0
      88:	8e040e42 	cdphi	14, 0, cr0, cr4, cr2, {2}
      8c:	180e4201 	stmdane	lr, {r0, r9, lr}
      90:	00000014 	andeq	r0, r0, r4, lsl r0
      94:	00000000 	andeq	r0, r0, r0
      98:	a00004b8 			; <UNDEFINED> instruction: 0xa00004b8
      9c:	00000070 	andeq	r0, r0, r0, ror r0
      a0:	8e040e42 	cdphi	14, 0, cr0, cr4, cr2, {2}
      a4:	180e4201 	stmdane	lr, {r0, r9, lr}
      a8:	00000014 	andeq	r0, r0, r4, lsl r0
      ac:	00000000 	andeq	r0, r0, r0
      b0:	a0000528 	andge	r0, r0, r8, lsr #10
      b4:	0000005c 	andeq	r0, r0, ip, asr r0
      b8:	8e040e42 	cdphi	14, 0, cr0, cr4, cr2, {2}
      bc:	180e4201 	stmdane	lr, {r0, r9, lr}
      c0:	00000014 	andeq	r0, r0, r4, lsl r0
      c4:	00000000 	andeq	r0, r0, r0
      c8:	a0000584 	andge	r0, r0, r4, lsl #11
      cc:	0000005c 	andeq	r0, r0, ip, asr r0
      d0:	8e040e42 	cdphi	14, 0, cr0, cr4, cr2, {2}
      d4:	180e4201 	stmdane	lr, {r0, r9, lr}
      d8:	00000014 	andeq	r0, r0, r4, lsl r0
      dc:	00000000 	andeq	r0, r0, r0
      e0:	a00005e0 	andge	r0, r0, r0, ror #11
      e4:	0000005c 	andeq	r0, r0, ip, asr r0
      e8:	8e040e42 	cdphi	14, 0, cr0, cr4, cr2, {2}
      ec:	180e4201 	stmdane	lr, {r0, r9, lr}
      f0:	00000010 	andeq	r0, r0, r0, lsl r0
      f4:	00000000 	andeq	r0, r0, r0
      f8:	a000063c 	andge	r0, r0, ip, lsr r6
      fc:	00000010 	andeq	r0, r0, r0, lsl r0
     100:	00080e42 	andeq	r0, r8, r2, asr #28
     104:	00000018 	andeq	r0, r0, r8, lsl r0
     108:	00000000 	andeq	r0, r0, r0
     10c:	a000064c 	andge	r0, r0, ip, asr #12
     110:	00000080 	andeq	r0, r0, r0, lsl #1
     114:	84080e42 	strhi	r0, [r8], #-3650	; 0xe42
     118:	42018e02 	andmi	r8, r1, #2, 28
     11c:	0000580e 	andeq	r5, r0, lr, lsl #16
     120:	0000000c 	andeq	r0, r0, ip
     124:	00000000 	andeq	r0, r0, r0
     128:	a00006cc 	andge	r0, r0, ip, asr #13
     12c:	00000008 	andeq	r0, r0, r8
     130:	0000000c 	andeq	r0, r0, ip
     134:	ffffffff 			; <UNDEFINED> instruction: 0xffffffff
     138:	7c020001 	stcvc	0, cr0, [r2], {1}
     13c:	000d0c0e 	andeq	r0, sp, lr, lsl #24
     140:	00000010 	andeq	r0, r0, r0, lsl r0
     144:	00000130 	andeq	r0, r0, r0, lsr r1
     148:	a00006d4 	ldrdge	r0, [r0], -r4
     14c:	00000020 	andeq	r0, r0, r0, lsr #32
     150:	00080e42 	andeq	r0, r8, r2, asr #28
     154:	00000010 	andeq	r0, r0, r0, lsl r0
     158:	00000130 	andeq	r0, r0, r0, lsr r1
     15c:	a00006f4 	strdge	r0, [r0], -r4
     160:	0000001c 	andeq	r0, r0, ip, lsl r0
     164:	00080e42 	andeq	r0, r8, r2, asr #28
     168:	00000014 	andeq	r0, r0, r4, lsl r0
     16c:	00000130 	andeq	r0, r0, r0, lsr r1
     170:	a0000710 	andge	r0, r0, r0, lsl r7
     174:	00000018 	andeq	r0, r0, r8, lsl r0
     178:	83080e42 	movwhi	r0, #36418	; 0x8e42
     17c:	00018e02 	andeq	r8, r1, r2, lsl #28
     180:	00000014 	andeq	r0, r0, r4, lsl r0
     184:	00000130 	andeq	r0, r0, r0, lsr r1
     188:	a0000728 	andge	r0, r0, r8, lsr #14
     18c:	00000018 	andeq	r0, r0, r8, lsl r0
     190:	83080e42 	movwhi	r0, #36418	; 0x8e42
     194:	00018e02 	andeq	r8, r1, r2, lsl #28
     198:	00000014 	andeq	r0, r0, r4, lsl r0
     19c:	00000130 	andeq	r0, r0, r0, lsr r1
     1a0:	a0000740 	andge	r0, r0, r0, asr #14
     1a4:	00000028 	andeq	r0, r0, r8, lsr #32
     1a8:	8e040e42 	cdphi	14, 0, cr0, cr4, cr2, {2}
     1ac:	100e4201 	andne	r4, lr, r1, lsl #4
     1b0:	00000014 	andeq	r0, r0, r4, lsl r0
     1b4:	00000130 	andeq	r0, r0, r0, lsr r1
     1b8:	a0000768 	andge	r0, r0, r8, ror #14
     1bc:	0000001c 	andeq	r0, r0, ip, lsl r0
     1c0:	83080e42 	movwhi	r0, #36418	; 0x8e42
     1c4:	00018e02 	andeq	r8, r1, r2, lsl #28
     1c8:	00000014 	andeq	r0, r0, r4, lsl r0
     1cc:	00000130 	andeq	r0, r0, r0, lsr r1
     1d0:	a0000784 	andge	r0, r0, r4, lsl #15
     1d4:	00000028 	andeq	r0, r0, r8, lsr #32
     1d8:	8e040e42 	cdphi	14, 0, cr0, cr4, cr2, {2}
     1dc:	100e4201 	andne	r4, lr, r1, lsl #4
     1e0:	00000014 	andeq	r0, r0, r4, lsl r0
     1e4:	00000130 	andeq	r0, r0, r0, lsr r1
     1e8:	a00007ac 	andge	r0, r0, ip, lsr #15
     1ec:	0000001c 	andeq	r0, r0, ip, lsl r0
     1f0:	83080e42 	movwhi	r0, #36418	; 0x8e42
     1f4:	00018e02 	andeq	r8, r1, r2, lsl #28
     1f8:	00000014 	andeq	r0, r0, r4, lsl r0
     1fc:	00000130 	andeq	r0, r0, r0, lsr r1
     200:	a00007c8 	andge	r0, r0, r8, asr #15
     204:	00000028 	andeq	r0, r0, r8, lsr #32
     208:	8e040e42 	cdphi	14, 0, cr0, cr4, cr2, {2}
     20c:	100e4201 	andne	r4, lr, r1, lsl #4
     210:	00000014 	andeq	r0, r0, r4, lsl r0
     214:	00000130 	andeq	r0, r0, r0, lsr r1
     218:	a00007f0 	strdge	r0, [r0], -r0	; <UNPREDICTABLE>
     21c:	0000001c 	andeq	r0, r0, ip, lsl r0
     220:	83080e42 	movwhi	r0, #36418	; 0x8e42
     224:	00018e02 	andeq	r8, r1, r2, lsl #28
     228:	00000014 	andeq	r0, r0, r4, lsl r0
     22c:	00000130 	andeq	r0, r0, r0, lsr r1
     230:	a000080c 	andge	r0, r0, ip, lsl #16
     234:	00000064 	andeq	r0, r0, r4, rrx
     238:	8e040e42 	cdphi	14, 0, cr0, cr4, cr2, {2}
     23c:	200e4201 	andcs	r4, lr, r1, lsl #4
     240:	00000014 	andeq	r0, r0, r4, lsl r0
     244:	00000130 	andeq	r0, r0, r0, lsr r1
     248:	a0000870 	andge	r0, r0, r0, ror r8
     24c:	00000064 	andeq	r0, r0, r4, rrx
     250:	8e040e42 	cdphi	14, 0, cr0, cr4, cr2, {2}
     254:	200e4201 	andcs	r4, lr, r1, lsl #4
     258:	00000014 	andeq	r0, r0, r4, lsl r0
     25c:	00000130 	andeq	r0, r0, r0, lsr r1
     260:	a00008d4 	ldrdge	r0, [r0], -r4
     264:	00000040 	andeq	r0, r0, r0, asr #32
     268:	8e040e42 	cdphi	14, 0, cr0, cr4, cr2, {2}
     26c:	100e4201 	andne	r4, lr, r1, lsl #4
     270:	00000014 	andeq	r0, r0, r4, lsl r0
     274:	00000130 	andeq	r0, r0, r0, lsr r1
     278:	a0000914 	andge	r0, r0, r4, lsl r9
     27c:	00000040 	andeq	r0, r0, r0, asr #32
     280:	8e040e42 	cdphi	14, 0, cr0, cr4, cr2, {2}
     284:	100e4201 	andne	r4, lr, r1, lsl #4
     288:	00000014 	andeq	r0, r0, r4, lsl r0
     28c:	00000130 	andeq	r0, r0, r0, lsr r1
     290:	a0000954 	andge	r0, r0, r4, asr r9
     294:	00000038 	andeq	r0, r0, r8, lsr r0
     298:	8e040e42 	cdphi	14, 0, cr0, cr4, cr2, {2}
     29c:	100e4201 	andne	r4, lr, r1, lsl #4
     2a0:	00000014 	andeq	r0, r0, r4, lsl r0
     2a4:	00000130 	andeq	r0, r0, r0, lsr r1
     2a8:	a000098c 	andge	r0, r0, ip, lsl #19
     2ac:	00000038 	andeq	r0, r0, r8, lsr r0
     2b0:	8e040e42 	cdphi	14, 0, cr0, cr4, cr2, {2}
     2b4:	100e4201 	andne	r4, lr, r1, lsl #4
     2b8:	00000014 	andeq	r0, r0, r4, lsl r0
     2bc:	00000130 	andeq	r0, r0, r0, lsr r1
     2c0:	a00009c4 	andge	r0, r0, r4, asr #19
     2c4:	0000008c 	andeq	r0, r0, ip, lsl #1
     2c8:	8e040e42 	cdphi	14, 0, cr0, cr4, cr2, {2}
     2cc:	200e4201 	andcs	r4, lr, r1, lsl #4
     2d0:	00000014 	andeq	r0, r0, r4, lsl r0
     2d4:	00000130 	andeq	r0, r0, r0, lsr r1
     2d8:	a0000a50 	andge	r0, r0, r0, asr sl
     2dc:	0000008c 	andeq	r0, r0, ip, lsl #1
     2e0:	8e040e42 	cdphi	14, 0, cr0, cr4, cr2, {2}
     2e4:	200e4201 	andcs	r4, lr, r1, lsl #4
     2e8:	00000014 	andeq	r0, r0, r4, lsl r0
     2ec:	00000130 	andeq	r0, r0, r0, lsr r1
     2f0:	a0000adc 	ldrdge	r0, [r0], -ip
     2f4:	00000040 	andeq	r0, r0, r0, asr #32
     2f8:	8e040e42 	cdphi	14, 0, cr0, cr4, cr2, {2}
     2fc:	100e4201 	andne	r4, lr, r1, lsl #4
     300:	00000014 	andeq	r0, r0, r4, lsl r0
     304:	00000130 	andeq	r0, r0, r0, lsr r1
     308:	a0000b1c 	andge	r0, r0, ip, lsl fp
     30c:	00000040 	andeq	r0, r0, r0, asr #32
     310:	8e040e42 	cdphi	14, 0, cr0, cr4, cr2, {2}
     314:	100e4201 	andne	r4, lr, r1, lsl #4
     318:	00000014 	andeq	r0, r0, r4, lsl r0
     31c:	00000130 	andeq	r0, r0, r0, lsr r1
     320:	a0000b5c 	andge	r0, r0, ip, asr fp
     324:	00000038 	andeq	r0, r0, r8, lsr r0
     328:	8e040e42 	cdphi	14, 0, cr0, cr4, cr2, {2}
     32c:	100e4201 	andne	r4, lr, r1, lsl #4
     330:	00000014 	andeq	r0, r0, r4, lsl r0
     334:	00000130 	andeq	r0, r0, r0, lsr r1
     338:	a0000b94 	mulge	r0, r4, fp
     33c:	00000038 	andeq	r0, r0, r8, lsr r0
     340:	8e040e42 	cdphi	14, 0, cr0, cr4, cr2, {2}
     344:	100e4201 	andne	r4, lr, r1, lsl #4
     348:	00000014 	andeq	r0, r0, r4, lsl r0
     34c:	00000130 	andeq	r0, r0, r0, lsr r1
     350:	a0000bcc 	andge	r0, r0, ip, asr #23
     354:	0000008c 	andeq	r0, r0, ip, lsl #1
     358:	8e040e42 	cdphi	14, 0, cr0, cr4, cr2, {2}
     35c:	200e4201 	andcs	r4, lr, r1, lsl #4
     360:	00000014 	andeq	r0, r0, r4, lsl r0
     364:	00000130 	andeq	r0, r0, r0, lsr r1
     368:	a0000c58 	andge	r0, r0, r8, asr ip
     36c:	0000008c 	andeq	r0, r0, ip, lsl #1
     370:	8e040e42 	cdphi	14, 0, cr0, cr4, cr2, {2}
     374:	200e4201 	andcs	r4, lr, r1, lsl #4
     378:	00000014 	andeq	r0, r0, r4, lsl r0
     37c:	00000130 	andeq	r0, r0, r0, lsr r1
     380:	a0000ce4 	andge	r0, r0, r4, ror #25
     384:	00000040 	andeq	r0, r0, r0, asr #32
     388:	8e040e42 	cdphi	14, 0, cr0, cr4, cr2, {2}
     38c:	100e4201 	andne	r4, lr, r1, lsl #4
     390:	00000014 	andeq	r0, r0, r4, lsl r0
     394:	00000130 	andeq	r0, r0, r0, lsr r1
     398:	a0000d24 	andge	r0, r0, r4, lsr #26
     39c:	00000040 	andeq	r0, r0, r0, asr #32
     3a0:	8e040e42 	cdphi	14, 0, cr0, cr4, cr2, {2}
     3a4:	100e4201 	andne	r4, lr, r1, lsl #4
     3a8:	00000014 	andeq	r0, r0, r4, lsl r0
     3ac:	00000130 	andeq	r0, r0, r0, lsr r1
     3b0:	a0000d64 	andge	r0, r0, r4, ror #26
     3b4:	00000038 	andeq	r0, r0, r8, lsr r0
     3b8:	8e040e42 	cdphi	14, 0, cr0, cr4, cr2, {2}
     3bc:	100e4201 	andne	r4, lr, r1, lsl #4
     3c0:	00000014 	andeq	r0, r0, r4, lsl r0
     3c4:	00000130 	andeq	r0, r0, r0, lsr r1
     3c8:	a0000d9c 	mulge	r0, ip, sp
     3cc:	00000038 	andeq	r0, r0, r8, lsr r0
     3d0:	8e040e42 	cdphi	14, 0, cr0, cr4, cr2, {2}
     3d4:	100e4201 	andne	r4, lr, r1, lsl #4
     3d8:	00000014 	andeq	r0, r0, r4, lsl r0
     3dc:	00000130 	andeq	r0, r0, r0, lsr r1
     3e0:	a0000dd4 	ldrdge	r0, [r0], -r4
     3e4:	000000bc 	strheq	r0, [r0], -ip
     3e8:	8e040e42 	cdphi	14, 0, cr0, cr4, cr2, {2}
     3ec:	200e4201 	andcs	r4, lr, r1, lsl #4
     3f0:	00000014 	andeq	r0, r0, r4, lsl r0
     3f4:	00000130 	andeq	r0, r0, r0, lsr r1
     3f8:	a0000e90 	mulge	r0, r0, lr
     3fc:	00000040 	andeq	r0, r0, r0, asr #32
     400:	8e040e42 	cdphi	14, 0, cr0, cr4, cr2, {2}
     404:	100e4201 	andne	r4, lr, r1, lsl #4
     408:	00000014 	andeq	r0, r0, r4, lsl r0
     40c:	00000130 	andeq	r0, r0, r0, lsr r1
     410:	a0000ed0 	ldrdge	r0, [r0], -r0	; <UNPREDICTABLE>
     414:	00000038 	andeq	r0, r0, r8, lsr r0
     418:	8e040e42 	cdphi	14, 0, cr0, cr4, cr2, {2}
     41c:	100e4201 	andne	r4, lr, r1, lsl #4
     420:	00000014 	andeq	r0, r0, r4, lsl r0
     424:	00000130 	andeq	r0, r0, r0, lsr r1
     428:	a0000f08 	andge	r0, r0, r8, lsl #30
     42c:	0000009c 	muleq	r0, ip, r0
     430:	8e040e42 	cdphi	14, 0, cr0, cr4, cr2, {2}
     434:	200e4201 	andcs	r4, lr, r1, lsl #4
     438:	00000014 	andeq	r0, r0, r4, lsl r0
     43c:	00000130 	andeq	r0, r0, r0, lsr r1
     440:	a0000fa4 	andge	r0, r0, r4, lsr #31
     444:	000000a0 	andeq	r0, r0, r0, lsr #1
     448:	8e040e42 	cdphi	14, 0, cr0, cr4, cr2, {2}
     44c:	200e4201 	andcs	r4, lr, r1, lsl #4
     450:	00000014 	andeq	r0, r0, r4, lsl r0
     454:	00000130 	andeq	r0, r0, r0, lsr r1
     458:	a0001044 	andge	r1, r0, r4, asr #32
     45c:	00000040 	andeq	r0, r0, r0, asr #32
     460:	8e040e42 	cdphi	14, 0, cr0, cr4, cr2, {2}
     464:	100e4201 	andne	r4, lr, r1, lsl #4
     468:	00000014 	andeq	r0, r0, r4, lsl r0
     46c:	00000130 	andeq	r0, r0, r0, lsr r1
     470:	a0001084 	andge	r1, r0, r4, lsl #1
     474:	00000038 	andeq	r0, r0, r8, lsr r0
     478:	8e040e42 	cdphi	14, 0, cr0, cr4, cr2, {2}
     47c:	100e4201 	andne	r4, lr, r1, lsl #4
     480:	00000014 	andeq	r0, r0, r4, lsl r0
     484:	00000130 	andeq	r0, r0, r0, lsr r1
     488:	a00010bc 	strhge	r1, [r0], -ip
     48c:	00000040 	andeq	r0, r0, r0, asr #32
     490:	8e040e42 	cdphi	14, 0, cr0, cr4, cr2, {2}
     494:	100e4201 	andne	r4, lr, r1, lsl #4
     498:	00000014 	andeq	r0, r0, r4, lsl r0
     49c:	00000130 	andeq	r0, r0, r0, lsr r1
     4a0:	a00010fc 	strdge	r1, [r0], -ip
     4a4:	00000038 	andeq	r0, r0, r8, lsr r0
     4a8:	8e040e42 	cdphi	14, 0, cr0, cr4, cr2, {2}
     4ac:	100e4201 	andne	r4, lr, r1, lsl #4
     4b0:	00000014 	andeq	r0, r0, r4, lsl r0
     4b4:	00000130 	andeq	r0, r0, r0, lsr r1
     4b8:	a0001134 	andge	r1, r0, r4, lsr r1
     4bc:	0000004c 	andeq	r0, r0, ip, asr #32
     4c0:	8e040e42 	cdphi	14, 0, cr0, cr4, cr2, {2}
     4c4:	180e4201 	stmdane	lr, {r0, r9, lr}
     4c8:	00000014 	andeq	r0, r0, r4, lsl r0
     4cc:	00000130 	andeq	r0, r0, r0, lsr r1
     4d0:	a0001180 	andge	r1, r0, r0, lsl #3
     4d4:	00000048 	andeq	r0, r0, r8, asr #32
     4d8:	8e040e42 	cdphi	14, 0, cr0, cr4, cr2, {2}
     4dc:	180e4201 	stmdane	lr, {r0, r9, lr}
     4e0:	00000014 	andeq	r0, r0, r4, lsl r0
     4e4:	00000130 	andeq	r0, r0, r0, lsr r1
     4e8:	a00011c8 	andge	r1, r0, r8, asr #3
     4ec:	00000028 	andeq	r0, r0, r8, lsr #32
     4f0:	8e040e42 	cdphi	14, 0, cr0, cr4, cr2, {2}
     4f4:	100e4201 	andne	r4, lr, r1, lsl #4
     4f8:	00000014 	andeq	r0, r0, r4, lsl r0
     4fc:	00000130 	andeq	r0, r0, r0, lsr r1
     500:	a00011f0 	strdge	r1, [r0], -r0
     504:	0000001c 	andeq	r0, r0, ip, lsl r0
     508:	83080e42 	movwhi	r0, #36418	; 0x8e42
     50c:	00018e02 	andeq	r8, r1, r2, lsl #28
     510:	00000014 	andeq	r0, r0, r4, lsl r0
     514:	00000130 	andeq	r0, r0, r0, lsr r1
     518:	a000120c 	andge	r1, r0, ip, lsl #4
     51c:	00000040 	andeq	r0, r0, r0, asr #32
     520:	8e040e42 	cdphi	14, 0, cr0, cr4, cr2, {2}
     524:	100e4201 	andne	r4, lr, r1, lsl #4
     528:	00000014 	andeq	r0, r0, r4, lsl r0
     52c:	00000130 	andeq	r0, r0, r0, lsr r1
     530:	a000124c 	andge	r1, r0, ip, asr #4
     534:	00000040 	andeq	r0, r0, r0, asr #32
     538:	8e040e42 	cdphi	14, 0, cr0, cr4, cr2, {2}
     53c:	100e4201 	andne	r4, lr, r1, lsl #4
     540:	00000014 	andeq	r0, r0, r4, lsl r0
     544:	00000130 	andeq	r0, r0, r0, lsr r1
     548:	a000128c 	andge	r1, r0, ip, lsl #5
     54c:	00000038 	andeq	r0, r0, r8, lsr r0
     550:	8e040e42 	cdphi	14, 0, cr0, cr4, cr2, {2}
     554:	100e4201 	andne	r4, lr, r1, lsl #4
     558:	00000014 	andeq	r0, r0, r4, lsl r0
     55c:	00000130 	andeq	r0, r0, r0, lsr r1
     560:	a00012c4 	andge	r1, r0, r4, asr #5
     564:	00000038 	andeq	r0, r0, r8, lsr r0
     568:	8e040e42 	cdphi	14, 0, cr0, cr4, cr2, {2}
     56c:	100e4201 	andne	r4, lr, r1, lsl #4
     570:	00000014 	andeq	r0, r0, r4, lsl r0
     574:	00000130 	andeq	r0, r0, r0, lsr r1
     578:	a00012fc 	strdge	r1, [r0], -ip
     57c:	0000001c 	andeq	r0, r0, ip, lsl r0
     580:	83080e42 	movwhi	r0, #36418	; 0x8e42
     584:	00018e02 	andeq	r8, r1, r2, lsl #28
     588:	00000014 	andeq	r0, r0, r4, lsl r0
     58c:	00000130 	andeq	r0, r0, r0, lsr r1
     590:	a0001318 	andge	r1, r0, r8, lsl r3
     594:	00000028 	andeq	r0, r0, r8, lsr #32
     598:	8e040e42 	cdphi	14, 0, cr0, cr4, cr2, {2}
     59c:	100e4201 	andne	r4, lr, r1, lsl #4
     5a0:	00000014 	andeq	r0, r0, r4, lsl r0
     5a4:	00000130 	andeq	r0, r0, r0, lsr r1
     5a8:	a0001340 	andge	r1, r0, r0, asr #6
     5ac:	0000002c 	andeq	r0, r0, ip, lsr #32
     5b0:	8e040e42 	cdphi	14, 0, cr0, cr4, cr2, {2}
     5b4:	100e4201 	andne	r4, lr, r1, lsl #4
     5b8:	00000014 	andeq	r0, r0, r4, lsl r0
     5bc:	00000130 	andeq	r0, r0, r0, lsr r1
     5c0:	a000136c 	andge	r1, r0, ip, ror #6
     5c4:	0000002c 	andeq	r0, r0, ip, lsr #32
     5c8:	8e040e42 	cdphi	14, 0, cr0, cr4, cr2, {2}
     5cc:	100e4201 	andne	r4, lr, r1, lsl #4
     5d0:	00000014 	andeq	r0, r0, r4, lsl r0
     5d4:	00000130 	andeq	r0, r0, r0, lsr r1
     5d8:	a0001398 	mulge	r0, r8, r3
     5dc:	00000050 	andeq	r0, r0, r0, asr r0
     5e0:	8e040e42 	cdphi	14, 0, cr0, cr4, cr2, {2}
     5e4:	180e4201 	stmdane	lr, {r0, r9, lr}
     5e8:	00000014 	andeq	r0, r0, r4, lsl r0
     5ec:	00000130 	andeq	r0, r0, r0, lsr r1
     5f0:	a00013e8 	andge	r1, r0, r8, ror #7
     5f4:	0000001c 	andeq	r0, r0, ip, lsl r0
     5f8:	83080e42 	movwhi	r0, #36418	; 0x8e42
     5fc:	00018e02 	andeq	r8, r1, r2, lsl #28
     600:	00000014 	andeq	r0, r0, r4, lsl r0
     604:	00000130 	andeq	r0, r0, r0, lsr r1
     608:	a0001404 	andge	r1, r0, r4, lsl #8
     60c:	00000028 	andeq	r0, r0, r8, lsr #32
     610:	8e040e42 	cdphi	14, 0, cr0, cr4, cr2, {2}
     614:	100e4201 	andne	r4, lr, r1, lsl #4
     618:	00000014 	andeq	r0, r0, r4, lsl r0
     61c:	00000130 	andeq	r0, r0, r0, lsr r1
     620:	a000142c 	andge	r1, r0, ip, lsr #8
     624:	00000024 	andeq	r0, r0, r4, lsr #32
     628:	8e040e42 	cdphi	14, 0, cr0, cr4, cr2, {2}
     62c:	100e4201 	andne	r4, lr, r1, lsl #4
     630:	00000014 	andeq	r0, r0, r4, lsl r0
     634:	00000130 	andeq	r0, r0, r0, lsr r1
     638:	a0001450 	andge	r1, r0, r0, asr r4
     63c:	0000001c 	andeq	r0, r0, ip, lsl r0
     640:	83080e42 	movwhi	r0, #36418	; 0x8e42
     644:	00018e02 	andeq	r8, r1, r2, lsl #28
     648:	00000014 	andeq	r0, r0, r4, lsl r0
     64c:	00000130 	andeq	r0, r0, r0, lsr r1
     650:	a000146c 	andge	r1, r0, ip, ror #8
     654:	00000028 	andeq	r0, r0, r8, lsr #32
     658:	8e040e42 	cdphi	14, 0, cr0, cr4, cr2, {2}
     65c:	100e4201 	andne	r4, lr, r1, lsl #4
     660:	00000014 	andeq	r0, r0, r4, lsl r0
     664:	00000130 	andeq	r0, r0, r0, lsr r1
     668:	a0001494 	mulge	r0, r4, r4
     66c:	00000024 	andeq	r0, r0, r4, lsr #32
     670:	8e040e42 	cdphi	14, 0, cr0, cr4, cr2, {2}
     674:	100e4201 	andne	r4, lr, r1, lsl #4
     678:	00000014 	andeq	r0, r0, r4, lsl r0
     67c:	00000130 	andeq	r0, r0, r0, lsr r1
     680:	a00014b8 			; <UNDEFINED> instruction: 0xa00014b8
     684:	0000001c 	andeq	r0, r0, ip, lsl r0
     688:	83080e42 	movwhi	r0, #36418	; 0x8e42
     68c:	00018e02 	andeq	r8, r1, r2, lsl #28
     690:	00000014 	andeq	r0, r0, r4, lsl r0
     694:	00000130 	andeq	r0, r0, r0, lsr r1
     698:	a00014d4 	ldrdge	r1, [r0], -r4
     69c:	00000044 	andeq	r0, r0, r4, asr #32
     6a0:	8e040e42 	cdphi	14, 0, cr0, cr4, cr2, {2}
     6a4:	180e4201 	stmdane	lr, {r0, r9, lr}
     6a8:	00000014 	andeq	r0, r0, r4, lsl r0
     6ac:	00000130 	andeq	r0, r0, r0, lsr r1
     6b0:	a0001518 	andge	r1, r0, r8, lsl r5
     6b4:	00000028 	andeq	r0, r0, r8, lsr #32
     6b8:	8e040e42 	cdphi	14, 0, cr0, cr4, cr2, {2}
     6bc:	100e4201 	andne	r4, lr, r1, lsl #4
     6c0:	00000014 	andeq	r0, r0, r4, lsl r0
     6c4:	00000130 	andeq	r0, r0, r0, lsr r1
     6c8:	a0001540 	andge	r1, r0, r0, asr #10
     6cc:	00000050 	andeq	r0, r0, r0, asr r0
     6d0:	8e040e42 	cdphi	14, 0, cr0, cr4, cr2, {2}
     6d4:	180e4201 	stmdane	lr, {r0, r9, lr}
     6d8:	00000014 	andeq	r0, r0, r4, lsl r0
     6dc:	00000130 	andeq	r0, r0, r0, lsr r1
     6e0:	a0001590 	mulge	r0, r0, r5
     6e4:	0000001c 	andeq	r0, r0, ip, lsl r0
     6e8:	83080e42 	movwhi	r0, #36418	; 0x8e42
     6ec:	00018e02 	andeq	r8, r1, r2, lsl #28
     6f0:	00000014 	andeq	r0, r0, r4, lsl r0
     6f4:	00000130 	andeq	r0, r0, r0, lsr r1
     6f8:	a00015ac 	andge	r1, r0, ip, lsr #11
     6fc:	00000018 	andeq	r0, r0, r8, lsl r0
     700:	83080e42 	movwhi	r0, #36418	; 0x8e42
     704:	00018e02 	andeq	r8, r1, r2, lsl #28
     708:	00000014 	andeq	r0, r0, r4, lsl r0
     70c:	00000130 	andeq	r0, r0, r0, lsr r1
     710:	a00015c4 	andge	r1, r0, r4, asr #11
     714:	0000001c 	andeq	r0, r0, ip, lsl r0
     718:	83080e42 	movwhi	r0, #36418	; 0x8e42
     71c:	00018e02 	andeq	r8, r1, r2, lsl #28
     720:	00000014 	andeq	r0, r0, r4, lsl r0
     724:	00000130 	andeq	r0, r0, r0, lsr r1
     728:	a00015e0 	andge	r1, r0, r0, ror #11
     72c:	0000003c 	andeq	r0, r0, ip, lsr r0
     730:	8e040e42 	cdphi	14, 0, cr0, cr4, cr2, {2}
     734:	180e4201 	stmdane	lr, {r0, r9, lr}
     738:	00000014 	andeq	r0, r0, r4, lsl r0
     73c:	00000130 	andeq	r0, r0, r0, lsr r1
     740:	a000161c 	andge	r1, r0, ip, lsl r6
     744:	00000040 	andeq	r0, r0, r0, asr #32
     748:	8e040e42 	cdphi	14, 0, cr0, cr4, cr2, {2}
     74c:	100e4201 	andne	r4, lr, r1, lsl #4
     750:	00000014 	andeq	r0, r0, r4, lsl r0
     754:	00000130 	andeq	r0, r0, r0, lsr r1
     758:	a000165c 	andge	r1, r0, ip, asr r6
     75c:	00000038 	andeq	r0, r0, r8, lsr r0
     760:	8e040e42 	cdphi	14, 0, cr0, cr4, cr2, {2}
     764:	100e4201 	andne	r4, lr, r1, lsl #4
     768:	00000014 	andeq	r0, r0, r4, lsl r0
     76c:	00000130 	andeq	r0, r0, r0, lsr r1
     770:	a0001694 	mulge	r0, r4, r6
     774:	00000040 	andeq	r0, r0, r0, asr #32
     778:	8e040e42 	cdphi	14, 0, cr0, cr4, cr2, {2}
     77c:	100e4201 	andne	r4, lr, r1, lsl #4
     780:	00000014 	andeq	r0, r0, r4, lsl r0
     784:	00000130 	andeq	r0, r0, r0, lsr r1
     788:	a00016d4 	ldrdge	r1, [r0], -r4
     78c:	00000038 	andeq	r0, r0, r8, lsr r0
     790:	8e040e42 	cdphi	14, 0, cr0, cr4, cr2, {2}
     794:	100e4201 	andne	r4, lr, r1, lsl #4
     798:	00000014 	andeq	r0, r0, r4, lsl r0
     79c:	00000130 	andeq	r0, r0, r0, lsr r1
     7a0:	a000170c 	andge	r1, r0, ip, lsl #14
     7a4:	0000001c 	andeq	r0, r0, ip, lsl r0
     7a8:	83080e42 	movwhi	r0, #36418	; 0x8e42
     7ac:	00018e02 	andeq	r8, r1, r2, lsl #28
     7b0:	00000014 	andeq	r0, r0, r4, lsl r0
     7b4:	00000130 	andeq	r0, r0, r0, lsr r1
     7b8:	a0001728 	andge	r1, r0, r8, lsr #14
     7bc:	00000028 	andeq	r0, r0, r8, lsr #32
     7c0:	8e040e42 	cdphi	14, 0, cr0, cr4, cr2, {2}
     7c4:	100e4201 	andne	r4, lr, r1, lsl #4
     7c8:	00000014 	andeq	r0, r0, r4, lsl r0
     7cc:	00000130 	andeq	r0, r0, r0, lsr r1
     7d0:	a0001750 	andge	r1, r0, r0, asr r7
     7d4:	00000050 	andeq	r0, r0, r0, asr r0
     7d8:	8e040e42 	cdphi	14, 0, cr0, cr4, cr2, {2}
     7dc:	180e4201 	stmdane	lr, {r0, r9, lr}
     7e0:	0000000c 	andeq	r0, r0, ip
     7e4:	ffffffff 			; <UNDEFINED> instruction: 0xffffffff
     7e8:	7c020001 	stcvc	0, cr0, [r2], {1}
     7ec:	000d0c0e 	andeq	r0, sp, lr, lsl #24
     7f0:	00000010 	andeq	r0, r0, r0, lsl r0
     7f4:	000007e0 	andeq	r0, r0, r0, ror #15
     7f8:	a00017a0 	andge	r1, r0, r0, lsr #15
     7fc:	0000001c 	andeq	r0, r0, ip, lsl r0
     800:	00080e42 	andeq	r0, r8, r2, asr #28
     804:	00000018 	andeq	r0, r0, r8, lsl r0
     808:	000007e0 	andeq	r0, r0, r0, ror #15
     80c:	a00017bc 			; <UNDEFINED> instruction: 0xa00017bc
     810:	00000050 	andeq	r0, r0, r0, asr r0
     814:	84080e42 	strhi	r0, [r8], #-3650	; 0xe42
     818:	42018502 	andmi	r8, r1, #8388608	; 0x800000
     81c:	0000100e 	andeq	r1, r0, lr
     820:	00000010 	andeq	r0, r0, r0, lsl r0
     824:	000007e0 	andeq	r0, r0, r0, ror #15
     828:	a000180c 	andge	r1, r0, ip, lsl #16
     82c:	0000001c 	andeq	r0, r0, ip, lsl r0
     830:	00080e42 	andeq	r0, r8, r2, asr #28
     834:	00000010 	andeq	r0, r0, r0, lsl r0
     838:	000007e0 	andeq	r0, r0, r0, ror #15
     83c:	a0001828 	andge	r1, r0, r8, lsr #16
     840:	00000018 	andeq	r0, r0, r8, lsl r0
     844:	00080e42 	andeq	r0, r8, r2, asr #28
     848:	00000010 	andeq	r0, r0, r0, lsl r0
     84c:	000007e0 	andeq	r0, r0, r0, ror #15
     850:	a0001840 	andge	r1, r0, r0, asr #16
     854:	0000001c 	andeq	r0, r0, ip, lsl r0
     858:	00080e42 	andeq	r0, r8, r2, asr #28
     85c:	00000010 	andeq	r0, r0, r0, lsl r0
     860:	000007e0 	andeq	r0, r0, r0, ror #15
     864:	a000185c 	andge	r1, r0, ip, asr r8
     868:	00000018 	andeq	r0, r0, r8, lsl r0
     86c:	00080e42 	andeq	r0, r8, r2, asr #28
     870:	00000018 	andeq	r0, r0, r8, lsl r0
     874:	000007e0 	andeq	r0, r0, r0, ror #15
     878:	a0001874 	andge	r1, r0, r4, ror r8
     87c:	00000050 	andeq	r0, r0, r0, asr r0
     880:	84080e42 	strhi	r0, [r8], #-3650	; 0xe42
     884:	42018502 	andmi	r8, r1, #8388608	; 0x800000
     888:	0000100e 	andeq	r1, r0, lr
     88c:	00000018 	andeq	r0, r0, r8, lsl r0
     890:	000007e0 	andeq	r0, r0, r0, ror #15
     894:	a00018c4 	andge	r1, r0, r4, asr #17
     898:	0000003c 	andeq	r0, r0, ip, lsr r0
     89c:	84080e42 	strhi	r0, [r8], #-3650	; 0xe42
     8a0:	42018502 	andmi	r8, r1, #8388608	; 0x800000
     8a4:	0000100e 	andeq	r1, r0, lr
     8a8:	00000010 	andeq	r0, r0, r0, lsl r0
     8ac:	000007e0 	andeq	r0, r0, r0, ror #15
     8b0:	a0001900 	andge	r1, r0, r0, lsl #18
     8b4:	0000001c 	andeq	r0, r0, ip, lsl r0
     8b8:	00080e42 	andeq	r0, r8, r2, asr #28
     8bc:	00000014 	andeq	r0, r0, r4, lsl r0
     8c0:	000007e0 	andeq	r0, r0, r0, ror #15
     8c4:	a000191c 	andge	r1, r0, ip, lsl r9
     8c8:	00000018 	andeq	r0, r0, r8, lsl r0
     8cc:	83080e42 	movwhi	r0, #36418	; 0x8e42
     8d0:	00018e02 	andeq	r8, r1, r2, lsl #28
     8d4:	00000014 	andeq	r0, r0, r4, lsl r0
     8d8:	000007e0 	andeq	r0, r0, r0, ror #15
     8dc:	a0001934 	andge	r1, r0, r4, lsr r9
     8e0:	00000014 	andeq	r0, r0, r4, lsl r0
     8e4:	83080e42 	movwhi	r0, #36418	; 0x8e42
     8e8:	00018e02 	andeq	r8, r1, r2, lsl #28
     8ec:	00000014 	andeq	r0, r0, r4, lsl r0
     8f0:	000007e0 	andeq	r0, r0, r0, ror #15
     8f4:	a0001948 	andge	r1, r0, r8, asr #18
     8f8:	0000001c 	andeq	r0, r0, ip, lsl r0
     8fc:	83080e42 	movwhi	r0, #36418	; 0x8e42
     900:	00018e02 	andeq	r8, r1, r2, lsl #28
     904:	00000014 	andeq	r0, r0, r4, lsl r0
     908:	000007e0 	andeq	r0, r0, r0, ror #15
     90c:	a0001964 	andge	r1, r0, r4, ror #18
     910:	0000001c 	andeq	r0, r0, ip, lsl r0
     914:	83080e42 	movwhi	r0, #36418	; 0x8e42
     918:	00018e02 	andeq	r8, r1, r2, lsl #28
     91c:	00000014 	andeq	r0, r0, r4, lsl r0
     920:	000007e0 	andeq	r0, r0, r0, ror #15
     924:	a0001980 	andge	r1, r0, r0, lsl #19
     928:	0000002c 	andeq	r0, r0, ip, lsr #32
     92c:	8e040e42 	cdphi	14, 0, cr0, cr4, cr2, {2}
     930:	100e4201 	andne	r4, lr, r1, lsl #4
     934:	00000014 	andeq	r0, r0, r4, lsl r0
     938:	000007e0 	andeq	r0, r0, r0, ror #15
     93c:	a00019ac 	andge	r1, r0, ip, lsr #19
     940:	0000002c 	andeq	r0, r0, ip, lsr #32
     944:	8e040e42 	cdphi	14, 0, cr0, cr4, cr2, {2}
     948:	100e4201 	andne	r4, lr, r1, lsl #4
     94c:	00000014 	andeq	r0, r0, r4, lsl r0
     950:	000007e0 	andeq	r0, r0, r0, ror #15
     954:	a00019d8 	ldrdge	r1, [r0], -r8
     958:	0000001c 	andeq	r0, r0, ip, lsl r0
     95c:	83080e42 	movwhi	r0, #36418	; 0x8e42
     960:	00018e02 	andeq	r8, r1, r2, lsl #28
     964:	00000014 	andeq	r0, r0, r4, lsl r0
     968:	000007e0 	andeq	r0, r0, r0, ror #15
     96c:	a00019f4 	strdge	r1, [r0], -r4
     970:	0000002c 	andeq	r0, r0, ip, lsr #32
     974:	8e040e42 	cdphi	14, 0, cr0, cr4, cr2, {2}
     978:	100e4201 	andne	r4, lr, r1, lsl #4
     97c:	00000014 	andeq	r0, r0, r4, lsl r0
     980:	000007e0 	andeq	r0, r0, r0, ror #15
     984:	a0001a20 	andge	r1, r0, r0, lsr #20
     988:	0000002c 	andeq	r0, r0, ip, lsr #32
     98c:	8e040e42 	cdphi	14, 0, cr0, cr4, cr2, {2}
     990:	100e4201 	andne	r4, lr, r1, lsl #4
     994:	00000014 	andeq	r0, r0, r4, lsl r0
     998:	000007e0 	andeq	r0, r0, r0, ror #15
     99c:	a0001a4c 	andge	r1, r0, ip, asr #20
     9a0:	00000038 	andeq	r0, r0, r8, lsr r0
     9a4:	8e040e42 	cdphi	14, 0, cr0, cr4, cr2, {2}
     9a8:	180e4201 	stmdane	lr, {r0, r9, lr}
     9ac:	00000014 	andeq	r0, r0, r4, lsl r0
     9b0:	000007e0 	andeq	r0, r0, r0, ror #15
     9b4:	a0001a84 	andge	r1, r0, r4, lsl #21
     9b8:	00000014 	andeq	r0, r0, r4, lsl r0
     9bc:	83080e42 	movwhi	r0, #36418	; 0x8e42
     9c0:	00018e02 	andeq	r8, r1, r2, lsl #28
     9c4:	0000000c 	andeq	r0, r0, ip
     9c8:	ffffffff 			; <UNDEFINED> instruction: 0xffffffff
     9cc:	7c020001 	stcvc	0, cr0, [r2], {1}
     9d0:	000d0c0e 	andeq	r0, sp, lr, lsl #24
     9d4:	00000010 	andeq	r0, r0, r0, lsl r0
     9d8:	000009c4 	andeq	r0, r0, r4, asr #19
     9dc:	a0001a98 	mulge	r0, r8, sl
     9e0:	00000018 	andeq	r0, r0, r8, lsl r0
     9e4:	00080e42 	andeq	r0, r8, r2, asr #28
     9e8:	00000010 	andeq	r0, r0, r0, lsl r0
     9ec:	000009c4 	andeq	r0, r0, r4, asr #19
     9f0:	a0001ab0 			; <UNDEFINED> instruction: 0xa0001ab0
     9f4:	00000098 	muleq	r0, r8, r0
     9f8:	00080e42 	andeq	r0, r8, r2, asr #28
     9fc:	00000014 	andeq	r0, r0, r4, lsl r0
     a00:	000009c4 	andeq	r0, r0, r4, asr #19
     a04:	a0001b48 	andge	r1, r0, r8, asr #22
     a08:	00000038 	andeq	r0, r0, r8, lsr r0
     a0c:	8e040e42 	cdphi	14, 0, cr0, cr4, cr2, {2}
     a10:	100e4201 	andne	r4, lr, r1, lsl #4
     a14:	00000014 	andeq	r0, r0, r4, lsl r0
     a18:	000009c4 	andeq	r0, r0, r4, asr #19
     a1c:	a0001b80 	andge	r1, r0, r0, lsl #23
     a20:	00000060 	andeq	r0, r0, r0, rrx
     a24:	8e040e42 	cdphi	14, 0, cr0, cr4, cr2, {2}
     a28:	180e4201 	stmdane	lr, {r0, r9, lr}
     a2c:	00000014 	andeq	r0, r0, r4, lsl r0
     a30:	000009c4 	andeq	r0, r0, r4, asr #19
     a34:	a0001be0 	andge	r1, r0, r0, ror #23
     a38:	00000060 	andeq	r0, r0, r0, rrx
     a3c:	8e040e42 	cdphi	14, 0, cr0, cr4, cr2, {2}
     a40:	180e4201 	stmdane	lr, {r0, r9, lr}
     a44:	0000000c 	andeq	r0, r0, ip
     a48:	000009c4 	andeq	r0, r0, r4, asr #19
     a4c:	a0001c40 	andge	r1, r0, r0, asr #24
     a50:	0000000c 	andeq	r0, r0, ip
     a54:	0000000c 	andeq	r0, r0, ip
     a58:	000009c4 	andeq	r0, r0, r4, asr #19
     a5c:	a0001c4c 	andge	r1, r0, ip, asr #24
     a60:	00000008 	andeq	r0, r0, r8
     a64:	0000000c 	andeq	r0, r0, ip
     a68:	ffffffff 			; <UNDEFINED> instruction: 0xffffffff
     a6c:	7c020001 	stcvc	0, cr0, [r2], {1}
     a70:	000d0c0e 	andeq	r0, sp, lr, lsl #24
     a74:	00000014 	andeq	r0, r0, r4, lsl r0
     a78:	00000a64 	andeq	r0, r0, r4, ror #20
     a7c:	a0001c54 	andge	r1, r0, r4, asr ip
     a80:	000000d4 	ldrdeq	r0, [r0], -r4
     a84:	8e040e42 	cdphi	14, 0, cr0, cr4, cr2, {2}
     a88:	200e4201 	andcs	r4, lr, r1, lsl #4
     a8c:	00000010 	andeq	r0, r0, r0, lsl r0
     a90:	00000a64 	andeq	r0, r0, r4, ror #20
     a94:	a0001d28 	andge	r1, r0, r8, lsr #26
     a98:	00000148 	andeq	r0, r0, r8, asr #2
     a9c:	00180e42 	andseq	r0, r8, r2, asr #28
     aa0:	00000010 	andeq	r0, r0, r0, lsl r0
     aa4:	00000a64 	andeq	r0, r0, r4, ror #20
     aa8:	a0001e70 	andge	r1, r0, r0, ror lr
     aac:	0000008c 	andeq	r0, r0, ip, lsl #1
     ab0:	00180e42 	andseq	r0, r8, r2, asr #28
     ab4:	00000010 	andeq	r0, r0, r0, lsl r0
     ab8:	00000a64 	andeq	r0, r0, r4, ror #20
     abc:	a0001efc 	strdge	r1, [r0], -ip
     ac0:	00000064 	andeq	r0, r0, r4, rrx
     ac4:	00180e42 	andseq	r0, r8, r2, asr #28
     ac8:	00000010 	andeq	r0, r0, r0, lsl r0
     acc:	00000a64 	andeq	r0, r0, r4, ror #20
     ad0:	a0001f60 	andge	r1, r0, r0, ror #30
     ad4:	00000114 	andeq	r0, r0, r4, lsl r1
     ad8:	00180e42 	andseq	r0, r8, r2, asr #28
     adc:	0000000c 	andeq	r0, r0, ip
     ae0:	ffffffff 			; <UNDEFINED> instruction: 0xffffffff
     ae4:	7c020001 	stcvc	0, cr0, [r2], {1}
     ae8:	000d0c0e 	andeq	r0, sp, lr, lsl #24
     aec:	00000014 	andeq	r0, r0, r4, lsl r0
     af0:	00000adc 	ldrdeq	r0, [r0], -ip
     af4:	a0002074 	andge	r2, r0, r4, ror r0
     af8:	0000002c 	andeq	r0, r0, ip, lsr #32
     afc:	8e040e42 	cdphi	14, 0, cr0, cr4, cr2, {2}
     b00:	100e4201 	andne	r4, lr, r1, lsl #4
     b04:	00000014 	andeq	r0, r0, r4, lsl r0
     b08:	00000adc 	ldrdeq	r0, [r0], -ip
     b0c:	a00020a0 	andge	r2, r0, r0, lsr #1
     b10:	0000002c 	andeq	r0, r0, ip, lsr #32
     b14:	8e040e42 	cdphi	14, 0, cr0, cr4, cr2, {2}
     b18:	100e4201 	andne	r4, lr, r1, lsl #4
     b1c:	00000024 	andeq	r0, r0, r4, lsr #32
     b20:	00000adc 	ldrdeq	r0, [r0], -ip
     b24:	a00020cc 	andge	r2, r0, ip, asr #1
     b28:	0000006c 	andeq	r0, r0, ip, rrx
     b2c:	80100e42 	andshi	r0, r0, r2, asr #28
     b30:	82038104 	andhi	r8, r3, #4, 2
     b34:	42018302 	andmi	r8, r1, #134217728	; 0x8000000
     b38:	058e140e 	streq	r1, [lr, #1038]	; 0x40e
     b3c:	08940e42 	ldmeq	r4, {r1, r6, r9, sl, fp}
     b40:	08a00e42 	stmiaeq	r0!, {r1, r6, r9, sl, fp}
     b44:	00000024 	andeq	r0, r0, r4, lsr #32
     b48:	00000adc 	ldrdeq	r0, [r0], -ip
     b4c:	a0002138 	andge	r2, r0, r8, lsr r1
     b50:	0000006c 	andeq	r0, r0, ip, rrx
     b54:	80100e42 	andshi	r0, r0, r2, asr #28
     b58:	82038104 	andhi	r8, r3, #4, 2
     b5c:	42018302 	andmi	r8, r1, #134217728	; 0x8000000
     b60:	058e140e 	streq	r1, [lr, #1038]	; 0x40e
     b64:	08940e42 	ldmeq	r4, {r1, r6, r9, sl, fp}
     b68:	08a00e42 	stmiaeq	r0!, {r1, r6, r9, sl, fp}
     b6c:	00000014 	andeq	r0, r0, r4, lsl r0
     b70:	00000adc 	ldrdeq	r0, [r0], -ip
     b74:	a00021a4 	andge	r2, r0, r4, lsr #3
     b78:	00000014 	andeq	r0, r0, r4, lsl r0
     b7c:	83080e42 	movwhi	r0, #36418	; 0x8e42
     b80:	00018e02 	andeq	r8, r1, r2, lsl #28
     b84:	00000014 	andeq	r0, r0, r4, lsl r0
     b88:	00000adc 	ldrdeq	r0, [r0], -ip
     b8c:	a00021b8 			; <UNDEFINED> instruction: 0xa00021b8
     b90:	000000d8 	ldrdeq	r0, [r0], -r8
     b94:	8e040e42 	cdphi	14, 0, cr0, cr4, cr2, {2}
     b98:	180e4201 	stmdane	lr, {r0, r9, lr}
     b9c:	00000018 	andeq	r0, r0, r8, lsl r0
     ba0:	00000adc 	ldrdeq	r0, [r0], -ip
     ba4:	a0002290 	mulge	r0, r0, r2
     ba8:	00000064 	andeq	r0, r0, r4, rrx
     bac:	84080e42 	strhi	r0, [r8], #-3650	; 0xe42
     bb0:	42018e02 	andmi	r8, r1, #2, 28
     bb4:	0000180e 	andeq	r1, r0, lr, lsl #16
     bb8:	0000000c 	andeq	r0, r0, ip
     bbc:	ffffffff 			; <UNDEFINED> instruction: 0xffffffff
     bc0:	7c020001 	stcvc	0, cr0, [r2], {1}
     bc4:	000d0c0e 	andeq	r0, sp, lr, lsl #24
     bc8:	00000010 	andeq	r0, r0, r0, lsl r0
     bcc:	00000bb8 			; <UNDEFINED> instruction: 0x00000bb8
     bd0:	a00022f4 	strdge	r2, [r0], -r4
     bd4:	00000054 	andeq	r0, r0, r4, asr r0
     bd8:	00080e42 	andeq	r0, r8, r2, asr #28
     bdc:	00000010 	andeq	r0, r0, r0, lsl r0
     be0:	00000bb8 			; <UNDEFINED> instruction: 0x00000bb8
     be4:	a0002348 	andge	r2, r0, r8, asr #6
     be8:	00000054 	andeq	r0, r0, r4, asr r0
     bec:	00080e42 	andeq	r0, r8, r2, asr #28
     bf0:	00000014 	andeq	r0, r0, r4, lsl r0
     bf4:	00000bb8 			; <UNDEFINED> instruction: 0x00000bb8
     bf8:	a000239c 	mulge	r0, ip, r3
     bfc:	00000100 	andeq	r0, r0, r0, lsl #2
     c00:	8e040e42 	cdphi	14, 0, cr0, cr4, cr2, {2}
     c04:	200e4201 	andcs	r4, lr, r1, lsl #4
     c08:	00000010 	andeq	r0, r0, r0, lsl r0
     c0c:	00000bb8 			; <UNDEFINED> instruction: 0x00000bb8
     c10:	a000249c 	mulge	r0, ip, r4
     c14:	00000054 	andeq	r0, r0, r4, asr r0
     c18:	00100e42 	andseq	r0, r0, r2, asr #28
     c1c:	00000010 	andeq	r0, r0, r0, lsl r0
     c20:	00000bb8 			; <UNDEFINED> instruction: 0x00000bb8
     c24:	a00024f0 	strdge	r2, [r0], -r0
     c28:	0000006c 	andeq	r0, r0, ip, rrx
     c2c:	00180e42 	andseq	r0, r8, r2, asr #28
     c30:	00000010 	andeq	r0, r0, r0, lsl r0
     c34:	00000bb8 			; <UNDEFINED> instruction: 0x00000bb8
     c38:	a000255c 	andge	r2, r0, ip, asr r5
     c3c:	00000074 	andeq	r0, r0, r4, ror r0
     c40:	00100e42 	andseq	r0, r0, r2, asr #28
     c44:	00000010 	andeq	r0, r0, r0, lsl r0
     c48:	00000bb8 			; <UNDEFINED> instruction: 0x00000bb8
     c4c:	a00025d0 	ldrdge	r2, [r0], -r0
     c50:	000000ac 	andeq	r0, r0, ip, lsr #1
     c54:	00180e42 	andseq	r0, r8, r2, asr #28
     c58:	00000014 	andeq	r0, r0, r4, lsl r0
     c5c:	00000bb8 			; <UNDEFINED> instruction: 0x00000bb8
     c60:	a000267c 	andge	r2, r0, ip, ror r6
     c64:	0000006c 	andeq	r0, r0, ip, rrx
     c68:	84040e42 	strhi	r0, [r4], #-3650	; 0xe42
     c6c:	100e4201 	andne	r4, lr, r1, lsl #4
     c70:	00000014 	andeq	r0, r0, r4, lsl r0
     c74:	00000bb8 			; <UNDEFINED> instruction: 0x00000bb8
     c78:	a00026e8 	andge	r2, r0, r8, ror #13
     c7c:	0000008c 	andeq	r0, r0, ip, lsl #1
     c80:	84040e42 	strhi	r0, [r4], #-3650	; 0xe42
     c84:	180e4201 	stmdane	lr, {r0, r9, lr}
     c88:	00000010 	andeq	r0, r0, r0, lsl r0
     c8c:	00000bb8 			; <UNDEFINED> instruction: 0x00000bb8
     c90:	a0002774 	andge	r2, r0, r4, ror r7
     c94:	0000005c 	andeq	r0, r0, ip, asr r0
     c98:	00080e42 	andeq	r0, r8, r2, asr #28
     c9c:	00000010 	andeq	r0, r0, r0, lsl r0
     ca0:	00000bb8 			; <UNDEFINED> instruction: 0x00000bb8
     ca4:	a00027d0 	ldrdge	r2, [r0], -r0
     ca8:	00000048 	andeq	r0, r0, r8, asr #32
     cac:	00100e42 	andseq	r0, r0, r2, asr #28
     cb0:	00000014 	andeq	r0, r0, r4, lsl r0
     cb4:	00000bb8 			; <UNDEFINED> instruction: 0x00000bb8
     cb8:	a0002818 	andge	r2, r0, r8, lsl r8
     cbc:	00000074 	andeq	r0, r0, r4, ror r0
     cc0:	8e040e42 	cdphi	14, 0, cr0, cr4, cr2, {2}
     cc4:	180e4201 	stmdane	lr, {r0, r9, lr}
     cc8:	00000010 	andeq	r0, r0, r0, lsl r0
     ccc:	00000bb8 			; <UNDEFINED> instruction: 0x00000bb8
     cd0:	a000288c 	andge	r2, r0, ip, lsl #17
     cd4:	00000060 	andeq	r0, r0, r0, rrx
     cd8:	00100e42 	andseq	r0, r0, r2, asr #28
     cdc:	00000010 	andeq	r0, r0, r0, lsl r0
     ce0:	00000bb8 			; <UNDEFINED> instruction: 0x00000bb8
     ce4:	a00028ec 	andge	r2, r0, ip, ror #17
     ce8:	000000b4 	strheq	r0, [r0], -r4
     cec:	00180e42 	andseq	r0, r8, r2, asr #28
     cf0:	00000010 	andeq	r0, r0, r0, lsl r0
     cf4:	00000bb8 			; <UNDEFINED> instruction: 0x00000bb8
     cf8:	a00029a0 	andge	r2, r0, r0, lsr #19
     cfc:	0000008c 	andeq	r0, r0, ip, lsl #1
     d00:	00100e42 	andseq	r0, r0, r2, asr #28
     d04:	00000018 	andeq	r0, r0, r8, lsl r0
     d08:	00000bb8 			; <UNDEFINED> instruction: 0x00000bb8
     d0c:	a0002a2c 	andge	r2, r0, ip, lsr #20
     d10:	000000fc 	strdeq	r0, [r0], -ip
     d14:	84080e42 	strhi	r0, [r8], #-3650	; 0xe42
     d18:	42018e02 	andmi	r8, r1, #2, 28
     d1c:	0000180e 	andeq	r1, r0, lr, lsl #16
     d20:	00000014 	andeq	r0, r0, r4, lsl r0
     d24:	00000bb8 			; <UNDEFINED> instruction: 0x00000bb8
     d28:	a0002b28 	andge	r2, r0, r8, lsr #22
     d2c:	0000007c 	andeq	r0, r0, ip, ror r0
     d30:	8e040e42 	cdphi	14, 0, cr0, cr4, cr2, {2}
     d34:	180e4201 	stmdane	lr, {r0, r9, lr}
     d38:	00000010 	andeq	r0, r0, r0, lsl r0
     d3c:	00000bb8 			; <UNDEFINED> instruction: 0x00000bb8
     d40:	a0002ba4 	andge	r2, r0, r4, lsr #23
     d44:	00000058 	andeq	r0, r0, r8, asr r0
     d48:	00180e42 	andseq	r0, r8, r2, asr #28
     d4c:	00000010 	andeq	r0, r0, r0, lsl r0
     d50:	00000bb8 			; <UNDEFINED> instruction: 0x00000bb8
     d54:	a0002bfc 	strdge	r2, [r0], -ip
     d58:	00000060 	andeq	r0, r0, r0, rrx
     d5c:	00180e42 	andseq	r0, r8, r2, asr #28
     d60:	00000010 	andeq	r0, r0, r0, lsl r0
     d64:	00000bb8 			; <UNDEFINED> instruction: 0x00000bb8
     d68:	a0002c5c 	andge	r2, r0, ip, asr ip
     d6c:	00000068 	andeq	r0, r0, r8, rrx
     d70:	00180e42 	andseq	r0, r8, r2, asr #28
     d74:	00000010 	andeq	r0, r0, r0, lsl r0
     d78:	00000bb8 			; <UNDEFINED> instruction: 0x00000bb8
     d7c:	a0002cc4 	andge	r2, r0, r4, asr #25
     d80:	000000dc 	ldrdeq	r0, [r0], -ip
     d84:	00180e42 	andseq	r0, r8, r2, asr #28
     d88:	00000010 	andeq	r0, r0, r0, lsl r0
     d8c:	00000bb8 			; <UNDEFINED> instruction: 0x00000bb8
     d90:	a0002da0 	andge	r2, r0, r0, lsr #27
     d94:	00000098 	muleq	r0, r8, r0
     d98:	00200e42 	eoreq	r0, r0, r2, asr #28
     d9c:	00000010 	andeq	r0, r0, r0, lsl r0
     da0:	00000bb8 			; <UNDEFINED> instruction: 0x00000bb8
     da4:	a0002e38 	andge	r2, r0, r8, lsr lr
     da8:	00000070 	andeq	r0, r0, r0, ror r0
     dac:	00180e42 	andseq	r0, r8, r2, asr #28
     db0:	00000014 	andeq	r0, r0, r4, lsl r0
     db4:	00000bb8 			; <UNDEFINED> instruction: 0x00000bb8
     db8:	a0002ea8 	andge	r2, r0, r8, lsr #29
     dbc:	000000a8 	andeq	r0, r0, r8, lsr #1
     dc0:	8e040e42 	cdphi	14, 0, cr0, cr4, cr2, {2}
     dc4:	180e4201 	stmdane	lr, {r0, r9, lr}
     dc8:	00000010 	andeq	r0, r0, r0, lsl r0
     dcc:	00000bb8 			; <UNDEFINED> instruction: 0x00000bb8
     dd0:	a0002f50 	andge	r2, r0, r0, asr pc
     dd4:	0000006c 	andeq	r0, r0, ip, rrx
     dd8:	00180e42 	andseq	r0, r8, r2, asr #28
     ddc:	00000014 	andeq	r0, r0, r4, lsl r0
     de0:	00000bb8 			; <UNDEFINED> instruction: 0x00000bb8
     de4:	a0002fbc 			; <UNDEFINED> instruction: 0xa0002fbc
     de8:	00000054 	andeq	r0, r0, r4, asr r0
     dec:	8e040e42 	cdphi	14, 0, cr0, cr4, cr2, {2}
     df0:	100e4201 	andne	r4, lr, r1, lsl #4
     df4:	00000014 	andeq	r0, r0, r4, lsl r0
     df8:	00000bb8 			; <UNDEFINED> instruction: 0x00000bb8
     dfc:	a0003010 	andge	r3, r0, r0, lsl r0
     e00:	00000054 	andeq	r0, r0, r4, asr r0
     e04:	8e040e42 	cdphi	14, 0, cr0, cr4, cr2, {2}
     e08:	100e4201 	andne	r4, lr, r1, lsl #4
     e0c:	00000010 	andeq	r0, r0, r0, lsl r0
     e10:	00000bb8 			; <UNDEFINED> instruction: 0x00000bb8
     e14:	a0003064 	andge	r3, r0, r4, rrx
     e18:	00000210 	andeq	r0, r0, r0, lsl r2
     e1c:	00180e42 	andseq	r0, r8, r2, asr #28
     e20:	00000010 	andeq	r0, r0, r0, lsl r0
     e24:	00000bb8 			; <UNDEFINED> instruction: 0x00000bb8
     e28:	a0003274 	andge	r3, r0, r4, ror r2
     e2c:	0000019c 	muleq	r0, ip, r1
     e30:	00480e42 	subeq	r0, r8, r2, asr #28
     e34:	00000010 	andeq	r0, r0, r0, lsl r0
     e38:	00000bb8 			; <UNDEFINED> instruction: 0x00000bb8
     e3c:	a0003410 	andge	r3, r0, r0, lsl r4
     e40:	00000094 	muleq	r0, r4, r0
     e44:	00100e42 	andseq	r0, r0, r2, asr #28
     e48:	00000010 	andeq	r0, r0, r0, lsl r0
     e4c:	00000bb8 			; <UNDEFINED> instruction: 0x00000bb8
     e50:	a00034a4 	andge	r3, r0, r4, lsr #9
     e54:	000003fc 	strdeq	r0, [r0], -ip
     e58:	00680e42 	rsbeq	r0, r8, r2, asr #28
     e5c:	00000018 	andeq	r0, r0, r8, lsl r0
     e60:	00000bb8 			; <UNDEFINED> instruction: 0x00000bb8
     e64:	a00038a0 	andge	r3, r0, r0, lsr #17
     e68:	000007ac 	andeq	r0, r0, ip, lsr #15
     e6c:	84080e42 	strhi	r0, [r8], #-3650	; 0xe42
     e70:	42018e02 	andmi	r8, r1, #2, 28
     e74:	0000580e 	andeq	r5, r0, lr, lsl #16
     e78:	00000020 	andeq	r0, r0, r0, lsr #32
     e7c:	00000bb8 			; <UNDEFINED> instruction: 0x00000bb8
     e80:	a000404c 	andge	r4, r0, ip, asr #32
     e84:	00000048 	andeq	r0, r0, r8, asr #32
     e88:	810c0e42 	tsthi	ip, r2, asr #28
     e8c:	83028203 	movwhi	r8, #8707	; 0x2203
     e90:	100e4201 	andne	r4, lr, r1, lsl #4
     e94:	0e42048e 	cdpeq	4, 4, cr0, cr2, cr14, {4}
     e98:	00000020 	andeq	r0, r0, r0, lsr #32
     e9c:	0000000c 	andeq	r0, r0, ip
     ea0:	ffffffff 			; <UNDEFINED> instruction: 0xffffffff
     ea4:	7c020001 	stcvc	0, cr0, [r2], {1}
     ea8:	000d0c0e 	andeq	r0, sp, lr, lsl #24
     eac:	00000018 	andeq	r0, r0, r8, lsl r0
     eb0:	00000e9c 	muleq	r0, ip, lr
     eb4:	a0004094 	mulge	r0, r4, r0
     eb8:	00000188 	andeq	r0, r0, r8, lsl #3
     ebc:	84080e42 	strhi	r0, [r8], #-3650	; 0xe42
     ec0:	42018e02 	andmi	r8, r1, #2, 28
     ec4:	0000200e 	andeq	r2, r0, lr
     ec8:	00000018 	andeq	r0, r0, r8, lsl r0
     ecc:	00000e9c 	muleq	r0, ip, lr
     ed0:	a000421c 	andge	r4, r0, ip, lsl r2
     ed4:	00000110 	andeq	r0, r0, r0, lsl r1
     ed8:	84080e42 	strhi	r0, [r8], #-3650	; 0xe42
     edc:	42018e02 	andmi	r8, r1, #2, 28
     ee0:	0000180e 	andeq	r1, r0, lr, lsl #16
     ee4:	00000014 	andeq	r0, r0, r4, lsl r0
     ee8:	00000e9c 	muleq	r0, ip, lr
     eec:	a000432c 	andge	r4, r0, ip, lsr #6
     ef0:	000000e4 	andeq	r0, r0, r4, ror #1
     ef4:	8e040e42 	cdphi	14, 0, cr0, cr4, cr2, {2}
     ef8:	100e4201 	andne	r4, lr, r1, lsl #4
     efc:	00000014 	andeq	r0, r0, r4, lsl r0
     f00:	00000e9c 	muleq	r0, ip, lr
     f04:	a0004410 	andge	r4, r0, r0, lsl r4
     f08:	00000234 	andeq	r0, r0, r4, lsr r2
     f0c:	8e040e42 	cdphi	14, 0, cr0, cr4, cr2, {2}
     f10:	100e4201 	andne	r4, lr, r1, lsl #4
     f14:	00000018 	andeq	r0, r0, r8, lsl r0
     f18:	00000e9c 	muleq	r0, ip, lr
     f1c:	a0004644 	andge	r4, r0, r4, asr #12
     f20:	00000170 	andeq	r0, r0, r0, ror r1
     f24:	84080e42 	strhi	r0, [r8], #-3650	; 0xe42
     f28:	42018e02 	andmi	r8, r1, #2, 28
     f2c:	0000100e 	andeq	r1, r0, lr
     f30:	00000014 	andeq	r0, r0, r4, lsl r0
     f34:	00000e9c 	muleq	r0, ip, lr
     f38:	a00047b4 			; <UNDEFINED> instruction: 0xa00047b4
     f3c:	000000d4 	ldrdeq	r0, [r0], -r4
     f40:	8e040e42 	cdphi	14, 0, cr0, cr4, cr2, {2}
     f44:	100e4201 	andne	r4, lr, r1, lsl #4
     f48:	00000018 	andeq	r0, r0, r8, lsl r0
     f4c:	00000e9c 	muleq	r0, ip, lr
     f50:	a0004888 	andge	r4, r0, r8, lsl #17
     f54:	000000a0 	andeq	r0, r0, r0, lsr #1
     f58:	84080e42 	strhi	r0, [r8], #-3650	; 0xe42
     f5c:	42018e02 	andmi	r8, r1, #2, 28
     f60:	0000180e 	andeq	r1, r0, lr, lsl #16
     f64:	0000000c 	andeq	r0, r0, ip
     f68:	ffffffff 			; <UNDEFINED> instruction: 0xffffffff
     f6c:	7c020001 	stcvc	0, cr0, [r2], {1}
     f70:	000d0c0e 	andeq	r0, sp, lr, lsl #24
     f74:	00000010 	andeq	r0, r0, r0, lsl r0
     f78:	00000f64 	andeq	r0, r0, r4, ror #30
     f7c:	a0004928 	andge	r4, r0, r8, lsr #18
     f80:	00000058 	andeq	r0, r0, r8, asr r0
     f84:	00080e42 	andeq	r0, r8, r2, asr #28
     f88:	00000010 	andeq	r0, r0, r0, lsl r0
     f8c:	00000f64 	andeq	r0, r0, r4, ror #30
     f90:	a0004980 	andge	r4, r0, r0, lsl #19
     f94:	0000001c 	andeq	r0, r0, ip, lsl r0
     f98:	00080e42 	andeq	r0, r8, r2, asr #28
     f9c:	00000010 	andeq	r0, r0, r0, lsl r0
     fa0:	00000f64 	andeq	r0, r0, r4, ror #30
     fa4:	a000499c 	mulge	r0, ip, r9
     fa8:	00000088 	andeq	r0, r0, r8, lsl #1
     fac:	00100e42 	andseq	r0, r0, r2, asr #28
     fb0:	00000010 	andeq	r0, r0, r0, lsl r0
     fb4:	00000f64 	andeq	r0, r0, r4, ror #30
     fb8:	a0004a24 	andge	r4, r0, r4, lsr #20
     fbc:	000000c8 	andeq	r0, r0, r8, asr #1
     fc0:	00100e42 	andseq	r0, r0, r2, asr #28
     fc4:	00000010 	andeq	r0, r0, r0, lsl r0
     fc8:	00000f64 	andeq	r0, r0, r4, ror #30
     fcc:	a0004aec 	andge	r4, r0, ip, ror #21
     fd0:	00000088 	andeq	r0, r0, r8, lsl #1
     fd4:	00100e42 	andseq	r0, r0, r2, asr #28
     fd8:	0000000c 	andeq	r0, r0, ip
     fdc:	ffffffff 			; <UNDEFINED> instruction: 0xffffffff
     fe0:	7c020001 	stcvc	0, cr0, [r2], {1}
     fe4:	000d0c0e 	andeq	r0, sp, lr, lsl #24
     fe8:	00000014 	andeq	r0, r0, r4, lsl r0
     fec:	00000fd8 	ldrdeq	r0, [r0], -r8
     ff0:	a0004b74 	andge	r4, r0, r4, ror fp
     ff4:	00000148 	andeq	r0, r0, r8, asr #2
     ff8:	8e040e42 	cdphi	14, 0, cr0, cr4, cr2, {2}
     ffc:	200e4201 	andcs	r4, lr, r1, lsl #4
    1000:	00000014 	andeq	r0, r0, r4, lsl r0
    1004:	00000fd8 	ldrdeq	r0, [r0], -r8
    1008:	a0004cbc 			; <UNDEFINED> instruction: 0xa0004cbc
    100c:	000000d0 	ldrdeq	r0, [r0], -r0	; <UNPREDICTABLE>
    1010:	8e040e42 	cdphi	14, 0, cr0, cr4, cr2, {2}
    1014:	100e4201 	andne	r4, lr, r1, lsl #4
    1018:	00000018 	andeq	r0, r0, r8, lsl r0
    101c:	00000fd8 	ldrdeq	r0, [r0], -r8
    1020:	a0004d8c 	andge	r4, r0, ip, lsl #27
    1024:	00000080 	andeq	r0, r0, r0, lsl #1
    1028:	84080e42 	strhi	r0, [r8], #-3650	; 0xe42
    102c:	42018e02 	andmi	r8, r1, #2, 28
    1030:	0000180e 	andeq	r1, r0, lr, lsl #16
    1034:	00000018 	andeq	r0, r0, r8, lsl r0
    1038:	00000fd8 	ldrdeq	r0, [r0], -r8
    103c:	a0004e0c 	andge	r4, r0, ip, lsl #28
    1040:	00000090 	muleq	r0, r0, r0
    1044:	84080e42 	strhi	r0, [r8], #-3650	; 0xe42
    1048:	42018e02 	andmi	r8, r1, #2, 28
    104c:	0000180e 	andeq	r1, r0, lr, lsl #16
    1050:	00000014 	andeq	r0, r0, r4, lsl r0
    1054:	00000fd8 	ldrdeq	r0, [r0], -r8
    1058:	a0004e9c 	mulge	r0, ip, lr
    105c:	00000048 	andeq	r0, r0, r8, asr #32
    1060:	8e040e42 	cdphi	14, 0, cr0, cr4, cr2, {2}
    1064:	180e4201 	stmdane	lr, {r0, r9, lr}
    1068:	00000014 	andeq	r0, r0, r4, lsl r0
    106c:	00000fd8 	ldrdeq	r0, [r0], -r8
    1070:	a0004ee4 	andge	r4, r0, r4, ror #29
    1074:	000001f8 	strdeq	r0, [r0], -r8
    1078:	8e040e42 	cdphi	14, 0, cr0, cr4, cr2, {2}
    107c:	280e4201 	stmdacs	lr, {r0, r9, lr}
    1080:	00000014 	andeq	r0, r0, r4, lsl r0
    1084:	00000fd8 	ldrdeq	r0, [r0], -r8
    1088:	a00050dc 	ldrdge	r5, [r0], -ip
    108c:	000000dc 	ldrdeq	r0, [r0], -ip
    1090:	8e040e42 	cdphi	14, 0, cr0, cr4, cr2, {2}
    1094:	200e4201 	andcs	r4, lr, r1, lsl #4
    1098:	00000014 	andeq	r0, r0, r4, lsl r0
    109c:	00000fd8 	ldrdeq	r0, [r0], -r8
    10a0:	a00051b8 			; <UNDEFINED> instruction: 0xa00051b8
    10a4:	000002c8 	andeq	r0, r0, r8, asr #5
    10a8:	8e040e42 	cdphi	14, 0, cr0, cr4, cr2, {2}
    10ac:	280e4201 	stmdacs	lr, {r0, r9, lr}
    10b0:	00000014 	andeq	r0, r0, r4, lsl r0
    10b4:	00000fd8 	ldrdeq	r0, [r0], -r8
    10b8:	a0005480 	andge	r5, r0, r0, lsl #9
    10bc:	000000e0 	andeq	r0, r0, r0, ror #1
    10c0:	8e040e42 	cdphi	14, 0, cr0, cr4, cr2, {2}
    10c4:	200e4201 	andcs	r4, lr, r1, lsl #4
    10c8:	00000014 	andeq	r0, r0, r4, lsl r0
    10cc:	00000fd8 	ldrdeq	r0, [r0], -r8
    10d0:	a0005560 	andge	r5, r0, r0, ror #10
    10d4:	00000030 	andeq	r0, r0, r0, lsr r0
    10d8:	8e040e42 	cdphi	14, 0, cr0, cr4, cr2, {2}
    10dc:	180e4201 	stmdane	lr, {r0, r9, lr}
    10e0:	00000010 	andeq	r0, r0, r0, lsl r0
    10e4:	00000fd8 	ldrdeq	r0, [r0], -r8
    10e8:	a0005590 	mulge	r0, r0, r5
    10ec:	00000024 	andeq	r0, r0, r4, lsr #32
    10f0:	00100e42 	andseq	r0, r0, r2, asr #28
    10f4:	00000014 	andeq	r0, r0, r4, lsl r0
    10f8:	00000fd8 	ldrdeq	r0, [r0], -r8
    10fc:	a00055b4 			; <UNDEFINED> instruction: 0xa00055b4
    1100:	0000002c 	andeq	r0, r0, ip, lsr #32
    1104:	8e040e42 	cdphi	14, 0, cr0, cr4, cr2, {2}
    1108:	100e4201 	andne	r4, lr, r1, lsl #4
    110c:	00000014 	andeq	r0, r0, r4, lsl r0
    1110:	00000fd8 	ldrdeq	r0, [r0], -r8
    1114:	a00055e0 	andge	r5, r0, r0, ror #11
    1118:	0000015c 	andeq	r0, r0, ip, asr r1
    111c:	8e040e42 	cdphi	14, 0, cr0, cr4, cr2, {2}
    1120:	180e4201 	stmdane	lr, {r0, r9, lr}
    1124:	00000014 	andeq	r0, r0, r4, lsl r0
    1128:	00000fd8 	ldrdeq	r0, [r0], -r8
    112c:	a000573c 	andge	r5, r0, ip, lsr r7
    1130:	0000008c 	andeq	r0, r0, ip, lsl #1
    1134:	8e040e42 	cdphi	14, 0, cr0, cr4, cr2, {2}
    1138:	100e4201 	andne	r4, lr, r1, lsl #4
    113c:	00000014 	andeq	r0, r0, r4, lsl r0
    1140:	00000fd8 	ldrdeq	r0, [r0], -r8
    1144:	a00057c8 	andge	r5, r0, r8, asr #15
    1148:	000000fc 	strdeq	r0, [r0], -ip
    114c:	8e040e42 	cdphi	14, 0, cr0, cr4, cr2, {2}
    1150:	100e4201 	andne	r4, lr, r1, lsl #4
    1154:	00000014 	andeq	r0, r0, r4, lsl r0
    1158:	00000fd8 	ldrdeq	r0, [r0], -r8
    115c:	a00058c4 	andge	r5, r0, r4, asr #17
    1160:	00000040 	andeq	r0, r0, r0, asr #32
    1164:	8e040e42 	cdphi	14, 0, cr0, cr4, cr2, {2}
    1168:	180e4201 	stmdane	lr, {r0, r9, lr}
    116c:	00000010 	andeq	r0, r0, r0, lsl r0
    1170:	00000fd8 	ldrdeq	r0, [r0], -r8
    1174:	a0005904 	andge	r5, r0, r4, lsl #18
    1178:	00000034 	andeq	r0, r0, r4, lsr r0
    117c:	00100e42 	andseq	r0, r0, r2, asr #28
    1180:	00000014 	andeq	r0, r0, r4, lsl r0
    1184:	00000fd8 	ldrdeq	r0, [r0], -r8
    1188:	a0005938 	andge	r5, r0, r8, lsr r9
    118c:	00000048 	andeq	r0, r0, r8, asr #32
    1190:	8e040e42 	cdphi	14, 0, cr0, cr4, cr2, {2}
    1194:	180e4201 	stmdane	lr, {r0, r9, lr}
    1198:	00000010 	andeq	r0, r0, r0, lsl r0
    119c:	00000fd8 	ldrdeq	r0, [r0], -r8
    11a0:	a0005980 	andge	r5, r0, r0, lsl #19
    11a4:	0000003c 	andeq	r0, r0, ip, lsr r0
    11a8:	00100e42 	andseq	r0, r0, r2, asr #28
    11ac:	00000014 	andeq	r0, r0, r4, lsl r0
    11b0:	00000fd8 	ldrdeq	r0, [r0], -r8
    11b4:	a00059bc 			; <UNDEFINED> instruction: 0xa00059bc
    11b8:	00000084 	andeq	r0, r0, r4, lsl #1
    11bc:	8e040e42 	cdphi	14, 0, cr0, cr4, cr2, {2}
    11c0:	100e4201 	andne	r4, lr, r1, lsl #4
    11c4:	0000000c 	andeq	r0, r0, ip
    11c8:	ffffffff 			; <UNDEFINED> instruction: 0xffffffff
    11cc:	7c020001 	stcvc	0, cr0, [r2], {1}
    11d0:	000d0c0e 	andeq	r0, sp, lr, lsl #24
    11d4:	00000018 	andeq	r0, r0, r8, lsl r0
    11d8:	000011c4 	andeq	r1, r0, r4, asr #3
    11dc:	a0005a40 	andge	r5, r0, r0, asr #20
    11e0:	000002ec 	andeq	r0, r0, ip, ror #5
    11e4:	84080e42 	strhi	r0, [r8], #-3650	; 0xe42
    11e8:	42018e02 	andmi	r8, r1, #2, 28
    11ec:	0000300e 	andeq	r3, r0, lr
    11f0:	00000018 	andeq	r0, r0, r8, lsl r0
    11f4:	000011c4 	andeq	r1, r0, r4, asr #3
    11f8:	a0005d2c 	andge	r5, r0, ip, lsr #26
    11fc:	00000154 	andeq	r0, r0, r4, asr r1
    1200:	84080e42 	strhi	r0, [r8], #-3650	; 0xe42
    1204:	42018e02 	andmi	r8, r1, #2, 28
    1208:	0000200e 	andeq	r2, r0, lr
    120c:	00000018 	andeq	r0, r0, r8, lsl r0
    1210:	000011c4 	andeq	r1, r0, r4, asr #3
    1214:	a0005e80 	andge	r5, r0, r0, lsl #29
    1218:	000000b8 	strheq	r0, [r0], -r8
    121c:	84080e42 	strhi	r0, [r8], #-3650	; 0xe42
    1220:	42018e02 	andmi	r8, r1, #2, 28
    1224:	0000180e 	andeq	r1, r0, lr, lsl #16
    1228:	00000018 	andeq	r0, r0, r8, lsl r0
    122c:	000011c4 	andeq	r1, r0, r4, asr #3
    1230:	a0005f38 	andge	r5, r0, r8, lsr pc
    1234:	00000064 	andeq	r0, r0, r4, rrx
    1238:	84080e42 	strhi	r0, [r8], #-3650	; 0xe42
    123c:	42018e02 	andmi	r8, r1, #2, 28
    1240:	0000180e 	andeq	r1, r0, lr, lsl #16
    1244:	00000018 	andeq	r0, r0, r8, lsl r0
    1248:	000011c4 	andeq	r1, r0, r4, asr #3
    124c:	a0005f9c 	mulge	r0, ip, pc	; <UNPREDICTABLE>
    1250:	00000218 	andeq	r0, r0, r8, lsl r2
    1254:	84080e42 	strhi	r0, [r8], #-3650	; 0xe42
    1258:	42018e02 	andmi	r8, r1, #2, 28
    125c:	0000200e 	andeq	r2, r0, lr
    1260:	00000018 	andeq	r0, r0, r8, lsl r0
    1264:	000011c4 	andeq	r1, r0, r4, asr #3
    1268:	a00061b4 			; <UNDEFINED> instruction: 0xa00061b4
    126c:	00000154 	andeq	r0, r0, r4, asr r1
    1270:	84080e42 	strhi	r0, [r8], #-3650	; 0xe42
    1274:	42018e02 	andmi	r8, r1, #2, 28
    1278:	0000180e 	andeq	r1, r0, lr, lsl #16
    127c:	00000010 	andeq	r0, r0, r0, lsl r0
    1280:	000011c4 	andeq	r1, r0, r4, asr #3
    1284:	a0006308 	andge	r6, r0, r8, lsl #6
    1288:	00000078 	andeq	r0, r0, r8, ror r0
    128c:	00100e42 	andseq	r0, r0, r2, asr #28
    1290:	00000018 	andeq	r0, r0, r8, lsl r0
    1294:	000011c4 	andeq	r1, r0, r4, asr #3
    1298:	a0006380 	andge	r6, r0, r0, lsl #7
    129c:	0000013c 	andeq	r0, r0, ip, lsr r1
    12a0:	84080e42 	strhi	r0, [r8], #-3650	; 0xe42
    12a4:	42018e02 	andmi	r8, r1, #2, 28
    12a8:	0000180e 	andeq	r1, r0, lr, lsl #16
    12ac:	00000018 	andeq	r0, r0, r8, lsl r0
    12b0:	000011c4 	andeq	r1, r0, r4, asr #3
    12b4:	a00064bc 			; <UNDEFINED> instruction: 0xa00064bc
    12b8:	0000013c 	andeq	r0, r0, ip, lsr r1
    12bc:	84080e42 	strhi	r0, [r8], #-3650	; 0xe42
    12c0:	42018e02 	andmi	r8, r1, #2, 28
    12c4:	0000180e 	andeq	r1, r0, lr, lsl #16
    12c8:	00000014 	andeq	r0, r0, r4, lsl r0
    12cc:	000011c4 	andeq	r1, r0, r4, asr #3
    12d0:	a00065f8 	strdge	r6, [r0], -r8
    12d4:	000000b0 	strheq	r0, [r0], -r0	; <UNPREDICTABLE>
    12d8:	8e040e42 	cdphi	14, 0, cr0, cr4, cr2, {2}
    12dc:	200e4201 	andcs	r4, lr, r1, lsl #4
    12e0:	00000014 	andeq	r0, r0, r4, lsl r0
    12e4:	000011c4 	andeq	r1, r0, r4, asr #3
    12e8:	a00066a8 	andge	r6, r0, r8, lsr #13
    12ec:	00000024 	andeq	r0, r0, r4, lsr #32
    12f0:	83080e42 	movwhi	r0, #36418	; 0x8e42
    12f4:	00018e02 	andeq	r8, r1, r2, lsl #28
    12f8:	0000000c 	andeq	r0, r0, ip
    12fc:	000011c4 	andeq	r1, r0, r4, asr #3
    1300:	a00066cc 	andge	r6, r0, ip, asr #13
    1304:	00000028 	andeq	r0, r0, r8, lsr #32
    1308:	00000018 	andeq	r0, r0, r8, lsl r0
    130c:	000011c4 	andeq	r1, r0, r4, asr #3
    1310:	a00066f4 	strdge	r6, [r0], -r4
    1314:	00000234 	andeq	r0, r0, r4, lsr r2
    1318:	840c0e42 	strhi	r0, [ip], #-3650	; 0xe42
    131c:	8e028503 	cfsh32hi	mvfx8, mvfx2, #3
    1320:	180e4201 	stmdane	lr, {r0, r9, lr}
    1324:	00000014 	andeq	r0, r0, r4, lsl r0
    1328:	000011c4 	andeq	r1, r0, r4, asr #3
    132c:	a0006928 	andge	r6, r0, r8, lsr #18
    1330:	00000034 	andeq	r0, r0, r4, lsr r0
    1334:	8e040e42 	cdphi	14, 0, cr0, cr4, cr2, {2}
    1338:	100e4201 	andne	r4, lr, r1, lsl #4
    133c:	00000014 	andeq	r0, r0, r4, lsl r0
    1340:	000011c4 	andeq	r1, r0, r4, asr #3
    1344:	a000695c 	andge	r6, r0, ip, asr r9
    1348:	00000044 	andeq	r0, r0, r4, asr #32
    134c:	8e040e42 	cdphi	14, 0, cr0, cr4, cr2, {2}
    1350:	100e4201 	andne	r4, lr, r1, lsl #4
    1354:	0000000c 	andeq	r0, r0, ip
    1358:	000011c4 	andeq	r1, r0, r4, asr #3
    135c:	a00069a0 	andge	r6, r0, r0, lsr #19
    1360:	00000018 	andeq	r0, r0, r8, lsl r0
    1364:	00000014 	andeq	r0, r0, r4, lsl r0
    1368:	000011c4 	andeq	r1, r0, r4, asr #3
    136c:	a00069b8 			; <UNDEFINED> instruction: 0xa00069b8
    1370:	00000180 	andeq	r0, r0, r0, lsl #3
    1374:	8e040e42 	cdphi	14, 0, cr0, cr4, cr2, {2}
    1378:	180e4201 	stmdane	lr, {r0, r9, lr}
    137c:	00000014 	andeq	r0, r0, r4, lsl r0
    1380:	000011c4 	andeq	r1, r0, r4, asr #3
    1384:	a0006b38 	andge	r6, r0, r8, lsr fp
    1388:	0000007c 	andeq	r0, r0, ip, ror r0
    138c:	8e040e42 	cdphi	14, 0, cr0, cr4, cr2, {2}
    1390:	100e4201 	andne	r4, lr, r1, lsl #4
    1394:	00000014 	andeq	r0, r0, r4, lsl r0
    1398:	000011c4 	andeq	r1, r0, r4, asr #3
    139c:	a0006bb4 			; <UNDEFINED> instruction: 0xa0006bb4
    13a0:	00000060 	andeq	r0, r0, r0, rrx
    13a4:	8e040e42 	cdphi	14, 0, cr0, cr4, cr2, {2}
    13a8:	100e4201 	andne	r4, lr, r1, lsl #4
    13ac:	00000014 	andeq	r0, r0, r4, lsl r0
    13b0:	000011c4 	andeq	r1, r0, r4, asr #3
    13b4:	a0006c14 	andge	r6, r0, r4, lsl ip
    13b8:	000002c0 	andeq	r0, r0, r0, asr #5
    13bc:	8e040e42 	cdphi	14, 0, cr0, cr4, cr2, {2}
    13c0:	180e4201 	stmdane	lr, {r0, r9, lr}
    13c4:	00000010 	andeq	r0, r0, r0, lsl r0
    13c8:	000011c4 	andeq	r1, r0, r4, asr #3
    13cc:	a0006ed4 	ldrdge	r6, [r0], -r4
    13d0:	00000270 	andeq	r0, r0, r0, ror r2
    13d4:	00080e42 	andeq	r0, r8, r2, asr #28
    13d8:	00000018 	andeq	r0, r0, r8, lsl r0
    13dc:	000011c4 	andeq	r1, r0, r4, asr #3
    13e0:	a0007144 	andge	r7, r0, r4, asr #2
    13e4:	000000b8 	strheq	r0, [r0], -r8
    13e8:	84080e42 	strhi	r0, [r8], #-3650	; 0xe42
    13ec:	42018e02 	andmi	r8, r1, #2, 28
    13f0:	0000180e 	andeq	r1, r0, lr, lsl #16
    13f4:	00000018 	andeq	r0, r0, r8, lsl r0
    13f8:	000011c4 	andeq	r1, r0, r4, asr #3
    13fc:	a00071fc 	strdge	r7, [r0], -ip
    1400:	00000080 	andeq	r0, r0, r0, lsl #1
    1404:	84080e42 	strhi	r0, [r8], #-3650	; 0xe42
    1408:	42018e02 	andmi	r8, r1, #2, 28
    140c:	0000180e 	andeq	r1, r0, lr, lsl #16
    1410:	00000018 	andeq	r0, r0, r8, lsl r0
    1414:	000011c4 	andeq	r1, r0, r4, asr #3
    1418:	a000727c 	andge	r7, r0, ip, ror r2
    141c:	00000140 	andeq	r0, r0, r0, asr #2
    1420:	84080e42 	strhi	r0, [r8], #-3650	; 0xe42
    1424:	42018e02 	andmi	r8, r1, #2, 28
    1428:	0000180e 	andeq	r1, r0, lr, lsl #16
    142c:	00000010 	andeq	r0, r0, r0, lsl r0
    1430:	000011c4 	andeq	r1, r0, r4, asr #3
    1434:	a00073bc 			; <UNDEFINED> instruction: 0xa00073bc
    1438:	00000040 	andeq	r0, r0, r0, asr #32
    143c:	00080e42 	andeq	r0, r8, r2, asr #28
    1440:	00000014 	andeq	r0, r0, r4, lsl r0
    1444:	000011c4 	andeq	r1, r0, r4, asr #3
    1448:	a00073fc 	strdge	r7, [r0], -ip
    144c:	00000108 	andeq	r0, r0, r8, lsl #2
    1450:	8e040e42 	cdphi	14, 0, cr0, cr4, cr2, {2}
    1454:	180e4201 	stmdane	lr, {r0, r9, lr}
    1458:	0000000c 	andeq	r0, r0, ip
    145c:	000011c4 	andeq	r1, r0, r4, asr #3
    1460:	a0007504 	andge	r7, r0, r4, lsl #10
    1464:	00000018 	andeq	r0, r0, r8, lsl r0
    1468:	00000014 	andeq	r0, r0, r4, lsl r0
    146c:	000011c4 	andeq	r1, r0, r4, asr #3
    1470:	a000751c 	andge	r7, r0, ip, lsl r5
    1474:	00000018 	andeq	r0, r0, r8, lsl r0
    1478:	8e040e42 	cdphi	14, 0, cr0, cr4, cr2, {2}
    147c:	100e4201 	andne	r4, lr, r1, lsl #4
    1480:	00000014 	andeq	r0, r0, r4, lsl r0
    1484:	000011c4 	andeq	r1, r0, r4, asr #3
    1488:	a0007534 	andge	r7, r0, r4, lsr r5
    148c:	000000c4 	andeq	r0, r0, r4, asr #1
    1490:	8e040e42 	cdphi	14, 0, cr0, cr4, cr2, {2}
    1494:	180e4201 	stmdane	lr, {r0, r9, lr}
    1498:	00000014 	andeq	r0, r0, r4, lsl r0
    149c:	000011c4 	andeq	r1, r0, r4, asr #3
    14a0:	a00075f8 	strdge	r7, [r0], -r8
    14a4:	000000e8 	andeq	r0, r0, r8, ror #1
    14a8:	8e040e42 	cdphi	14, 0, cr0, cr4, cr2, {2}
    14ac:	100e4201 	andne	r4, lr, r1, lsl #4
    14b0:	0000000c 	andeq	r0, r0, ip
    14b4:	000011c4 	andeq	r1, r0, r4, asr #3
    14b8:	a00076e0 	andge	r7, r0, r0, ror #13
    14bc:	00000004 	andeq	r0, r0, r4
    14c0:	00000014 	andeq	r0, r0, r4, lsl r0
    14c4:	000011c4 	andeq	r1, r0, r4, asr #3
    14c8:	a00076e4 	andge	r7, r0, r4, ror #13
    14cc:	000000e0 	andeq	r0, r0, r0, ror #1
    14d0:	8e040e42 	cdphi	14, 0, cr0, cr4, cr2, {2}
    14d4:	100e4201 	andne	r4, lr, r1, lsl #4
    14d8:	00000014 	andeq	r0, r0, r4, lsl r0
    14dc:	000011c4 	andeq	r1, r0, r4, asr #3
    14e0:	a00077c4 	andge	r7, r0, r4, asr #15
    14e4:	000000b0 	strheq	r0, [r0], -r0	; <UNPREDICTABLE>
    14e8:	8e040e42 	cdphi	14, 0, cr0, cr4, cr2, {2}
    14ec:	180e4201 	stmdane	lr, {r0, r9, lr}
    14f0:	00000014 	andeq	r0, r0, r4, lsl r0
    14f4:	000011c4 	andeq	r1, r0, r4, asr #3
    14f8:	a0007874 	andge	r7, r0, r4, ror r8
    14fc:	0000015c 	andeq	r0, r0, ip, asr r1
    1500:	8e040e42 	cdphi	14, 0, cr0, cr4, cr2, {2}
    1504:	400e4201 	andmi	r4, lr, r1, lsl #4
    1508:	00000014 	andeq	r0, r0, r4, lsl r0
    150c:	000011c4 	andeq	r1, r0, r4, asr #3
    1510:	a00079d0 	ldrdge	r7, [r0], -r0
    1514:	00000058 	andeq	r0, r0, r8, asr r0
    1518:	84040e42 	strhi	r0, [r4], #-3650	; 0xe42
    151c:	100e4201 	andne	r4, lr, r1, lsl #4
    1520:	00000010 	andeq	r0, r0, r0, lsl r0
    1524:	000011c4 	andeq	r1, r0, r4, asr #3
    1528:	a0007a28 	andge	r7, r0, r8, lsr #20
    152c:	00000034 	andeq	r0, r0, r4, lsr r0
    1530:	00080e42 	andeq	r0, r8, r2, asr #28
    1534:	00000010 	andeq	r0, r0, r0, lsl r0
    1538:	000011c4 	andeq	r1, r0, r4, asr #3
    153c:	a0007a5c 	andge	r7, r0, ip, asr sl
    1540:	00000064 	andeq	r0, r0, r4, rrx
    1544:	00080e42 	andeq	r0, r8, r2, asr #28
    1548:	00000018 	andeq	r0, r0, r8, lsl r0
    154c:	000011c4 	andeq	r1, r0, r4, asr #3
    1550:	a0007ac0 	andge	r7, r0, r0, asr #21
    1554:	00000158 	andeq	r0, r0, r8, asr r1
    1558:	84080e42 	strhi	r0, [r8], #-3650	; 0xe42
    155c:	42018e02 	andmi	r8, r1, #2, 28
    1560:	0000180e 	andeq	r1, r0, lr, lsl #16
    1564:	00000014 	andeq	r0, r0, r4, lsl r0
    1568:	000011c4 	andeq	r1, r0, r4, asr #3
    156c:	a0007c18 	andge	r7, r0, r8, lsl ip
    1570:	000000e8 	andeq	r0, r0, r8, ror #1
    1574:	8e040e42 	cdphi	14, 0, cr0, cr4, cr2, {2}
    1578:	180e4201 	stmdane	lr, {r0, r9, lr}
    157c:	00000014 	andeq	r0, r0, r4, lsl r0
    1580:	000011c4 	andeq	r1, r0, r4, asr #3
    1584:	a0007d00 	andge	r7, r0, r0, lsl #26
    1588:	0000004c 	andeq	r0, r0, ip, asr #32
    158c:	84080e42 	strhi	r0, [r8], #-3650	; 0xe42
    1590:	00018e02 	andeq	r8, r1, r2, lsl #28
    1594:	00000014 	andeq	r0, r0, r4, lsl r0
    1598:	000011c4 	andeq	r1, r0, r4, asr #3
    159c:	a0007d4c 	andge	r7, r0, ip, asr #26
    15a0:	00000080 	andeq	r0, r0, r0, lsl #1
    15a4:	83080e42 	movwhi	r0, #36418	; 0x8e42
    15a8:	00018e02 	andeq	r8, r1, r2, lsl #28
    15ac:	0000000c 	andeq	r0, r0, ip
    15b0:	ffffffff 			; <UNDEFINED> instruction: 0xffffffff
    15b4:	7c020001 	stcvc	0, cr0, [r2], {1}
    15b8:	000d0c0e 	andeq	r0, sp, lr, lsl #24
    15bc:	00000014 	andeq	r0, r0, r4, lsl r0
    15c0:	000015ac 	andeq	r1, r0, ip, lsr #11
    15c4:	a0007dcc 	andge	r7, r0, ip, asr #27
    15c8:	0000008c 	andeq	r0, r0, ip, lsl #1
    15cc:	8e040e42 	cdphi	14, 0, cr0, cr4, cr2, {2}
    15d0:	200e4201 	andcs	r4, lr, r1, lsl #4
    15d4:	00000014 	andeq	r0, r0, r4, lsl r0
    15d8:	000015ac 	andeq	r1, r0, ip, lsr #11
    15dc:	a0007e58 	andge	r7, r0, r8, asr lr
    15e0:	000000a8 	andeq	r0, r0, r8, lsr #1
    15e4:	8e040e42 	cdphi	14, 0, cr0, cr4, cr2, {2}
    15e8:	200e4201 	andcs	r4, lr, r1, lsl #4
    15ec:	00000014 	andeq	r0, r0, r4, lsl r0
    15f0:	000015ac 	andeq	r1, r0, ip, lsr #11
    15f4:	a0007f00 	andge	r7, r0, r0, lsl #30
    15f8:	00000108 	andeq	r0, r0, r8, lsl #2
    15fc:	8e040e42 	cdphi	14, 0, cr0, cr4, cr2, {2}
    1600:	280e4201 	stmdacs	lr, {r0, r9, lr}
    1604:	00000014 	andeq	r0, r0, r4, lsl r0
    1608:	000015ac 	andeq	r1, r0, ip, lsr #11
    160c:	a0008008 	andge	r8, r0, r8
    1610:	000000b4 	strheq	r0, [r0], -r4
    1614:	8e040e42 	cdphi	14, 0, cr0, cr4, cr2, {2}
    1618:	200e4201 	andcs	r4, lr, r1, lsl #4
    161c:	00000014 	andeq	r0, r0, r4, lsl r0
    1620:	000015ac 	andeq	r1, r0, ip, lsr #11
    1624:	a00080bc 	strhge	r8, [r0], -ip
    1628:	00000034 	andeq	r0, r0, r4, lsr r0
    162c:	8e040e42 	cdphi	14, 0, cr0, cr4, cr2, {2}
    1630:	180e4201 	stmdane	lr, {r0, r9, lr}
    1634:	00000014 	andeq	r0, r0, r4, lsl r0
    1638:	000015ac 	andeq	r1, r0, ip, lsr #11
    163c:	a00080f0 	strdge	r8, [r0], -r0
    1640:	000000d4 	ldrdeq	r0, [r0], -r4
    1644:	8e040e42 	cdphi	14, 0, cr0, cr4, cr2, {2}
    1648:	180e4201 	stmdane	lr, {r0, r9, lr}
    164c:	00000010 	andeq	r0, r0, r0, lsl r0
    1650:	000015ac 	andeq	r1, r0, ip, lsr #11
    1654:	a00081c4 	andge	r8, r0, r4, asr #3
    1658:	00000080 	andeq	r0, r0, r0, lsl #1
    165c:	00100e42 	andseq	r0, r0, r2, asr #28
    1660:	00000014 	andeq	r0, r0, r4, lsl r0
    1664:	000015ac 	andeq	r1, r0, ip, lsr #11
    1668:	a0008244 	andge	r8, r0, r4, asr #4
    166c:	00000088 	andeq	r0, r0, r8, lsl #1
    1670:	8e040e42 	cdphi	14, 0, cr0, cr4, cr2, {2}
    1674:	180e4201 	stmdane	lr, {r0, r9, lr}
    1678:	00000014 	andeq	r0, r0, r4, lsl r0
    167c:	000015ac 	andeq	r1, r0, ip, lsr #11
    1680:	a00082cc 	andge	r8, r0, ip, asr #5
    1684:	000000f8 	strdeq	r0, [r0], -r8
    1688:	8e040e42 	cdphi	14, 0, cr0, cr4, cr2, {2}
    168c:	200e4201 	andcs	r4, lr, r1, lsl #4
    1690:	00000014 	andeq	r0, r0, r4, lsl r0
    1694:	000015ac 	andeq	r1, r0, ip, lsr #11
    1698:	a00083c4 	andge	r8, r0, r4, asr #7
    169c:	00000178 	andeq	r0, r0, r8, ror r1
    16a0:	8e040e42 	cdphi	14, 0, cr0, cr4, cr2, {2}
    16a4:	300e4201 	andcc	r4, lr, r1, lsl #4
    16a8:	00000014 	andeq	r0, r0, r4, lsl r0
    16ac:	000015ac 	andeq	r1, r0, ip, lsr #11
    16b0:	a000853c 	andge	r8, r0, ip, lsr r5
    16b4:	00000168 	andeq	r0, r0, r8, ror #2
    16b8:	8e040e42 	cdphi	14, 0, cr0, cr4, cr2, {2}
    16bc:	300e4201 	andcc	r4, lr, r1, lsl #4
    16c0:	00000014 	andeq	r0, r0, r4, lsl r0
    16c4:	000015ac 	andeq	r1, r0, ip, lsr #11
    16c8:	a00086a4 	andge	r8, r0, r4, lsr #13
    16cc:	000000a8 	andeq	r0, r0, r8, lsr #1
    16d0:	83080e42 	movwhi	r0, #36418	; 0x8e42
    16d4:	00018e02 	andeq	r8, r1, r2, lsl #28
    16d8:	00000014 	andeq	r0, r0, r4, lsl r0
    16dc:	000015ac 	andeq	r1, r0, ip, lsr #11
    16e0:	a000874c 	andge	r8, r0, ip, asr #14
    16e4:	00000048 	andeq	r0, r0, r8, asr #32
    16e8:	8e040e42 	cdphi	14, 0, cr0, cr4, cr2, {2}
    16ec:	180e4201 	stmdane	lr, {r0, r9, lr}
    16f0:	00000010 	andeq	r0, r0, r0, lsl r0
    16f4:	000015ac 	andeq	r1, r0, ip, lsr #11
    16f8:	a0008794 	mulge	r0, r4, r7
    16fc:	00000024 	andeq	r0, r0, r4, lsr #32
    1700:	00100e42 	andseq	r0, r0, r2, asr #28
    1704:	0000000c 	andeq	r0, r0, ip
    1708:	ffffffff 			; <UNDEFINED> instruction: 0xffffffff
    170c:	7c020001 	stcvc	0, cr0, [r2], {1}
    1710:	000d0c0e 	andeq	r0, sp, lr, lsl #24
    1714:	00000010 	andeq	r0, r0, r0, lsl r0
    1718:	00001704 	andeq	r1, r0, r4, lsl #14
    171c:	a00087b8 			; <UNDEFINED> instruction: 0xa00087b8
    1720:	000000c8 	andeq	r0, r0, r8, asr #1
    1724:	00180e42 	andseq	r0, r8, r2, asr #28
    1728:	00000010 	andeq	r0, r0, r0, lsl r0
    172c:	00001704 	andeq	r1, r0, r4, lsl #14
    1730:	a0008880 	andge	r8, r0, r0, lsl #17
    1734:	000000ac 	andeq	r0, r0, ip, lsr #1
    1738:	00180e42 	andseq	r0, r8, r2, asr #28
    173c:	0000000c 	andeq	r0, r0, ip
    1740:	00001704 	andeq	r1, r0, r4, lsl #14
    1744:	a000892c 	andge	r8, r0, ip, lsr #18
    1748:	00000024 	andeq	r0, r0, r4, lsr #32
    174c:	0000000c 	andeq	r0, r0, ip
    1750:	00001704 	andeq	r1, r0, r4, lsl #14
    1754:	a0008950 	andge	r8, r0, r0, asr r9
    1758:	00000048 	andeq	r0, r0, r8, asr #32
    175c:	0000000c 	andeq	r0, r0, ip
    1760:	00001704 	andeq	r1, r0, r4, lsl #14
    1764:	a0008998 	mulge	r0, r8, r9
    1768:	00000070 	andeq	r0, r0, r0, ror r0
    176c:	0000000c 	andeq	r0, r0, ip
    1770:	00001704 	andeq	r1, r0, r4, lsl #14
    1774:	a0008a08 	andge	r8, r0, r8, lsl #20
    1778:	00000038 	andeq	r0, r0, r8, lsr r0
    177c:	0000000c 	andeq	r0, r0, ip
    1780:	00001704 	andeq	r1, r0, r4, lsl #14
    1784:	a0008a40 	andge	r8, r0, r0, asr #20
    1788:	00000000 	andeq	r0, r0, r0
    178c:	00000014 	andeq	r0, r0, r4, lsl r0
    1790:	00001704 	andeq	r1, r0, r4, lsl #14
    1794:	a0008a40 	andge	r8, r0, r0, asr #20
    1798:	0000001c 	andeq	r0, r0, ip, lsl r0
    179c:	83080e42 	movwhi	r0, #36418	; 0x8e42
    17a0:	00018e02 	andeq	r8, r1, r2, lsl #28
    17a4:	00000014 	andeq	r0, r0, r4, lsl r0
    17a8:	00001704 	andeq	r1, r0, r4, lsl #14
    17ac:	a0008a5c 	andge	r8, r0, ip, asr sl
    17b0:	00000090 	muleq	r0, r0, r0
    17b4:	8e040e42 	cdphi	14, 0, cr0, cr4, cr2, {2}
    17b8:	180e4201 	stmdane	lr, {r0, r9, lr}
    17bc:	00000014 	andeq	r0, r0, r4, lsl r0
    17c0:	00001704 	andeq	r1, r0, r4, lsl #14
    17c4:	a0008aec 	andge	r8, r0, ip, ror #21
    17c8:	00000018 	andeq	r0, r0, r8, lsl r0
    17cc:	83080e42 	movwhi	r0, #36418	; 0x8e42
    17d0:	00018e02 	andeq	r8, r1, r2, lsl #28
    17d4:	00000014 	andeq	r0, r0, r4, lsl r0
    17d8:	00001704 	andeq	r1, r0, r4, lsl #14
    17dc:	a0008b04 	andge	r8, r0, r4, lsl #22
    17e0:	00000020 	andeq	r0, r0, r0, lsr #32
    17e4:	83080e42 	movwhi	r0, #36418	; 0x8e42
    17e8:	00018e02 	andeq	r8, r1, r2, lsl #28
    17ec:	00000018 	andeq	r0, r0, r8, lsl r0
    17f0:	00001704 	andeq	r1, r0, r4, lsl #14
    17f4:	a0008b24 	andge	r8, r0, r4, lsr #22
    17f8:	000000b4 	strheq	r0, [r0], -r4
    17fc:	84080e42 	strhi	r0, [r8], #-3650	; 0xe42
    1800:	42018e02 	andmi	r8, r1, #2, 28
    1804:	0000100e 	andeq	r1, r0, lr
    1808:	0000000c 	andeq	r0, r0, ip
    180c:	00001704 	andeq	r1, r0, r4, lsl #14
    1810:	a0008bd8 	ldrdge	r8, [r0], -r8	; <UNPREDICTABLE>
    1814:	00000004 	andeq	r0, r0, r4
    1818:	00000014 	andeq	r0, r0, r4, lsl r0
    181c:	00001704 	andeq	r1, r0, r4, lsl #14
    1820:	a0008bdc 	ldrdge	r8, [r0], -ip
    1824:	00000040 	andeq	r0, r0, r0, asr #32
    1828:	8e040e42 	cdphi	14, 0, cr0, cr4, cr2, {2}
    182c:	100e4201 	andne	r4, lr, r1, lsl #4
    1830:	00000010 	andeq	r0, r0, r0, lsl r0
    1834:	00001704 	andeq	r1, r0, r4, lsl #14
    1838:	a0008c1c 	andge	r8, r0, ip, lsl ip
    183c:	00000040 	andeq	r0, r0, r0, asr #32
    1840:	00080e42 	andeq	r0, r8, r2, asr #28
    1844:	00000010 	andeq	r0, r0, r0, lsl r0
    1848:	00001704 	andeq	r1, r0, r4, lsl #14
    184c:	a0008c5c 	andge	r8, r0, ip, asr ip
    1850:	00000054 	andeq	r0, r0, r4, asr r0
    1854:	00100e42 	andseq	r0, r0, r2, asr #28
    1858:	00000018 	andeq	r0, r0, r8, lsl r0
    185c:	00001704 	andeq	r1, r0, r4, lsl #14
    1860:	a0008cb0 			; <UNDEFINED> instruction: 0xa0008cb0
    1864:	00000050 	andeq	r0, r0, r0, asr r0
    1868:	84080e42 	strhi	r0, [r8], #-3650	; 0xe42
    186c:	42018e02 	andmi	r8, r1, #2, 28
    1870:	0000100e 	andeq	r1, r0, lr
    1874:	00000010 	andeq	r0, r0, r0, lsl r0
    1878:	00001704 	andeq	r1, r0, r4, lsl #14
    187c:	a0008d00 	andge	r8, r0, r0, lsl #26
    1880:	00000350 	andeq	r0, r0, r0, asr r3
    1884:	00700e42 	rsbseq	r0, r0, r2, asr #28
    1888:	00000014 	andeq	r0, r0, r4, lsl r0
    188c:	00001704 	andeq	r1, r0, r4, lsl #14
    1890:	a0009050 	andge	r9, r0, r0, asr r0
    1894:	000000f8 	strdeq	r0, [r0], -r8
    1898:	8e040e42 	cdphi	14, 0, cr0, cr4, cr2, {2}
    189c:	580e4201 	stmdapl	lr, {r0, r9, lr}
    18a0:	00000010 	andeq	r0, r0, r0, lsl r0
    18a4:	00001704 	andeq	r1, r0, r4, lsl #14
    18a8:	a0009148 	andge	r9, r0, r8, asr #2
    18ac:	00000034 	andeq	r0, r0, r4, lsr r0
    18b0:	00080e42 	andeq	r0, r8, r2, asr #28
    18b4:	00000010 	andeq	r0, r0, r0, lsl r0
    18b8:	00001704 	andeq	r1, r0, r4, lsl #14
    18bc:	a000917c 	andge	r9, r0, ip, ror r1
    18c0:	00000020 	andeq	r0, r0, r0, lsr #32
    18c4:	00080e42 	andeq	r0, r8, r2, asr #28
    18c8:	00000010 	andeq	r0, r0, r0, lsl r0
    18cc:	00001704 	andeq	r1, r0, r4, lsl #14
    18d0:	a000919c 	mulge	r0, ip, r1
    18d4:	00000010 	andeq	r0, r0, r0, lsl r0
    18d8:	00080e42 	andeq	r0, r8, r2, asr #28
    18dc:	00000010 	andeq	r0, r0, r0, lsl r0
    18e0:	00001704 	andeq	r1, r0, r4, lsl #14
    18e4:	a00091ac 	andge	r9, r0, ip, lsr #3
    18e8:	00000198 	muleq	r0, r8, r1
    18ec:	00280e42 	eoreq	r0, r8, r2, asr #28
    18f0:	0000000c 	andeq	r0, r0, ip
    18f4:	00001704 	andeq	r1, r0, r4, lsl #14
    18f8:	a0009344 	andge	r9, r0, r4, asr #6
    18fc:	00000008 	andeq	r0, r0, r8
    1900:	0000000c 	andeq	r0, r0, ip
    1904:	00001704 	andeq	r1, r0, r4, lsl #14
    1908:	a000934c 	andge	r9, r0, ip, asr #6
    190c:	00000008 	andeq	r0, r0, r8
    1910:	0000000c 	andeq	r0, r0, ip
    1914:	00001704 	andeq	r1, r0, r4, lsl #14
    1918:	a0009354 	andge	r9, r0, r4, asr r3
    191c:	00000004 	andeq	r0, r0, r4
    1920:	0000000c 	andeq	r0, r0, ip
    1924:	ffffffff 			; <UNDEFINED> instruction: 0xffffffff
    1928:	7c020001 	stcvc	0, cr0, [r2], {1}
    192c:	000d0c0e 	andeq	r0, sp, lr, lsl #24
    1930:	00000014 	andeq	r0, r0, r4, lsl r0
    1934:	00001920 	andeq	r1, r0, r0, lsr #18
    1938:	a0009358 	andge	r9, r0, r8, asr r3
    193c:	000000f8 	strdeq	r0, [r0], -r8
    1940:	8e040e42 	cdphi	14, 0, cr0, cr4, cr2, {2}
    1944:	180e4201 	stmdane	lr, {r0, r9, lr}
    1948:	00000010 	andeq	r0, r0, r0, lsl r0
    194c:	00001920 	andeq	r1, r0, r0, lsr #18
    1950:	a0009450 	andge	r9, r0, r0, asr r4
    1954:	00000010 	andeq	r0, r0, r0, lsl r0
    1958:	00080e42 	andeq	r0, r8, r2, asr #28
    195c:	0000000c 	andeq	r0, r0, ip
    1960:	00001920 	andeq	r1, r0, r0, lsr #18
    1964:	a0009460 	andge	r9, r0, r0, ror #8
    1968:	00000018 	andeq	r0, r0, r8, lsl r0
    196c:	0000000c 	andeq	r0, r0, ip
    1970:	00001920 	andeq	r1, r0, r0, lsr #18
    1974:	a0009478 	andge	r9, r0, r8, ror r4
    1978:	0000001c 	andeq	r0, r0, ip, lsl r0
